ARM GAS  C:\Users\User\AppData\Local\Temp\ccQxEyAR.s 			page 1


   1              		.syntax unified
   2              		.cpu cortex-m3
   3              		.fpu softvfp
   4              		.eabi_attribute 20, 1
   5              		.eabi_attribute 21, 1
   6              		.eabi_attribute 23, 3
   7              		.eabi_attribute 24, 1
   8              		.eabi_attribute 25, 1
   9              		.eabi_attribute 26, 1
  10              		.eabi_attribute 30, 1
  11              		.eabi_attribute 34, 1
  12              		.eabi_attribute 18, 4
  13              		.thumb
  14              		.file	"main.c"
  15              		.text
  16              	.Ltext0:
  17              		.cfi_sections	.debug_frame
  18              		.section	.text.BLE_Rx_isr,"ax",%progbits
  19              		.align	2
  20              		.global	BLE_Rx_isr
  21              		.thumb
  22              		.thumb_func
  23              		.type	BLE_Rx_isr, %function
  24              	BLE_Rx_isr:
  25              	.LFB68:
  26              		.file 1 ".\\main.c"
   1:.\main.c      **** /* ========================================
   2:.\main.c      ****  *
   3:.\main.c      ****  * Copyright Andi Qu, 2024
   4:.\main.c      ****  * All Rights Reserved
   5:.\main.c      ****  * UNPUBLISHED, LICENSED SOFTWARE.
   6:.\main.c      ****  *
   7:.\main.c      ****  * CONFIDENTIAL AND PROPRIETARY INFORMATION
   8:.\main.c      ****  * WHICH IS THE PROPERTY OF ANDI QU.
   9:.\main.c      ****  *
  10:.\main.c      ****  * ========================================
  11:.\main.c      ****  */
  12:.\main.c      **** #include <project.h>
  13:.\main.c      **** #include <math.h>
  14:.\main.c      **** #include <sprites.h>
  15:.\main.c      **** 
  16:.\main.c      **** // Global constants
  17:.\main.c      **** const uint16 DAC_SETTLE_TIME_US = 3;
  18:.\main.c      **** const float PI = 3.14159265358979323846;
  19:.\main.c      **** 
  20:.\main.c      **** // Sprites
  21:.\main.c      **** int n_sprites;
  22:.\main.c      **** struct Sprite sprites[1<<5];
  23:.\main.c      **** 
  24:.\main.c      **** // Global rendering variables
  25:.\main.c      **** int n_points;
  26:.\main.c      **** struct Point points[1<<10];
  27:.\main.c      **** uint8 new_flag;
  28:.\main.c      **** int new_n_points;
  29:.\main.c      **** struct Point new_points[1<<10];
  30:.\main.c      **** 
  31:.\main.c      **** // Declare custom ISRs
ARM GAS  C:\Users\User\AppData\Local\Temp\ccQxEyAR.s 			page 2


  32:.\main.c      **** CY_ISR_PROTO(FPS_isr);
  33:.\main.c      **** CY_ISR_PROTO(BLE_Rx_isr);
  34:.\main.c      **** 
  35:.\main.c      **** /*
  36:.\main.c      ****  * Initialize the system hardware
  37:.\main.c      ****  */
  38:.\main.c      **** void hw_init() {
  39:.\main.c      ****     x_DAC_Start();
  40:.\main.c      ****     y_DAC_Start();
  41:.\main.c      ****     
  42:.\main.c      ****     LCD_Start();
  43:.\main.c      ****     LCD_ClearDisplay();
  44:.\main.c      ****     LCD_Position(0, 0);
  45:.\main.c      ****     
  46:.\main.c      ****     BLE_UART_Init();
  47:.\main.c      ****     BLE_UART_Start();
  48:.\main.c      **** 
  49:.\main.c      ****     FPS_isr_StartEx(FPS_isr);
  50:.\main.c      ****     BLE_Rx_isr_StartEx(BLE_Rx_isr);
  51:.\main.c      **** }
  52:.\main.c      **** 
  53:.\main.c      **** /*
  54:.\main.c      ****  * Start a new game of Guitar Hero
  55:.\main.c      ****  */
  56:.\main.c      **** void game_init() {
  57:.\main.c      ****     n_sprites = 0;
  58:.\main.c      ****     sprites[n_sprites++] = make_fretboard();
  59:.\main.c      **** }
  60:.\main.c      **** 
  61:.\main.c      **** /*
  62:.\main.c      ****  * Given a list of points, draws a polygon connecting them
  63:.\main.c      ****  * on the oscilloscope using the DAC
  64:.\main.c      ****  */
  65:.\main.c      **** void draw_points() {   
  66:.\main.c      ****     for (int i = 0; i < n_points; i++) {
  67:.\main.c      ****         x_DAC_SetValue(points[i].x);
  68:.\main.c      ****         y_DAC_SetValue(points[i].y);
  69:.\main.c      ****         CyDelayUs(DAC_SETTLE_TIME_US); // Wait for DAC to settle
  70:.\main.c      ****     }
  71:.\main.c      **** }
  72:.\main.c      **** 
  73:.\main.c      **** /*
  74:.\main.c      ****  * Updates the list of points to render
  75:.\main.c      ****  */
  76:.\main.c      **** void update_points() {
  77:.\main.c      ****     // TODO: create a moving ellipse
  78:.\main.c      ****     
  79:.\main.c      ****     // Convert to polyline
  80:.\main.c      ****     new_n_points = sprites_to_polyline(n_sprites, sprites, new_points);
  81:.\main.c      ****     // Convert to perspective
  82:.\main.c      ****     ortho_to_perspective(new_n_points, new_points);
  83:.\main.c      ****     // Signal that a new frame is ready
  84:.\main.c      ****     new_flag = 1;
  85:.\main.c      **** }
  86:.\main.c      **** 
  87:.\main.c      **** /*
  88:.\main.c      ****  * Run the game at 20 FPS
ARM GAS  C:\Users\User\AppData\Local\Temp\ccQxEyAR.s 			page 3


  89:.\main.c      ****  */
  90:.\main.c      **** CY_ISR(FPS_isr) {
  91:.\main.c      ****     update_points();
  92:.\main.c      **** }
  93:.\main.c      **** 
  94:.\main.c      **** CY_ISR(BLE_Rx_isr) {
  27              		.loc 1 94 0
  28              		.cfi_startproc
  29              		@ args = 0, pretend = 0, frame = 0
  30              		@ frame_needed = 0, uses_anonymous_args = 0
  31 0000 08B5     		push	{r3, lr}
  32              		.cfi_def_cfa_offset 8
  33              		.cfi_offset 3, -8
  34              		.cfi_offset 14, -4
  95:.\main.c      ****     uint8 c = BLE_UART_GetChar();
  35              		.loc 1 95 0
  36 0002 FFF7FEFF 		bl	BLE_UART_GetChar
  37              	.LVL0:
  96:.\main.c      ****     if (c != '\n') LCD_PutChar(c);
  38              		.loc 1 96 0
  39 0006 0A28     		cmp	r0, #10
  40 0008 01D0     		beq	.L1
  41              		.loc 1 96 0 is_stmt 0 discriminator 1
  42 000a FFF7FEFF 		bl	LCD_PutChar
  43              	.LVL1:
  44              	.L1:
  45 000e 08BD     		pop	{r3, pc}
  46              		.cfi_endproc
  47              	.LFE68:
  48              		.size	BLE_Rx_isr, .-BLE_Rx_isr
  49              		.section	.text.hw_init,"ax",%progbits
  50              		.align	2
  51              		.global	hw_init
  52              		.thumb
  53              		.thumb_func
  54              		.type	hw_init, %function
  55              	hw_init:
  56              	.LFB63:
  38:.\main.c      ****     x_DAC_Start();
  57              		.loc 1 38 0 is_stmt 1
  58              		.cfi_startproc
  59              		@ args = 0, pretend = 0, frame = 0
  60              		@ frame_needed = 0, uses_anonymous_args = 0
  61 0000 08B5     		push	{r3, lr}
  62              		.cfi_def_cfa_offset 8
  63              		.cfi_offset 3, -8
  64              		.cfi_offset 14, -4
  39:.\main.c      ****     y_DAC_Start();
  65              		.loc 1 39 0
  66 0002 FFF7FEFF 		bl	x_DAC_Start
  67              	.LVL2:
  40:.\main.c      ****     
  68              		.loc 1 40 0
  69 0006 FFF7FEFF 		bl	y_DAC_Start
  70              	.LVL3:
  42:.\main.c      ****     LCD_ClearDisplay();
  71              		.loc 1 42 0
ARM GAS  C:\Users\User\AppData\Local\Temp\ccQxEyAR.s 			page 4


  72 000a FFF7FEFF 		bl	LCD_Start
  73              	.LVL4:
  43:.\main.c      ****     LCD_Position(0, 0);
  74              		.loc 1 43 0
  75 000e 0120     		movs	r0, #1
  76 0010 FFF7FEFF 		bl	LCD_WriteControl
  77              	.LVL5:
  44:.\main.c      ****     
  78              		.loc 1 44 0
  79 0014 0020     		movs	r0, #0
  80 0016 0146     		mov	r1, r0
  81 0018 FFF7FEFF 		bl	LCD_Position
  82              	.LVL6:
  46:.\main.c      ****     BLE_UART_Start();
  83              		.loc 1 46 0
  84 001c FFF7FEFF 		bl	BLE_UART_Init
  85              	.LVL7:
  47:.\main.c      **** 
  86              		.loc 1 47 0
  87 0020 FFF7FEFF 		bl	BLE_UART_Start
  88              	.LVL8:
  49:.\main.c      ****     BLE_Rx_isr_StartEx(BLE_Rx_isr);
  89              		.loc 1 49 0
  90 0024 0348     		ldr	r0, .L6
  91 0026 FFF7FEFF 		bl	FPS_isr_StartEx
  92              	.LVL9:
  50:.\main.c      **** }
  93              		.loc 1 50 0
  94 002a 0348     		ldr	r0, .L6+4
  95 002c FFF7FEFF 		bl	BLE_Rx_isr_StartEx
  96              	.LVL10:
  97 0030 08BD     		pop	{r3, pc}
  98              	.L7:
  99 0032 00BF     		.align	2
 100              	.L6:
 101 0034 00000000 		.word	FPS_isr
 102 0038 00000000 		.word	BLE_Rx_isr
 103              		.cfi_endproc
 104              	.LFE63:
 105              		.size	hw_init, .-hw_init
 106              		.section	.text.game_init,"ax",%progbits
 107              		.align	2
 108              		.global	game_init
 109              		.thumb
 110              		.thumb_func
 111              		.type	game_init, %function
 112              	game_init:
 113              	.LFB64:
  56:.\main.c      ****     n_sprites = 0;
 114              		.loc 1 56 0
 115              		.cfi_startproc
 116              		@ args = 0, pretend = 0, frame = 16
 117              		@ frame_needed = 0, uses_anonymous_args = 0
 118 0000 30B5     		push	{r4, r5, lr}
 119              		.cfi_def_cfa_offset 12
 120              		.cfi_offset 4, -12
 121              		.cfi_offset 5, -8
ARM GAS  C:\Users\User\AppData\Local\Temp\ccQxEyAR.s 			page 5


 122              		.cfi_offset 14, -4
 123 0002 85B0     		sub	sp, sp, #20
 124              		.cfi_def_cfa_offset 32
  58:.\main.c      **** }
 125              		.loc 1 58 0
 126 0004 0122     		movs	r2, #1
 127 0006 064B     		ldr	r3, .L10
 128 0008 1A60     		str	r2, [r3]
 129 000a 064D     		ldr	r5, .L10+4
 130 000c 6846     		mov	r0, sp
 131 000e FFF7FEFF 		bl	make_fretboard
 132              	.LVL11:
 133 0012 9DE80700 		ldmia	sp, {r0, r1, r2}
 134 0016 85E80700 		stmia	r5, {r0, r1, r2}
  59:.\main.c      **** 
 135              		.loc 1 59 0
 136 001a 05B0     		add	sp, sp, #20
 137              		.cfi_def_cfa_offset 12
 138              		@ sp needed
 139 001c 30BD     		pop	{r4, r5, pc}
 140              	.L11:
 141 001e 00BF     		.align	2
 142              	.L10:
 143 0020 00000000 		.word	n_sprites
 144 0024 00000000 		.word	sprites
 145              		.cfi_endproc
 146              	.LFE64:
 147              		.size	game_init, .-game_init
 148              		.section	.text.draw_points,"ax",%progbits
 149              		.align	2
 150              		.global	draw_points
 151              		.thumb
 152              		.thumb_func
 153              		.type	draw_points, %function
 154              	draw_points:
 155              	.LFB65:
  65:.\main.c      ****     for (int i = 0; i < n_points; i++) {
 156              		.loc 1 65 0
 157              		.cfi_startproc
 158              		@ args = 0, pretend = 0, frame = 0
 159              		@ frame_needed = 0, uses_anonymous_args = 0
 160 0000 38B5     		push	{r3, r4, r5, lr}
 161              		.cfi_def_cfa_offset 16
 162              		.cfi_offset 3, -16
 163              		.cfi_offset 4, -12
 164              		.cfi_offset 5, -8
 165              		.cfi_offset 14, -4
 166              	.LVL12:
 167              	.LBB2:
  66:.\main.c      ****         x_DAC_SetValue(points[i].x);
 168              		.loc 1 66 0
 169 0002 0024     		movs	r4, #0
 170 0004 0DE0     		b	.L13
 171              	.LVL13:
 172              	.L14:
  67:.\main.c      ****         y_DAC_SetValue(points[i].y);
 173              		.loc 1 67 0 discriminator 3
ARM GAS  C:\Users\User\AppData\Local\Temp\ccQxEyAR.s 			page 6


 174 0006 094D     		ldr	r5, .L16
 175 0008 15F81400 		ldrb	r0, [r5, r4, lsl #1]	@ zero_extendqisi2
 176 000c FFF7FEFF 		bl	x_DAC_SetValue
 177              	.LVL14:
  68:.\main.c      ****         CyDelayUs(DAC_SETTLE_TIME_US); // Wait for DAC to settle
 178              		.loc 1 68 0 discriminator 3
 179 0010 05EB4405 		add	r5, r5, r4, lsl #1
 180 0014 6878     		ldrb	r0, [r5, #1]	@ zero_extendqisi2
 181 0016 FFF7FEFF 		bl	y_DAC_SetValue
 182              	.LVL15:
  69:.\main.c      ****     }
 183              		.loc 1 69 0 discriminator 3
 184 001a 0320     		movs	r0, #3
 185 001c FFF7FEFF 		bl	CyDelayUs
 186              	.LVL16:
  66:.\main.c      ****         x_DAC_SetValue(points[i].x);
 187              		.loc 1 66 0 discriminator 3
 188 0020 0134     		adds	r4, r4, #1
 189              	.LVL17:
 190              	.L13:
  66:.\main.c      ****         x_DAC_SetValue(points[i].x);
 191              		.loc 1 66 0 is_stmt 0 discriminator 1
 192 0022 034B     		ldr	r3, .L16+4
 193 0024 1B68     		ldr	r3, [r3]
 194 0026 9C42     		cmp	r4, r3
 195 0028 EDDB     		blt	.L14
 196              	.LBE2:
  71:.\main.c      **** 
 197              		.loc 1 71 0 is_stmt 1
 198 002a 38BD     		pop	{r3, r4, r5, pc}
 199              	.LVL18:
 200              	.L17:
 201              		.align	2
 202              	.L16:
 203 002c 00000000 		.word	points
 204 0030 00000000 		.word	n_points
 205              		.cfi_endproc
 206              	.LFE65:
 207              		.size	draw_points, .-draw_points
 208              		.section	.text.update_points,"ax",%progbits
 209              		.align	2
 210              		.global	update_points
 211              		.thumb
 212              		.thumb_func
 213              		.type	update_points, %function
 214              	update_points:
 215              	.LFB66:
  76:.\main.c      ****     // TODO: create a moving ellipse
 216              		.loc 1 76 0
 217              		.cfi_startproc
 218              		@ args = 0, pretend = 0, frame = 0
 219              		@ frame_needed = 0, uses_anonymous_args = 0
 220 0000 10B5     		push	{r4, lr}
 221              		.cfi_def_cfa_offset 8
 222              		.cfi_offset 4, -8
 223              		.cfi_offset 14, -4
  80:.\main.c      ****     // Convert to perspective
ARM GAS  C:\Users\User\AppData\Local\Temp\ccQxEyAR.s 			page 7


 224              		.loc 1 80 0
 225 0002 084C     		ldr	r4, .L20
 226 0004 084B     		ldr	r3, .L20+4
 227 0006 1868     		ldr	r0, [r3]
 228 0008 0849     		ldr	r1, .L20+8
 229 000a 2246     		mov	r2, r4
 230 000c FFF7FEFF 		bl	sprites_to_polyline
 231              	.LVL19:
 232 0010 074B     		ldr	r3, .L20+12
 233 0012 1860     		str	r0, [r3]
  82:.\main.c      ****     // Signal that a new frame is ready
 234              		.loc 1 82 0
 235 0014 2146     		mov	r1, r4
 236 0016 FFF7FEFF 		bl	ortho_to_perspective
 237              	.LVL20:
  84:.\main.c      **** }
 238              		.loc 1 84 0
 239 001a 0122     		movs	r2, #1
 240 001c 054B     		ldr	r3, .L20+16
 241 001e 1A70     		strb	r2, [r3]
 242 0020 10BD     		pop	{r4, pc}
 243              	.L21:
 244 0022 00BF     		.align	2
 245              	.L20:
 246 0024 00000000 		.word	new_points
 247 0028 00000000 		.word	n_sprites
 248 002c 00000000 		.word	sprites
 249 0030 00000000 		.word	new_n_points
 250 0034 00000000 		.word	new_flag
 251              		.cfi_endproc
 252              	.LFE66:
 253              		.size	update_points, .-update_points
 254              		.section	.text.FPS_isr,"ax",%progbits
 255              		.align	2
 256              		.global	FPS_isr
 257              		.thumb
 258              		.thumb_func
 259              		.type	FPS_isr, %function
 260              	FPS_isr:
 261              	.LFB67:
  90:.\main.c      ****     update_points();
 262              		.loc 1 90 0
 263              		.cfi_startproc
 264              		@ args = 0, pretend = 0, frame = 0
 265              		@ frame_needed = 0, uses_anonymous_args = 0
 266 0000 08B5     		push	{r3, lr}
 267              		.cfi_def_cfa_offset 8
 268              		.cfi_offset 3, -8
 269              		.cfi_offset 14, -4
  91:.\main.c      **** }
 270              		.loc 1 91 0
 271 0002 FFF7FEFF 		bl	update_points
 272              	.LVL21:
 273 0006 08BD     		pop	{r3, pc}
 274              		.cfi_endproc
 275              	.LFE67:
 276              		.size	FPS_isr, .-FPS_isr
ARM GAS  C:\Users\User\AppData\Local\Temp\ccQxEyAR.s 			page 8


 277              		.section	.text.main,"ax",%progbits
 278              		.align	2
 279              		.global	main
 280              		.thumb
 281              		.thumb_func
 282              		.type	main, %function
 283              	main:
 284              	.LFB69:
  97:.\main.c      **** }
  98:.\main.c      **** 
  99:.\main.c      **** int main() {
 285              		.loc 1 99 0
 286              		.cfi_startproc
 287              		@ args = 0, pretend = 0, frame = 0
 288              		@ frame_needed = 0, uses_anonymous_args = 0
 289 0000 08B5     		push	{r3, lr}
 290              		.cfi_def_cfa_offset 8
 291              		.cfi_offset 3, -8
 292              		.cfi_offset 14, -4
 100:.\main.c      ****     CyGlobalIntEnable; /* Enable global interrupts. */
 293              		.loc 1 100 0
 294              	@ 100 ".\main.c" 1
 295 0002 62B6     		CPSIE   i
 296              	@ 0 "" 2
 101:.\main.c      **** 
 102:.\main.c      ****     hw_init();
 297              		.loc 1 102 0
 298              		.thumb
 299 0004 FFF7FEFF 		bl	hw_init
 300              	.LVL22:
 103:.\main.c      ****     game_init();
 301              		.loc 1 103 0
 302 0008 FFF7FEFF 		bl	game_init
 303              	.LVL23:
 304              	.L28:
 104:.\main.c      **** 
 105:.\main.c      ****     for (;;) {
 106:.\main.c      ****         // "Latch" the new points
 107:.\main.c      ****         if (new_flag == 1) {
 305              		.loc 1 107 0
 306 000c 0C4B     		ldr	r3, .L30
 307 000e 1B78     		ldrb	r3, [r3]	@ zero_extendqisi2
 308 0010 012B     		cmp	r3, #1
 309 0012 11D1     		bne	.L25
 108:.\main.c      ****             n_points = new_n_points;
 310              		.loc 1 108 0
 311 0014 0B4B     		ldr	r3, .L30+4
 312 0016 1868     		ldr	r0, [r3]
 313 0018 0B4B     		ldr	r3, .L30+8
 314 001a 1860     		str	r0, [r3]
 315              	.LVL24:
 316              	.LBB3:
 109:.\main.c      ****             for (int i = 0; i < n_points; i++)
 317              		.loc 1 109 0
 318 001c 0023     		movs	r3, #0
 319 001e 06E0     		b	.L26
 320              	.LVL25:
ARM GAS  C:\Users\User\AppData\Local\Temp\ccQxEyAR.s 			page 9


 321              	.L27:
 110:.\main.c      ****                 points[i] = new_points[i];
 322              		.loc 1 110 0 discriminator 3
 323 0020 0A4A     		ldr	r2, .L30+12
 324 0022 32F81310 		ldrh	r1, [r2, r3, lsl #1]	@ unaligned
 325 0026 0A4A     		ldr	r2, .L30+16
 326 0028 22F81310 		strh	r1, [r2, r3, lsl #1]	@ unaligned
 109:.\main.c      ****             for (int i = 0; i < n_points; i++)
 327              		.loc 1 109 0 discriminator 3
 328 002c 0133     		adds	r3, r3, #1
 329              	.LVL26:
 330              	.L26:
 109:.\main.c      ****             for (int i = 0; i < n_points; i++)
 331              		.loc 1 109 0 is_stmt 0 discriminator 1
 332 002e 8342     		cmp	r3, r0
 333 0030 F6DB     		blt	.L27
 334              	.LBE3:
 111:.\main.c      ****             new_flag = 0;
 335              		.loc 1 111 0 is_stmt 1
 336 0032 0022     		movs	r2, #0
 337 0034 024B     		ldr	r3, .L30
 338              	.LVL27:
 339 0036 1A70     		strb	r2, [r3]
 340              	.L25:
 112:.\main.c      ****         }
 113:.\main.c      **** 
 114:.\main.c      ****         draw_points();
 341              		.loc 1 114 0
 342 0038 FFF7FEFF 		bl	draw_points
 343              	.LVL28:
 115:.\main.c      ****     }
 344              		.loc 1 115 0
 345 003c E6E7     		b	.L28
 346              	.L31:
 347 003e 00BF     		.align	2
 348              	.L30:
 349 0040 00000000 		.word	new_flag
 350 0044 00000000 		.word	new_n_points
 351 0048 00000000 		.word	n_points
 352 004c 00000000 		.word	new_points
 353 0050 00000000 		.word	points
 354              		.cfi_endproc
 355              	.LFE69:
 356              		.size	main, .-main
 357              		.comm	new_points,2048,4
 358              		.comm	new_n_points,4,4
 359              		.comm	new_flag,1,1
 360              		.comm	points,2048,4
 361              		.comm	n_points,4,4
 362              		.comm	sprites,384,4
 363              		.comm	n_sprites,4,4
 364              		.global	PI
 365              		.global	DAC_SETTLE_TIME_US
 366              		.section	.rodata
 367              		.align	2
 368              		.type	PI, %object
 369              		.size	PI, 4
ARM GAS  C:\Users\User\AppData\Local\Temp\ccQxEyAR.s 			page 10


 370              	PI:
 371 0000 DB0F4940 		.word	1078530011
 372              		.type	DAC_SETTLE_TIME_US, %object
 373              		.size	DAC_SETTLE_TIME_US, 2
 374              	DAC_SETTLE_TIME_US:
 375 0004 0300     		.short	3
 376 0006 0000     		.text
 377              	.Letext0:
 378              		.file 2 "c:\\program files (x86)\\cypress\\psoc creator\\3.3\\psoc creator\\import\\gnu\\arm\\4.9.
 379              		.file 3 "c:\\program files (x86)\\cypress\\psoc creator\\3.3\\psoc creator\\import\\gnu\\arm\\4.9.
 380              		.file 4 "Generated_Source\\PSoC5/cytypes.h"
 381              		.file 5 "./sprites.h"
 382              		.file 6 "Generated_Source\\PSoC5/core_cm3.h"
 383              		.file 7 "Generated_Source\\PSoC5/x_DAC.h"
 384              		.file 8 "Generated_Source\\PSoC5/y_DAC.h"
 385              		.file 9 "Generated_Source\\PSoC5/LCD.h"
 386              		.file 10 "Generated_Source\\PSoC5/BLE_UART.h"
 387              		.file 11 "Generated_Source\\PSoC5/FPS_isr.h"
 388              		.file 12 "Generated_Source\\PSoC5/BLE_Rx_isr.h"
 389              		.file 13 "Generated_Source\\PSoC5/CyLib.h"