ARM GAS  C:\Users\User\AppData\Local\Temp\cceHndk6.s 			page 1


   1              		.syntax unified
   2              		.cpu cortex-m3
   3              		.fpu softvfp
   4              		.eabi_attribute 20, 1
   5              		.eabi_attribute 21, 1
   6              		.eabi_attribute 23, 3
   7              		.eabi_attribute 24, 1
   8              		.eabi_attribute 25, 1
   9              		.eabi_attribute 26, 1
  10              		.eabi_attribute 30, 1
  11              		.eabi_attribute 34, 1
  12              		.eabi_attribute 18, 4
  13              		.thumb
  14              		.file	"sprites.c"
  15              		.text
  16              	.Ltext0:
  17              		.cfi_sections	.debug_frame
  18              		.section	.text.make_fretboard,"ax",%progbits
  19              		.align	2
  20              		.global	make_fretboard
  21              		.thumb
  22              		.thumb_func
  23              		.type	make_fretboard, %function
  24              	make_fretboard:
  25              	.LFB0:
  26              		.file 1 ".\\sprites.c"
   1:.\sprites.c   **** /* ========================================
   2:.\sprites.c   ****  *
   3:.\sprites.c   ****  * Copyright Andi Qu, 2024
   4:.\sprites.c   ****  * All Rights Reserved
   5:.\sprites.c   ****  * UNPUBLISHED, LICENSED SOFTWARE.
   6:.\sprites.c   ****  *
   7:.\sprites.c   ****  * CONFIDENTIAL AND PROPRIETARY INFORMATION
   8:.\sprites.c   ****  * WHICH IS THE PROPERTY OF ANDI QU.
   9:.\sprites.c   ****  *
  10:.\sprites.c   ****  * ========================================
  11:.\sprites.c   ****  */
  12:.\sprites.c   **** 
  13:.\sprites.c   **** #include <sprites.h>
  14:.\sprites.c   **** 
  15:.\sprites.c   **** struct Point sprite_vertices[1<<10];
  16:.\sprites.c   **** 
  17:.\sprites.c   **** /*
  18:.\sprites.c   ****  * Creates the boundaries of the fretboard
  19:.\sprites.c   ****  */
  20:.\sprites.c   **** struct Sprite make_fretboard(int offset) {
  27              		.loc 1 20 0
  28              		.cfi_startproc
  29              		@ args = 0, pretend = 0, frame = 0
  30              		@ frame_needed = 0, uses_anonymous_args = 0
  31              		@ link register save eliminated.
  32              	.LVL0:
  33 0000 F0B4     		push	{r4, r5, r6, r7}
  34              		.cfi_def_cfa_offset 16
  35              		.cfi_offset 4, -16
  36              		.cfi_offset 5, -12
  37              		.cfi_offset 6, -8
ARM GAS  C:\Users\User\AppData\Local\Temp\cceHndk6.s 			page 2


  38              		.cfi_offset 7, -4
  39              	.LVL1:
  40              	.LBB2:
  21:.\sprites.c   ****     const int resolution = 16;
  22:.\sprites.c   ****     int n = 0;
  23:.\sprites.c   **** 
  24:.\sprites.c   ****     // Bottom edge
  25:.\sprites.c   ****     for (int i = 0; i < resolution; i++) {
  41              		.loc 1 25 0
  42 0002 0022     		movs	r2, #0
  43              	.LBE2:
  22:.\sprites.c   **** 
  44              		.loc 1 22 0
  45 0004 1346     		mov	r3, r2
  46              	.LBB3:
  47              		.loc 1 25 0
  48 0006 12E0     		b	.L2
  49              	.LVL2:
  50              	.L4:
  26:.\sprites.c   ****         sprite_vertices[offset + n++] = (struct Point) {
  51              		.loc 1 26 0 discriminator 3
  52 0008 5E1C     		adds	r6, r3, #1
  53              	.LVL3:
  54 000a 0B44     		add	r3, r3, r1
  27:.\sprites.c   ****             .x = UINT8_MAX * i / resolution,
  55              		.loc 1 27 0 discriminator 3
  56 000c C2EB0225 		rsb	r5, r2, r2, lsl #8
  57 0010 2C46     		mov	r4, r5
  58 0012 002D     		cmp	r5, #0
  59 0014 01DA     		bge	.L3
  60 0016 05F10F04 		add	r4, r5, #15
  61              	.L3:
  62 001a 2511     		asrs	r5, r4, #4
  26:.\sprites.c   ****         sprite_vertices[offset + n++] = (struct Point) {
  63              		.loc 1 26 0 discriminator 3
  64 001c 314C     		ldr	r4, .L15
  65 001e 04F81350 		strb	r5, [r4, r3, lsl #1]
  66 0022 04EB4303 		add	r3, r4, r3, lsl #1
  67 0026 0024     		movs	r4, #0
  68 0028 5C70     		strb	r4, [r3, #1]
  25:.\sprites.c   ****         sprite_vertices[offset + n++] = (struct Point) {
  69              		.loc 1 25 0 discriminator 3
  70 002a 0132     		adds	r2, r2, #1
  71              	.LVL4:
  26:.\sprites.c   ****         sprite_vertices[offset + n++] = (struct Point) {
  72              		.loc 1 26 0 discriminator 3
  73 002c 3346     		mov	r3, r6
  74              	.LVL5:
  75              	.L2:
  25:.\sprites.c   ****         sprite_vertices[offset + n++] = (struct Point) {
  76              		.loc 1 25 0 discriminator 1
  77 002e 0F2A     		cmp	r2, #15
  78 0030 EADD     		ble	.L4
  79 0032 0022     		movs	r2, #0
  80              	.LVL6:
  81 0034 12E0     		b	.L5
  82              	.LVL7:
ARM GAS  C:\Users\User\AppData\Local\Temp\cceHndk6.s 			page 3


  83              	.L7:
  84              	.LBE3:
  85              	.LBB4:
  28:.\sprites.c   ****             .y = 0
  29:.\sprites.c   ****         };
  30:.\sprites.c   ****     }
  31:.\sprites.c   ****     // Right edge
  32:.\sprites.c   ****     for (int i = 0; i < resolution; i++) {
  33:.\sprites.c   ****         sprite_vertices[offset + n++] = (struct Point) {
  86              		.loc 1 33 0 discriminator 3
  87 0036 5E1C     		adds	r6, r3, #1
  88              	.LVL8:
  89 0038 0B44     		add	r3, r3, r1
  34:.\sprites.c   ****             .x = UINT8_MAX,
  35:.\sprites.c   ****             .y = UINT8_MAX * i / resolution
  90              		.loc 1 35 0 discriminator 3
  91 003a C2EB0225 		rsb	r5, r2, r2, lsl #8
  92 003e 2C46     		mov	r4, r5
  93 0040 002D     		cmp	r5, #0
  94 0042 01DA     		bge	.L6
  95 0044 05F10F04 		add	r4, r5, #15
  96              	.L6:
  97 0048 2511     		asrs	r5, r4, #4
  33:.\sprites.c   ****             .x = UINT8_MAX,
  98              		.loc 1 33 0 discriminator 3
  99 004a 264C     		ldr	r4, .L15
 100 004c FF27     		movs	r7, #255
 101 004e 04F81370 		strb	r7, [r4, r3, lsl #1]
 102 0052 04EB4303 		add	r3, r4, r3, lsl #1
 103 0056 5D70     		strb	r5, [r3, #1]
  32:.\sprites.c   ****         sprite_vertices[offset + n++] = (struct Point) {
 104              		.loc 1 32 0 discriminator 3
 105 0058 0132     		adds	r2, r2, #1
 106              	.LVL9:
  33:.\sprites.c   ****             .x = UINT8_MAX,
 107              		.loc 1 33 0 discriminator 3
 108 005a 3346     		mov	r3, r6
 109              	.LVL10:
 110              	.L5:
  32:.\sprites.c   ****         sprite_vertices[offset + n++] = (struct Point) {
 111              		.loc 1 32 0 discriminator 1
 112 005c 0F2A     		cmp	r2, #15
 113 005e EADD     		ble	.L7
 114 0060 0022     		movs	r2, #0
 115              	.LVL11:
 116 0062 13E0     		b	.L8
 117              	.LVL12:
 118              	.L10:
 119              	.LBE4:
 120              	.LBB5:
  36:.\sprites.c   ****         };
  37:.\sprites.c   ****     }
  38:.\sprites.c   ****     // Top edge
  39:.\sprites.c   ****     for (int i = 0; i < resolution; i++) {
  40:.\sprites.c   ****         sprite_vertices[offset + n++] = (struct Point) {
 121              		.loc 1 40 0 discriminator 3
 122 0064 5E1C     		adds	r6, r3, #1
ARM GAS  C:\Users\User\AppData\Local\Temp\cceHndk6.s 			page 4


 123              	.LVL13:
 124 0066 0B44     		add	r3, r3, r1
  41:.\sprites.c   ****             .x = UINT8_MAX - UINT8_MAX * i / resolution,
 125              		.loc 1 41 0 discriminator 3
 126 0068 C2EB0224 		rsb	r4, r2, r2, lsl #8
 127 006c 2546     		mov	r5, r4
 128 006e 002C     		cmp	r4, #0
 129 0070 01DA     		bge	.L9
 130 0072 04F10F05 		add	r5, r4, #15
 131              	.L9:
  40:.\sprites.c   ****             .x = UINT8_MAX - UINT8_MAX * i / resolution,
 132              		.loc 1 40 0 discriminator 3
 133 0076 1B4C     		ldr	r4, .L15
 134 0078 6FEA2515 		mvn	r5, r5, asr #4
 135 007c 04F81350 		strb	r5, [r4, r3, lsl #1]
 136 0080 04EB4303 		add	r3, r4, r3, lsl #1
 137 0084 FF24     		movs	r4, #255
 138 0086 5C70     		strb	r4, [r3, #1]
  39:.\sprites.c   ****         sprite_vertices[offset + n++] = (struct Point) {
 139              		.loc 1 39 0 discriminator 3
 140 0088 0132     		adds	r2, r2, #1
 141              	.LVL14:
  40:.\sprites.c   ****             .x = UINT8_MAX - UINT8_MAX * i / resolution,
 142              		.loc 1 40 0 discriminator 3
 143 008a 3346     		mov	r3, r6
 144              	.LVL15:
 145              	.L8:
  39:.\sprites.c   ****         sprite_vertices[offset + n++] = (struct Point) {
 146              		.loc 1 39 0 discriminator 1
 147 008c 0F2A     		cmp	r2, #15
 148 008e E9DD     		ble	.L10
 149 0090 0022     		movs	r2, #0
 150              	.LVL16:
 151 0092 13E0     		b	.L11
 152              	.LVL17:
 153              	.L13:
 154              	.LBE5:
 155              	.LBB6:
  42:.\sprites.c   ****             .y = UINT8_MAX
  43:.\sprites.c   ****         };
  44:.\sprites.c   ****     }
  45:.\sprites.c   ****     // Left edge
  46:.\sprites.c   ****     for (int i = 0; i < resolution; i++) {
  47:.\sprites.c   ****         sprite_vertices[offset + n++] = (struct Point) {
 156              		.loc 1 47 0 discriminator 3
 157 0094 5E1C     		adds	r6, r3, #1
 158              	.LVL18:
 159 0096 0B44     		add	r3, r3, r1
  48:.\sprites.c   ****             .x = 0,
  49:.\sprites.c   ****             .y = UINT8_MAX - UINT8_MAX * i / resolution
 160              		.loc 1 49 0 discriminator 3
 161 0098 C2EB0224 		rsb	r4, r2, r2, lsl #8
 162 009c 2546     		mov	r5, r4
 163 009e 002C     		cmp	r4, #0
 164 00a0 01DA     		bge	.L12
 165 00a2 04F10F05 		add	r5, r4, #15
 166              	.L12:
ARM GAS  C:\Users\User\AppData\Local\Temp\cceHndk6.s 			page 5


  47:.\sprites.c   ****             .x = 0,
 167              		.loc 1 47 0 discriminator 3
 168 00a6 0F4C     		ldr	r4, .L15
 169 00a8 0027     		movs	r7, #0
 170 00aa 04F81370 		strb	r7, [r4, r3, lsl #1]
 171 00ae 04EB4303 		add	r3, r4, r3, lsl #1
 172 00b2 6FEA2515 		mvn	r5, r5, asr #4
 173 00b6 5D70     		strb	r5, [r3, #1]
  46:.\sprites.c   ****         sprite_vertices[offset + n++] = (struct Point) {
 174              		.loc 1 46 0 discriminator 3
 175 00b8 0132     		adds	r2, r2, #1
 176              	.LVL19:
  47:.\sprites.c   ****             .x = 0,
 177              		.loc 1 47 0 discriminator 3
 178 00ba 3346     		mov	r3, r6
 179              	.LVL20:
 180              	.L11:
  46:.\sprites.c   ****         sprite_vertices[offset + n++] = (struct Point) {
 181              		.loc 1 46 0 discriminator 1
 182 00bc 0F2A     		cmp	r2, #15
 183 00be E9DD     		ble	.L13
 184              	.LBE6:
  50:.\sprites.c   ****         };
  51:.\sprites.c   ****     }
  52:.\sprites.c   ****     // Complete the polygon
  53:.\sprites.c   ****     sprite_vertices[offset + n++] = (struct Point) { .x = 0, .y = 0 };
 185              		.loc 1 53 0
 186 00c0 5D1C     		adds	r5, r3, #1
 187              	.LVL21:
 188 00c2 0B44     		add	r3, r3, r1
 189 00c4 074A     		ldr	r2, .L15
 190              	.LVL22:
 191 00c6 0024     		movs	r4, #0
 192 00c8 02F81340 		strb	r4, [r2, r3, lsl #1]
 193 00cc 02EB4303 		add	r3, r2, r3, lsl #1
 194 00d0 5C70     		strb	r4, [r3, #1]
  54:.\sprites.c   **** 
  55:.\sprites.c   ****     return (struct Sprite) {
  56:.\sprites.c   ****         .n = n, .x = 0, .y = 0,
  57:.\sprites.c   ****         .vertices = sprite_vertices + offset
 195              		.loc 1 57 0
 196 00d2 02EB4101 		add	r1, r2, r1, lsl #1
 197              	.LVL23:
  55:.\sprites.c   ****         .n = n, .x = 0, .y = 0,
 198              		.loc 1 55 0
 199 00d6 0560     		str	r5, [r0]
 200 00d8 4460     		str	r4, [r0, #4]
 201 00da 8460     		str	r4, [r0, #8]
 202 00dc C160     		str	r1, [r0, #12]
  58:.\sprites.c   ****     };
  59:.\sprites.c   **** }
 203              		.loc 1 59 0
 204 00de F0BC     		pop	{r4, r5, r6, r7}
 205              		.cfi_restore 7
 206              		.cfi_restore 6
 207              		.cfi_restore 5
 208              		.cfi_restore 4
ARM GAS  C:\Users\User\AppData\Local\Temp\cceHndk6.s 			page 6


 209              		.cfi_def_cfa_offset 0
 210              	.LVL24:
 211 00e0 7047     		bx	lr
 212              	.L16:
 213 00e2 00BF     		.align	2
 214              	.L15:
 215 00e4 00000000 		.word	sprite_vertices
 216              		.cfi_endproc
 217              	.LFE0:
 218              		.size	make_fretboard, .-make_fretboard
 219              		.section	.text.make_barline,"ax",%progbits
 220              		.align	2
 221              		.global	make_barline
 222              		.thumb
 223              		.thumb_func
 224              		.type	make_barline, %function
 225              	make_barline:
 226              	.LFB1:
  60:.\sprites.c   **** 
  61:.\sprites.c   **** /*
  62:.\sprites.c   ****  * Creates a barline at the specified y offset
  63:.\sprites.c   ****  */
  64:.\sprites.c   **** struct Sprite make_barline(int offset, int y) {
 227              		.loc 1 64 0
 228              		.cfi_startproc
 229              		@ args = 0, pretend = 0, frame = 0
 230              		@ frame_needed = 0, uses_anonymous_args = 0
 231              		@ link register save eliminated.
 232              	.LVL25:
 233 0000 F0B4     		push	{r4, r5, r6, r7}
 234              		.cfi_def_cfa_offset 16
 235              		.cfi_offset 4, -16
 236              		.cfi_offset 5, -12
 237              		.cfi_offset 6, -8
 238              		.cfi_offset 7, -4
 239              	.LVL26:
 240              	.LBB7:
  65:.\sprites.c   ****     const int resolution = 8;
  66:.\sprites.c   ****     int n = 0;
  67:.\sprites.c   ****     
  68:.\sprites.c   ****     for (int i = 0; i < resolution; i++) {
 241              		.loc 1 68 0
 242 0002 0024     		movs	r4, #0
 243              	.LBE7:
  66:.\sprites.c   ****     
 244              		.loc 1 66 0
 245 0004 2346     		mov	r3, r4
 246              	.LBB8:
 247              		.loc 1 68 0
 248 0006 11E0     		b	.L18
 249              	.LVL27:
 250              	.L20:
  69:.\sprites.c   ****         sprite_vertices[offset + n++] = (struct Point) {
 251              		.loc 1 69 0 discriminator 3
 252 0008 5F1C     		adds	r7, r3, #1
 253              	.LVL28:
 254 000a 0B44     		add	r3, r3, r1
ARM GAS  C:\Users\User\AppData\Local\Temp\cceHndk6.s 			page 7


  70:.\sprites.c   ****             .x = UINT8_MAX * i / resolution,
 255              		.loc 1 70 0 discriminator 3
 256 000c C4EB0426 		rsb	r6, r4, r4, lsl #8
 257 0010 3546     		mov	r5, r6
 258 0012 002E     		cmp	r6, #0
 259 0014 00DA     		bge	.L19
 260 0016 F51D     		adds	r5, r6, #7
 261              	.L19:
 262 0018 EE10     		asrs	r6, r5, #3
  69:.\sprites.c   ****         sprite_vertices[offset + n++] = (struct Point) {
 263              		.loc 1 69 0 discriminator 3
 264 001a 194D     		ldr	r5, .L25
 265 001c 05F81360 		strb	r6, [r5, r3, lsl #1]
 266 0020 05EB4303 		add	r3, r5, r3, lsl #1
 267 0024 0025     		movs	r5, #0
 268 0026 5D70     		strb	r5, [r3, #1]
  68:.\sprites.c   ****         sprite_vertices[offset + n++] = (struct Point) {
 269              		.loc 1 68 0 discriminator 3
 270 0028 0134     		adds	r4, r4, #1
 271              	.LVL29:
  69:.\sprites.c   ****         sprite_vertices[offset + n++] = (struct Point) {
 272              		.loc 1 69 0 discriminator 3
 273 002a 3B46     		mov	r3, r7
 274              	.LVL30:
 275              	.L18:
  68:.\sprites.c   ****         sprite_vertices[offset + n++] = (struct Point) {
 276              		.loc 1 68 0 discriminator 1
 277 002c 072C     		cmp	r4, #7
 278 002e EBDD     		ble	.L20
 279 0030 0024     		movs	r4, #0
 280              	.LVL31:
 281 0032 12E0     		b	.L21
 282              	.LVL32:
 283              	.L23:
 284              	.LBE8:
 285              	.LBB9:
  71:.\sprites.c   ****             .y = 0
  72:.\sprites.c   ****         };
  73:.\sprites.c   ****     }
  74:.\sprites.c   ****     for (int i = 0; i < resolution; i++) {
  75:.\sprites.c   ****         sprite_vertices[offset + n++] = (struct Point) {
 286              		.loc 1 75 0 discriminator 3
 287 0034 5F1C     		adds	r7, r3, #1
 288              	.LVL33:
 289 0036 0B44     		add	r3, r3, r1
  76:.\sprites.c   ****             .x = UINT8_MAX - UINT8_MAX * i / resolution,
 290              		.loc 1 76 0 discriminator 3
 291 0038 C4EB0425 		rsb	r5, r4, r4, lsl #8
 292 003c 2E46     		mov	r6, r5
 293 003e 002D     		cmp	r5, #0
 294 0040 00DA     		bge	.L22
 295 0042 EE1D     		adds	r6, r5, #7
 296              	.L22:
  75:.\sprites.c   ****             .x = UINT8_MAX - UINT8_MAX * i / resolution,
 297              		.loc 1 75 0 discriminator 3
 298 0044 0E4D     		ldr	r5, .L25
 299 0046 6FEAE606 		mvn	r6, r6, asr #3
ARM GAS  C:\Users\User\AppData\Local\Temp\cceHndk6.s 			page 8


 300 004a 05F81360 		strb	r6, [r5, r3, lsl #1]
 301 004e 05EB4303 		add	r3, r5, r3, lsl #1
 302 0052 0025     		movs	r5, #0
 303 0054 5D70     		strb	r5, [r3, #1]
  74:.\sprites.c   ****         sprite_vertices[offset + n++] = (struct Point) {
 304              		.loc 1 74 0 discriminator 3
 305 0056 0134     		adds	r4, r4, #1
 306              	.LVL34:
  75:.\sprites.c   ****             .x = UINT8_MAX - UINT8_MAX * i / resolution,
 307              		.loc 1 75 0 discriminator 3
 308 0058 3B46     		mov	r3, r7
 309              	.LVL35:
 310              	.L21:
  74:.\sprites.c   ****         sprite_vertices[offset + n++] = (struct Point) {
 311              		.loc 1 74 0 discriminator 1
 312 005a 072C     		cmp	r4, #7
 313 005c EADD     		ble	.L23
 314              	.LBE9:
  77:.\sprites.c   ****             .y = 0
  78:.\sprites.c   ****         };
  79:.\sprites.c   ****     }
  80:.\sprites.c   ****     sprite_vertices[offset + n++] = (struct Point) { .x = 0, .y = 0 };
 315              		.loc 1 80 0
 316 005e 5E1C     		adds	r6, r3, #1
 317              	.LVL36:
 318 0060 0B44     		add	r3, r3, r1
 319 0062 074C     		ldr	r4, .L25
 320              	.LVL37:
 321 0064 0025     		movs	r5, #0
 322 0066 04F81350 		strb	r5, [r4, r3, lsl #1]
 323 006a 04EB4303 		add	r3, r4, r3, lsl #1
 324 006e 5D70     		strb	r5, [r3, #1]
  81:.\sprites.c   ****     
  82:.\sprites.c   ****     return (struct Sprite) {
  83:.\sprites.c   ****         .n = n, .x = 0, .y = y,
  84:.\sprites.c   ****         .vertices = sprite_vertices + offset
 325              		.loc 1 84 0
 326 0070 04EB4101 		add	r1, r4, r1, lsl #1
 327              	.LVL38:
  82:.\sprites.c   ****         .n = n, .x = 0, .y = y,
 328              		.loc 1 82 0
 329 0074 0660     		str	r6, [r0]
 330 0076 4560     		str	r5, [r0, #4]
 331 0078 8260     		str	r2, [r0, #8]
 332 007a C160     		str	r1, [r0, #12]
  85:.\sprites.c   ****     };
  86:.\sprites.c   **** }
 333              		.loc 1 86 0
 334 007c F0BC     		pop	{r4, r5, r6, r7}
 335              		.cfi_restore 7
 336              		.cfi_restore 6
 337              		.cfi_restore 5
 338              		.cfi_restore 4
 339              		.cfi_def_cfa_offset 0
 340              	.LVL39:
 341 007e 7047     		bx	lr
 342              	.L26:
ARM GAS  C:\Users\User\AppData\Local\Temp\cceHndk6.s 			page 9


 343              		.align	2
 344              	.L25:
 345 0080 00000000 		.word	sprite_vertices
 346              		.cfi_endproc
 347              	.LFE1:
 348              		.size	make_barline, .-make_barline
 349              		.section	.text.sprites_to_polyline,"ax",%progbits
 350              		.align	2
 351              		.global	sprites_to_polyline
 352              		.thumb
 353              		.thumb_func
 354              		.type	sprites_to_polyline, %function
 355              	sprites_to_polyline:
 356              	.LFB2:
  87:.\sprites.c   **** 
  88:.\sprites.c   **** /*
  89:.\sprites.c   ****  * Converts a list of sprites into a polyline that the scope can render.
  90:.\sprites.c   ****  */
  91:.\sprites.c   **** int sprites_to_polyline(int n_sprites, struct Sprite *sprites, struct Point *points) {
 357              		.loc 1 91 0
 358              		.cfi_startproc
 359              		@ args = 0, pretend = 0, frame = 0
 360              		@ frame_needed = 0, uses_anonymous_args = 0
 361              	.LVL40:
 362 0000 2DE9F041 		push	{r4, r5, r6, r7, r8, lr}
 363              		.cfi_def_cfa_offset 24
 364              		.cfi_offset 4, -24
 365              		.cfi_offset 5, -20
 366              		.cfi_offset 6, -16
 367              		.cfi_offset 7, -12
 368              		.cfi_offset 8, -8
 369              		.cfi_offset 14, -4
 370 0004 8446     		mov	ip, r0
 371              	.LVL41:
 372              	.LBB10:
  92:.\sprites.c   ****     // For now, naively convert to points
  93:.\sprites.c   ****     int n_points = 0;
  94:.\sprites.c   ****     for (int i = 0; i < n_sprites; i++) {
 373              		.loc 1 94 0
 374 0006 4FF0000E 		mov	lr, #0
 375              	.LBE10:
  93:.\sprites.c   ****     for (int i = 0; i < n_sprites; i++) {
 376              		.loc 1 93 0
 377 000a 7046     		mov	r0, lr
 378              	.LVL42:
 379              	.LBB15:
 380              		.loc 1 94 0
 381 000c 2EE0     		b	.L28
 382              	.LVL43:
 383              	.L33:
 384              	.LBB11:
 385              	.LBB12:
  95:.\sprites.c   ****         // TODO: precompute whether to even show the sprite
  96:.\sprites.c   ****         for (int j = 0; j < sprites[i].n; j++) {
  97:.\sprites.c   ****             int x = sprites[i].vertices[j].x + sprites[i].x;
 386              		.loc 1 97 0
 387 000e F368     		ldr	r3, [r6, #12]
ARM GAS  C:\Users\User\AppData\Local\Temp\cceHndk6.s 			page 10


 388 0010 03EB4508 		add	r8, r3, r5, lsl #1
 389 0014 13F81540 		ldrb	r4, [r3, r5, lsl #1]	@ zero_extendqisi2
 390 0018 7768     		ldr	r7, [r6, #4]
 391              	.LVL44:
  98:.\sprites.c   ****             int y = sprites[i].vertices[j].y + sprites[i].y;
 392              		.loc 1 98 0
 393 001a 98F80180 		ldrb	r8, [r8, #1]	@ zero_extendqisi2
 394 001e B368     		ldr	r3, [r6, #8]
 395 0020 4344     		add	r3, r3, r8
 396              	.LVL45:
  99:.\sprites.c   ****             // Clip if overflow (i.e. out of bounds)
 100:.\sprites.c   ****             points[n_points++] = (struct Point) {
 397              		.loc 1 100 0
 398 0022 461C     		adds	r6, r0, #1
 399              	.LVL46:
 400 0024 4000     		lsls	r0, r0, #1
 401 0026 02EB0008 		add	r8, r2, r0
 101:.\sprites.c   ****                 .x = (uint8)(x < 0 ? 0 : x > UINT8_MAX ? UINT8_MAX : x),
 402              		.loc 1 101 0
 403 002a E419     		adds	r4, r4, r7
 404              	.LVL47:
 405 002c 05D4     		bmi	.L35
 406              		.loc 1 101 0 is_stmt 0 discriminator 1
 407 002e FF2C     		cmp	r4, #255
 408 0030 01DC     		bgt	.L36
 409              		.loc 1 101 0 discriminator 3
 410 0032 E4B2     		uxtb	r4, r4
 411              	.LVL48:
 412 0034 02E0     		b	.L29
 413              	.LVL49:
 414              	.L36:
 415              		.loc 1 101 0
 416 0036 FF24     		movs	r4, #255
 417              	.LVL50:
 418 0038 00E0     		b	.L29
 419              	.LVL51:
 420              	.L35:
 421 003a 0024     		movs	r4, #0
 422              	.LVL52:
 423              	.L29:
 102:.\sprites.c   ****                 .y = (uint8)(y < 0 ? 0 : y > UINT8_MAX ? UINT8_MAX : y)
 424              		.loc 1 102 0 is_stmt 1
 425 003c 002B     		cmp	r3, #0
 426 003e 05DB     		blt	.L37
 427              		.loc 1 102 0 is_stmt 0 discriminator 1
 428 0040 FF2B     		cmp	r3, #255
 429 0042 01DC     		bgt	.L38
 430              		.loc 1 102 0 discriminator 3
 431 0044 DBB2     		uxtb	r3, r3
 432              	.LVL53:
 433 0046 02E0     		b	.L31
 434              	.LVL54:
 435              	.L38:
 436              		.loc 1 102 0
 437 0048 FF23     		movs	r3, #255
 438              	.LVL55:
 439 004a 00E0     		b	.L31
ARM GAS  C:\Users\User\AppData\Local\Temp\cceHndk6.s 			page 11


 440              	.LVL56:
 441              	.L37:
 442 004c 0023     		movs	r3, #0
 443              	.LVL57:
 444              	.L31:
 100:.\sprites.c   ****                 .x = (uint8)(x < 0 ? 0 : x > UINT8_MAX ? UINT8_MAX : x),
 445              		.loc 1 100 0 is_stmt 1 discriminator 2
 446 004e 1454     		strb	r4, [r2, r0]
 447              	.LVL58:
 448 0050 88F80130 		strb	r3, [r8, #1]
 449              	.LBE12:
  96:.\sprites.c   ****             int x = sprites[i].vertices[j].x + sprites[i].x;
 450              		.loc 1 96 0 discriminator 2
 451 0054 0135     		adds	r5, r5, #1
 452              	.LVL59:
 453              	.LBB13:
 100:.\sprites.c   ****                 .x = (uint8)(x < 0 ? 0 : x > UINT8_MAX ? UINT8_MAX : x),
 454              		.loc 1 100 0 discriminator 2
 455 0056 3046     		mov	r0, r6
 456 0058 00E0     		b	.L34
 457              	.LVL60:
 458              	.L39:
 459              	.LBE13:
 460              	.LBE11:
 461 005a 0025     		movs	r5, #0
 462              	.L34:
 463              	.LVL61:
 464              	.LBB14:
  96:.\sprites.c   ****             int x = sprites[i].vertices[j].x + sprites[i].x;
 465              		.loc 1 96 0 discriminator 1
 466 005c 4FEA0E13 		lsl	r3, lr, #4
 467 0060 CE18     		adds	r6, r1, r3
 468 0062 CB58     		ldr	r3, [r1, r3]
 469 0064 AB42     		cmp	r3, r5
 470 0066 D2DC     		bgt	.L33
 471              	.LBE14:
  94:.\sprites.c   ****         // TODO: precompute whether to even show the sprite
 472              		.loc 1 94 0 discriminator 2
 473 0068 0EF1010E 		add	lr, lr, #1
 474              	.LVL62:
 475              	.L28:
  94:.\sprites.c   ****         // TODO: precompute whether to even show the sprite
 476              		.loc 1 94 0 is_stmt 0 discriminator 1
 477 006c E645     		cmp	lr, ip
 478 006e F4DB     		blt	.L39
 479              	.LBE15:
 103:.\sprites.c   ****             };
 104:.\sprites.c   ****         }
 105:.\sprites.c   ****     }
 106:.\sprites.c   ****     return n_points;
 107:.\sprites.c   **** }
 480              		.loc 1 107 0 is_stmt 1
 481 0070 BDE8F081 		pop	{r4, r5, r6, r7, r8, pc}
 482              		.cfi_endproc
 483              	.LFE2:
 484              		.size	sprites_to_polyline, .-sprites_to_polyline
 485              		.global	__aeabi_i2d
ARM GAS  C:\Users\User\AppData\Local\Temp\cceHndk6.s 			page 12


 486              		.global	__aeabi_dmul
 487              		.global	__aeabi_dadd
 488              		.global	__aeabi_d2f
 489              		.global	__aeabi_fdiv
 490              		.global	__aeabi_f2uiz
 491              		.section	.text.ortho_to_perspective,"ax",%progbits
 492              		.align	2
 493              		.global	ortho_to_perspective
 494              		.thumb
 495              		.thumb_func
 496              		.type	ortho_to_perspective, %function
 497              	ortho_to_perspective:
 498              	.LFB3:
 108:.\sprites.c   **** 
 109:.\sprites.c   **** /*
 110:.\sprites.c   ****  * Mutates a list of points from an orthographic view to a perspective view.
 111:.\sprites.c   ****  *
 112:.\sprites.c   ****  * Matrix coefficients calculated using OpenCV by taking the perspective transform
 113:.\sprites.c   ****  * [(0, 0), (0, 255), (255, 255), (255, 0)] -> [(0, 0), (100, 255), (155, 255), (255, 0)]
 114:.\sprites.c   ****  * which yields
 115:.\sprites.c   ****  * [1   1.81818182  0
 116:.\sprites.c   ****  *  0   4.63636364  0
 117:.\sprites.c   ****  *  0   0.01426025  1]
 118:.\sprites.c   ****  */
 119:.\sprites.c   **** void ortho_to_perspective(int n_points, struct Point *points) {
 499              		.loc 1 119 0
 500              		.cfi_startproc
 501              		@ args = 0, pretend = 0, frame = 8
 502              		@ frame_needed = 0, uses_anonymous_args = 0
 503              	.LVL63:
 504 0000 2DE9F04F 		push	{r4, r5, r6, r7, r8, r9, r10, fp, lr}
 505              		.cfi_def_cfa_offset 36
 506              		.cfi_offset 4, -36
 507              		.cfi_offset 5, -32
 508              		.cfi_offset 6, -28
 509              		.cfi_offset 7, -24
 510              		.cfi_offset 8, -20
 511              		.cfi_offset 9, -16
 512              		.cfi_offset 10, -12
 513              		.cfi_offset 11, -8
 514              		.cfi_offset 14, -4
 515 0004 83B0     		sub	sp, sp, #12
 516              		.cfi_def_cfa_offset 48
 517 0006 8246     		mov	r10, r0
 518 0008 0D46     		mov	r5, r1
 519              	.LVL64:
 520              	.LBB16:
 120:.\sprites.c   ****     for (int i = 0; i < n_points; i++) {
 521              		.loc 1 120 0
 522 000a 0024     		movs	r4, #0
 523 000c 43E0     		b	.L42
 524              	.LVL65:
 525              	.L43:
 526              	.LBB17:
 121:.\sprites.c   ****         float scaled_x = points[i].x + 1.81818182 * points[i].y;
 527              		.loc 1 121 0 discriminator 3
 528 000e 05EB4408 		add	r8, r5, r4, lsl #1
ARM GAS  C:\Users\User\AppData\Local\Temp\cceHndk6.s 			page 13


 529 0012 15F81490 		ldrb	r9, [r5, r4, lsl #1]	@ zero_extendqisi2
 530 0016 98F80100 		ldrb	r0, [r8, #1]	@ zero_extendqisi2
 531 001a FFF7FEFF 		bl	__aeabi_i2d
 532              	.LVL66:
 533 001e 0646     		mov	r6, r0
 534 0020 0F46     		mov	r7, r1
 535 0022 1FA3     		adr	r3, .L45
 536 0024 D3E90023 		ldrd	r2, [r3]
 537 0028 FFF7FEFF 		bl	__aeabi_dmul
 538              	.LVL67:
 539 002c CDE90001 		strd	r0, [sp]
 540 0030 4846     		mov	r0, r9
 541 0032 FFF7FEFF 		bl	__aeabi_i2d
 542              	.LVL68:
 543 0036 DDE90023 		ldrd	r2, [sp]
 544 003a FFF7FEFF 		bl	__aeabi_dadd
 545              	.LVL69:
 546 003e FFF7FEFF 		bl	__aeabi_d2f
 547              	.LVL70:
 548 0042 8346     		mov	fp, r0
 549              	.LVL71:
 122:.\sprites.c   ****         float scaled_y = 4.63636364 * points[i].y;
 550              		.loc 1 122 0 discriminator 3
 551 0044 3046     		mov	r0, r6
 552              	.LVL72:
 553 0046 3946     		mov	r1, r7
 554 0048 17A3     		adr	r3, .L45+8
 555 004a D3E90023 		ldrd	r2, [r3]
 556 004e FFF7FEFF 		bl	__aeabi_dmul
 557              	.LVL73:
 558 0052 FFF7FEFF 		bl	__aeabi_d2f
 559              	.LVL74:
 560 0056 8146     		mov	r9, r0
 561              	.LVL75:
 123:.\sprites.c   ****         float scaling = 1 + 0.01426025 * points[i].y;
 562              		.loc 1 123 0 discriminator 3
 563 0058 3046     		mov	r0, r6
 564              	.LVL76:
 565 005a 3946     		mov	r1, r7
 566 005c 14A3     		adr	r3, .L45+16
 567 005e D3E90023 		ldrd	r2, [r3]
 568 0062 FFF7FEFF 		bl	__aeabi_dmul
 569              	.LVL77:
 570 0066 0022     		movs	r2, #0
 571 0068 134B     		ldr	r3, .L45+24
 572 006a FFF7FEFF 		bl	__aeabi_dadd
 573              	.LVL78:
 574 006e FFF7FEFF 		bl	__aeabi_d2f
 575              	.LVL79:
 576 0072 0646     		mov	r6, r0
 577              	.LVL80:
 124:.\sprites.c   ****         points[i].x = (uint8)(scaled_x / scaling);
 578              		.loc 1 124 0 discriminator 3
 579 0074 5846     		mov	r0, fp
 580              	.LVL81:
 581 0076 3146     		mov	r1, r6
 582 0078 FFF7FEFF 		bl	__aeabi_fdiv
ARM GAS  C:\Users\User\AppData\Local\Temp\cceHndk6.s 			page 14


 583              	.LVL82:
 584 007c FFF7FEFF 		bl	__aeabi_f2uiz
 585              	.LVL83:
 586 0080 05F81400 		strb	r0, [r5, r4, lsl #1]
 125:.\sprites.c   ****         points[i].y = (uint8)(scaled_y / scaling);
 587              		.loc 1 125 0 discriminator 3
 588 0084 4846     		mov	r0, r9
 589 0086 3146     		mov	r1, r6
 590 0088 FFF7FEFF 		bl	__aeabi_fdiv
 591              	.LVL84:
 592 008c FFF7FEFF 		bl	__aeabi_f2uiz
 593              	.LVL85:
 594 0090 88F80100 		strb	r0, [r8, #1]
 595              	.LBE17:
 120:.\sprites.c   ****         float scaled_x = points[i].x + 1.81818182 * points[i].y;
 596              		.loc 1 120 0 discriminator 3
 597 0094 0134     		adds	r4, r4, #1
 598              	.LVL86:
 599              	.L42:
 120:.\sprites.c   ****         float scaled_x = points[i].x + 1.81818182 * points[i].y;
 600              		.loc 1 120 0 is_stmt 0 discriminator 1
 601 0096 5445     		cmp	r4, r10
 602 0098 B9DB     		blt	.L43
 603              	.LBE16:
 126:.\sprites.c   ****     }
 127:.\sprites.c   **** }
 604              		.loc 1 127 0 is_stmt 1
 605 009a 03B0     		add	sp, sp, #12
 606              		.cfi_def_cfa_offset 36
 607              		@ sp needed
 608 009c BDE8F08F 		pop	{r4, r5, r6, r7, r8, r9, r10, fp, pc}
 609              	.LVL87:
 610              	.L46:
 611              		.align	3
 612              	.L45:
 613 00a0 E24EF1D1 		.word	-772714782
 614 00a4 4517FD3F 		.word	1073551173
 615 00a8 71A7F8E8 		.word	-386357391
 616 00ac A28B1240 		.word	1074957218
 617 00b0 0FF10F5B 		.word	1527771407
 618 00b4 7A348D3F 		.word	1066218618
 619 00b8 0000F03F 		.word	1072693248
 620              		.cfi_endproc
 621              	.LFE3:
 622              		.size	ortho_to_perspective, .-ortho_to_perspective
 623              		.comm	sprite_vertices,2048,4
 624 00bc AFF30080 		.text
 625              	.Letext0:
 626              		.file 2 "./sprites.h"
 627              		.file 3 "Generated_Source\\PSoC5/cytypes.h"