ARM GAS  C:\Users\User\AppData\Local\Temp\ccKt0dxG.s 			page 1


   1              		.syntax unified
   2              		.cpu cortex-m3
   3              		.fpu softvfp
   4              		.eabi_attribute 20, 1
   5              		.eabi_attribute 21, 1
   6              		.eabi_attribute 23, 3
   7              		.eabi_attribute 24, 1
   8              		.eabi_attribute 25, 1
   9              		.eabi_attribute 26, 1
  10              		.eabi_attribute 30, 1
  11              		.eabi_attribute 34, 1
  12              		.eabi_attribute 18, 4
  13              		.thumb
  14              		.file	"sprite_utils.c"
  15              		.text
  16              	.Ltext0:
  17              		.cfi_sections	.debug_frame
  18              		.section	.text.make_fretboard,"ax",%progbits
  19              		.align	2
  20              		.global	make_fretboard
  21              		.thumb
  22              		.thumb_func
  23              		.type	make_fretboard, %function
  24              	make_fretboard:
  25              	.LFB0:
  26              		.file 1 ".\\sprite_utils.c"
   1:.\sprite_utils.c **** /* ========================================
   2:.\sprite_utils.c ****  *
   3:.\sprite_utils.c ****  * Copyright Andi Qu, 2024
   4:.\sprite_utils.c ****  * All Rights Reserved
   5:.\sprite_utils.c ****  * UNPUBLISHED, LICENSED SOFTWARE.
   6:.\sprite_utils.c ****  *
   7:.\sprite_utils.c ****  * CONFIDENTIAL AND PROPRIETARY INFORMATION
   8:.\sprite_utils.c ****  * WHICH IS THE PROPERTY OF ANDI QU.
   9:.\sprite_utils.c ****  *
  10:.\sprite_utils.c ****  * ========================================
  11:.\sprite_utils.c ****  */
  12:.\sprite_utils.c **** 
  13:.\sprite_utils.c **** #include <sprite_utils.h>
  14:.\sprite_utils.c **** #include <stdlib.h>
  15:.\sprite_utils.c **** 
  16:.\sprite_utils.c **** /*
  17:.\sprite_utils.c ****  * Creates a set of points to denote the boundaries of the fretboard
  18:.\sprite_utils.c ****  */
  19:.\sprite_utils.c **** struct Sprite* make_fretboard() {
  27              		.loc 1 19 0
  28              		.cfi_startproc
  29              		@ args = 0, pretend = 0, frame = 0
  30              		@ frame_needed = 1, uses_anonymous_args = 0
  31 0000 F8B5     		push	{r3, r4, r5, r6, r7, lr}
  32              		.cfi_def_cfa_offset 24
  33              		.cfi_offset 3, -24
  34              		.cfi_offset 4, -20
  35              		.cfi_offset 5, -16
  36              		.cfi_offset 6, -12
  37              		.cfi_offset 7, -8
  38              		.cfi_offset 14, -4
ARM GAS  C:\Users\User\AppData\Local\Temp\ccKt0dxG.s 			page 2


  39 0002 00AF     		add	r7, sp, #0
  40              		.cfi_def_cfa_register 7
  41              	.LVL0:
  20:.\sprite_utils.c ****     const int resolution = 32;
  21:.\sprite_utils.c ****     int n = 0;
  22:.\sprite_utils.c ****     struct Point vertices[4 * resolution + 1];
  42              		.loc 1 22 0
  43 0004 C2B0     		sub	sp, sp, #264
  44 0006 6C46     		mov	r4, sp
  45              	.LVL1:
  46              	.LBB2:
  23:.\sprite_utils.c **** 
  24:.\sprite_utils.c ****     // Bottom edge
  25:.\sprite_utils.c ****     for (int i = 0; i < resolution; i++) {
  47              		.loc 1 25 0
  48 0008 0022     		movs	r2, #0
  49              	.LBE2:
  21:.\sprite_utils.c ****     struct Point vertices[4 * resolution + 1];
  50              		.loc 1 21 0
  51 000a 1346     		mov	r3, r2
  52              	.LBB3:
  53              		.loc 1 25 0
  54 000c 10E0     		b	.L2
  55              	.LVL2:
  56              	.L4:
  26:.\sprite_utils.c ****         vertices[n++] = (struct Point) {
  57              		.loc 1 26 0 discriminator 3
  58 000e 5D1C     		adds	r5, r3, #1
  59              	.LVL3:
  27:.\sprite_utils.c ****             .x = UINT8_MAX * i / resolution,
  60              		.loc 1 27 0 discriminator 3
  61 0010 C2EB0220 		rsb	r0, r2, r2, lsl #8
  62 0014 0146     		mov	r1, r0
  63 0016 0028     		cmp	r0, #0
  64 0018 01DA     		bge	.L3
  65 001a 00F11F01 		add	r1, r0, #31
  66              	.L3:
  67 001e 4911     		asrs	r1, r1, #5
  26:.\sprite_utils.c ****         vertices[n++] = (struct Point) {
  68              		.loc 1 26 0 discriminator 3
  69 0020 04F81310 		strb	r1, [r4, r3, lsl #1]
  70 0024 04EB4303 		add	r3, r4, r3, lsl #1
  71 0028 0021     		movs	r1, #0
  72 002a 5970     		strb	r1, [r3, #1]
  25:.\sprite_utils.c ****         vertices[n++] = (struct Point) {
  73              		.loc 1 25 0 discriminator 3
  74 002c 0132     		adds	r2, r2, #1
  75              	.LVL4:
  26:.\sprite_utils.c ****         vertices[n++] = (struct Point) {
  76              		.loc 1 26 0 discriminator 3
  77 002e 2B46     		mov	r3, r5
  78              	.LVL5:
  79              	.L2:
  25:.\sprite_utils.c ****         vertices[n++] = (struct Point) {
  80              		.loc 1 25 0 discriminator 1
  81 0030 1F2A     		cmp	r2, #31
  82 0032 ECDD     		ble	.L4
ARM GAS  C:\Users\User\AppData\Local\Temp\ccKt0dxG.s 			page 3


  83 0034 0022     		movs	r2, #0
  84              	.LVL6:
  85 0036 10E0     		b	.L5
  86              	.LVL7:
  87              	.L7:
  88              	.LBE3:
  89              	.LBB4:
  28:.\sprite_utils.c ****             .y = 0
  29:.\sprite_utils.c ****         };
  30:.\sprite_utils.c ****     }
  31:.\sprite_utils.c ****     // Right edge
  32:.\sprite_utils.c ****     for (int i = 0; i < resolution; i++) {
  33:.\sprite_utils.c ****         vertices[n++] = (struct Point) {
  90              		.loc 1 33 0 discriminator 3
  91 0038 5D1C     		adds	r5, r3, #1
  92              	.LVL8:
  34:.\sprite_utils.c ****             .x = UINT8_MAX,
  35:.\sprite_utils.c ****             .y = UINT8_MAX * i / resolution
  93              		.loc 1 35 0 discriminator 3
  94 003a C2EB0220 		rsb	r0, r2, r2, lsl #8
  95 003e 0146     		mov	r1, r0
  96 0040 0028     		cmp	r0, #0
  97 0042 01DA     		bge	.L6
  98 0044 00F11F01 		add	r1, r0, #31
  99              	.L6:
 100 0048 4911     		asrs	r1, r1, #5
  33:.\sprite_utils.c ****             .x = UINT8_MAX,
 101              		.loc 1 33 0 discriminator 3
 102 004a FF20     		movs	r0, #255
 103 004c 04F81300 		strb	r0, [r4, r3, lsl #1]
 104 0050 04EB4303 		add	r3, r4, r3, lsl #1
 105 0054 5970     		strb	r1, [r3, #1]
  32:.\sprite_utils.c ****         vertices[n++] = (struct Point) {
 106              		.loc 1 32 0 discriminator 3
 107 0056 0132     		adds	r2, r2, #1
 108              	.LVL9:
  33:.\sprite_utils.c ****             .x = UINT8_MAX,
 109              		.loc 1 33 0 discriminator 3
 110 0058 2B46     		mov	r3, r5
 111              	.LVL10:
 112              	.L5:
  32:.\sprite_utils.c ****         vertices[n++] = (struct Point) {
 113              		.loc 1 32 0 discriminator 1
 114 005a 1F2A     		cmp	r2, #31
 115 005c ECDD     		ble	.L7
 116 005e 0022     		movs	r2, #0
 117              	.LVL11:
 118 0060 11E0     		b	.L8
 119              	.LVL12:
 120              	.L10:
 121              	.LBE4:
 122              	.LBB5:
  36:.\sprite_utils.c ****         };
  37:.\sprite_utils.c ****     }
  38:.\sprite_utils.c ****     // Top edge
  39:.\sprite_utils.c ****     for (int i = 0; i < resolution; i++) {
  40:.\sprite_utils.c ****         vertices[n++] = (struct Point) {
ARM GAS  C:\Users\User\AppData\Local\Temp\ccKt0dxG.s 			page 4


 123              		.loc 1 40 0 discriminator 3
 124 0062 5D1C     		adds	r5, r3, #1
 125              	.LVL13:
  41:.\sprite_utils.c ****             .x = UINT8_MAX - UINT8_MAX * i / resolution,
 126              		.loc 1 41 0 discriminator 3
 127 0064 C2EB0220 		rsb	r0, r2, r2, lsl #8
 128 0068 0146     		mov	r1, r0
 129 006a 0028     		cmp	r0, #0
 130 006c 01DA     		bge	.L9
 131 006e 00F11F01 		add	r1, r0, #31
 132              	.L9:
  40:.\sprite_utils.c ****             .x = UINT8_MAX - UINT8_MAX * i / resolution,
 133              		.loc 1 40 0 discriminator 3
 134 0072 6FEA6111 		mvn	r1, r1, asr #5
 135 0076 04F81310 		strb	r1, [r4, r3, lsl #1]
 136 007a 04EB4303 		add	r3, r4, r3, lsl #1
 137 007e FF21     		movs	r1, #255
 138 0080 5970     		strb	r1, [r3, #1]
  39:.\sprite_utils.c ****         vertices[n++] = (struct Point) {
 139              		.loc 1 39 0 discriminator 3
 140 0082 0132     		adds	r2, r2, #1
 141              	.LVL14:
  40:.\sprite_utils.c ****             .x = UINT8_MAX - UINT8_MAX * i / resolution,
 142              		.loc 1 40 0 discriminator 3
 143 0084 2B46     		mov	r3, r5
 144              	.LVL15:
 145              	.L8:
  39:.\sprite_utils.c ****         vertices[n++] = (struct Point) {
 146              		.loc 1 39 0 discriminator 1
 147 0086 1F2A     		cmp	r2, #31
 148 0088 EBDD     		ble	.L10
 149 008a 0022     		movs	r2, #0
 150              	.LVL16:
 151 008c 11E0     		b	.L11
 152              	.LVL17:
 153              	.L13:
 154              	.LBE5:
 155              	.LBB6:
  42:.\sprite_utils.c ****             .y = UINT8_MAX
  43:.\sprite_utils.c ****         };
  44:.\sprite_utils.c ****     }
  45:.\sprite_utils.c ****     // Left edge
  46:.\sprite_utils.c ****     for (int i = 0; i < resolution; i++) {
  47:.\sprite_utils.c ****         vertices[n++] = (struct Point) {
 156              		.loc 1 47 0 discriminator 3
 157 008e 5D1C     		adds	r5, r3, #1
 158              	.LVL18:
  48:.\sprite_utils.c ****             .x = 0,
  49:.\sprite_utils.c ****             .y = UINT8_MAX - UINT8_MAX * i / resolution
 159              		.loc 1 49 0 discriminator 3
 160 0090 C2EB0220 		rsb	r0, r2, r2, lsl #8
 161 0094 0146     		mov	r1, r0
 162 0096 0028     		cmp	r0, #0
 163 0098 01DA     		bge	.L12
 164 009a 00F11F01 		add	r1, r0, #31
 165              	.L12:
  47:.\sprite_utils.c ****             .x = 0,
ARM GAS  C:\Users\User\AppData\Local\Temp\ccKt0dxG.s 			page 5


 166              		.loc 1 47 0 discriminator 3
 167 009e 0020     		movs	r0, #0
 168 00a0 04F81300 		strb	r0, [r4, r3, lsl #1]
 169 00a4 04EB4303 		add	r3, r4, r3, lsl #1
 170 00a8 6FEA6111 		mvn	r1, r1, asr #5
 171 00ac 5970     		strb	r1, [r3, #1]
  46:.\sprite_utils.c ****         vertices[n++] = (struct Point) {
 172              		.loc 1 46 0 discriminator 3
 173 00ae 0132     		adds	r2, r2, #1
 174              	.LVL19:
  47:.\sprite_utils.c ****             .x = 0,
 175              		.loc 1 47 0 discriminator 3
 176 00b0 2B46     		mov	r3, r5
 177              	.LVL20:
 178              	.L11:
  46:.\sprite_utils.c ****         vertices[n++] = (struct Point) {
 179              		.loc 1 46 0 discriminator 1
 180 00b2 1F2A     		cmp	r2, #31
 181 00b4 EBDD     		ble	.L13
 182              	.LBE6:
  50:.\sprite_utils.c ****         };
  51:.\sprite_utils.c ****     }
  52:.\sprite_utils.c ****     // Complete the polygon
  53:.\sprite_utils.c ****     vertices[n++] = (struct Point) { .x = 0, .y = 0 };
 183              		.loc 1 53 0
 184 00b6 5E1C     		adds	r6, r3, #1
 185              	.LVL21:
 186 00b8 0025     		movs	r5, #0
 187 00ba 04F81350 		strb	r5, [r4, r3, lsl #1]
 188 00be 04EB4303 		add	r3, r4, r3, lsl #1
 189 00c2 5D70     		strb	r5, [r3, #1]
  54:.\sprite_utils.c **** 
  55:.\sprite_utils.c ****     struct Sprite *res = (struct Sprite*) malloc(sizeof(struct Sprite));
 190              		.loc 1 55 0
 191 00c4 0C20     		movs	r0, #12
 192 00c6 FFF7FEFF 		bl	malloc
 193              	.LVL22:
  56:.\sprite_utils.c ****     res->position = (struct Point) { .x = 0, .y = 0 };
 194              		.loc 1 56 0
 195 00ca 0570     		strb	r5, [r0]
 196 00cc 4570     		strb	r5, [r0, #1]
  57:.\sprite_utils.c ****     res->n = n;
 197              		.loc 1 57 0
 198 00ce 4660     		str	r6, [r0, #4]
  58:.\sprite_utils.c ****     res->vertices = vertices;
 199              		.loc 1 58 0
 200 00d0 8460     		str	r4, [r0, #8]
  59:.\sprite_utils.c ****     return res;
  60:.\sprite_utils.c **** }
 201              		.loc 1 60 0
 202 00d2 BD46     		mov	sp, r7
 203              		.cfi_def_cfa_register 13
 204              		@ sp needed
 205 00d4 F8BD     		pop	{r3, r4, r5, r6, r7, pc}
 206              		.cfi_endproc
 207              	.LFE0:
 208              		.size	make_fretboard, .-make_fretboard
ARM GAS  C:\Users\User\AppData\Local\Temp\ccKt0dxG.s 			page 6


 209 00d6 00BF     		.section	.text.sprites_to_polyline,"ax",%progbits
 210              		.align	2
 211              		.global	sprites_to_polyline
 212              		.thumb
 213              		.thumb_func
 214              		.type	sprites_to_polyline, %function
 215              	sprites_to_polyline:
 216              	.LFB1:
  61:.\sprite_utils.c **** 
  62:.\sprite_utils.c **** /*
  63:.\sprite_utils.c ****  * Converts a list of sprites into a polyline that the scope can render.
  64:.\sprite_utils.c ****  */
  65:.\sprite_utils.c **** void sprites_to_polyline(int n_sprites, struct Sprite **sprites, int *n_points, struct Point *point
 217              		.loc 1 65 0
 218              		.cfi_startproc
 219              		@ args = 0, pretend = 0, frame = 0
 220              		@ frame_needed = 0, uses_anonymous_args = 0
 221              		@ link register save eliminated.
 222              	.LVL23:
 223 0000 F0B4     		push	{r4, r5, r6, r7}
 224              		.cfi_def_cfa_offset 16
 225              		.cfi_offset 4, -16
 226              		.cfi_offset 5, -12
 227              		.cfi_offset 6, -8
 228              		.cfi_offset 7, -4
 229              	.LVL24:
 230              	.LBB7:
  66:.\sprite_utils.c ****     // For now, naively convert to points
  67:.\sprite_utils.c ****     for (int i = 0; i < n_sprites; i++) {
 231              		.loc 1 67 0
 232 0002 0026     		movs	r6, #0
 233 0004 12E0     		b	.L16
 234              	.LVL25:
 235              	.L17:
 236              	.LBB8:
  68:.\sprite_utils.c ****         for (int j = 0; j < sprites[i]->n; j++) {
  69:.\sprite_utils.c ****             // TODO: incorporate position
  70:.\sprite_utils.c ****             points[(*n_points)++] = sprites[i]->vertices[j];
 237              		.loc 1 70 0 discriminator 3
 238 0006 1568     		ldr	r5, [r2]
 239 0008 6F1C     		adds	r7, r5, #1
 240 000a 1760     		str	r7, [r2]
 241 000c 51F82670 		ldr	r7, [r1, r6, lsl #2]
 242 0010 BF68     		ldr	r7, [r7, #8]
 243 0012 37F81470 		ldrh	r7, [r7, r4, lsl #1]	@ unaligned
 244 0016 23F81570 		strh	r7, [r3, r5, lsl #1]	@ unaligned
  68:.\sprite_utils.c ****         for (int j = 0; j < sprites[i]->n; j++) {
 245              		.loc 1 68 0 discriminator 3
 246 001a 0134     		adds	r4, r4, #1
 247              	.LVL26:
 248 001c 00E0     		b	.L18
 249              	.LVL27:
 250              	.L19:
 251              	.LBE8:
 252 001e 0024     		movs	r4, #0
 253              	.L18:
 254              	.LVL28:
ARM GAS  C:\Users\User\AppData\Local\Temp\ccKt0dxG.s 			page 7


 255              	.LBB9:
  68:.\sprite_utils.c ****         for (int j = 0; j < sprites[i]->n; j++) {
 256              		.loc 1 68 0 is_stmt 0 discriminator 1
 257 0020 51F82650 		ldr	r5, [r1, r6, lsl #2]
 258 0024 6D68     		ldr	r5, [r5, #4]
 259 0026 A542     		cmp	r5, r4
 260 0028 EDDC     		bgt	.L17
 261              	.LBE9:
  67:.\sprite_utils.c ****         for (int j = 0; j < sprites[i]->n; j++) {
 262              		.loc 1 67 0 is_stmt 1 discriminator 2
 263 002a 0136     		adds	r6, r6, #1
 264              	.LVL29:
 265              	.L16:
  67:.\sprite_utils.c ****         for (int j = 0; j < sprites[i]->n; j++) {
 266              		.loc 1 67 0 is_stmt 0 discriminator 1
 267 002c 8642     		cmp	r6, r0
 268 002e F6DB     		blt	.L19
 269              	.LBE7:
  71:.\sprite_utils.c ****         }
  72:.\sprite_utils.c ****     }
  73:.\sprite_utils.c **** }
 270              		.loc 1 73 0 is_stmt 1
 271 0030 F0BC     		pop	{r4, r5, r6, r7}
 272              		.cfi_restore 7
 273              		.cfi_restore 6
 274              		.cfi_restore 5
 275              		.cfi_restore 4
 276              		.cfi_def_cfa_offset 0
 277              	.LVL30:
 278 0032 7047     		bx	lr
 279              		.cfi_endproc
 280              	.LFE1:
 281              		.size	sprites_to_polyline, .-sprites_to_polyline
 282              		.global	__aeabi_i2d
 283              		.global	__aeabi_dmul
 284              		.global	__aeabi_dadd
 285              		.global	__aeabi_d2f
 286              		.global	__aeabi_fdiv
 287              		.global	__aeabi_f2uiz
 288              		.section	.text.ortho_to_perspective,"ax",%progbits
 289              		.align	2
 290              		.global	ortho_to_perspective
 291              		.thumb
 292              		.thumb_func
 293              		.type	ortho_to_perspective, %function
 294              	ortho_to_perspective:
 295              	.LFB2:
  74:.\sprite_utils.c **** 
  75:.\sprite_utils.c **** /*
  76:.\sprite_utils.c ****  * Converts a list of points from an orthographic view to a perspective view.
  77:.\sprite_utils.c ****  *
  78:.\sprite_utils.c ****  * Matrix coefficients calculated using OpenCV by taking the perspective transform
  79:.\sprite_utils.c ****  * [(0, 0), (0, 255), (255, 255), (255, 0)] -> [(0, 0), (100, 255), (155, 255), (255, 0)]
  80:.\sprite_utils.c ****  * which yields
  81:.\sprite_utils.c ****  * [1   1.81818182  0
  82:.\sprite_utils.c ****  *  0   4.63636364  0
  83:.\sprite_utils.c ****  *  0   0.01426025  1]
ARM GAS  C:\Users\User\AppData\Local\Temp\ccKt0dxG.s 			page 8


  84:.\sprite_utils.c ****  */
  85:.\sprite_utils.c **** void ortho_to_perspective(int n_points, struct Point *points) {
 296              		.loc 1 85 0
 297              		.cfi_startproc
 298              		@ args = 0, pretend = 0, frame = 8
 299              		@ frame_needed = 0, uses_anonymous_args = 0
 300              	.LVL31:
 301 0000 2DE9F04F 		push	{r4, r5, r6, r7, r8, r9, r10, fp, lr}
 302              		.cfi_def_cfa_offset 36
 303              		.cfi_offset 4, -36
 304              		.cfi_offset 5, -32
 305              		.cfi_offset 6, -28
 306              		.cfi_offset 7, -24
 307              		.cfi_offset 8, -20
 308              		.cfi_offset 9, -16
 309              		.cfi_offset 10, -12
 310              		.cfi_offset 11, -8
 311              		.cfi_offset 14, -4
 312 0004 83B0     		sub	sp, sp, #12
 313              		.cfi_def_cfa_offset 48
 314 0006 8246     		mov	r10, r0
 315 0008 0D46     		mov	r5, r1
 316              	.LVL32:
 317              	.LBB10:
  86:.\sprite_utils.c ****     for (int i = 0; i < n_points; i++) {
 318              		.loc 1 86 0
 319 000a 0024     		movs	r4, #0
 320 000c 43E0     		b	.L22
 321              	.LVL33:
 322              	.L23:
 323              	.LBB11:
  87:.\sprite_utils.c ****         float scaled_x = points[i].x + 1.81818182 * points[i].y;
 324              		.loc 1 87 0 discriminator 3
 325 000e 05EB4408 		add	r8, r5, r4, lsl #1
 326 0012 15F81490 		ldrb	r9, [r5, r4, lsl #1]	@ zero_extendqisi2
 327 0016 98F80100 		ldrb	r0, [r8, #1]	@ zero_extendqisi2
 328 001a FFF7FEFF 		bl	__aeabi_i2d
 329              	.LVL34:
 330 001e 0646     		mov	r6, r0
 331 0020 0F46     		mov	r7, r1
 332 0022 1FA3     		adr	r3, .L25
 333 0024 D3E90023 		ldrd	r2, [r3]
 334 0028 FFF7FEFF 		bl	__aeabi_dmul
 335              	.LVL35:
 336 002c CDE90001 		strd	r0, [sp]
 337 0030 4846     		mov	r0, r9
 338 0032 FFF7FEFF 		bl	__aeabi_i2d
 339              	.LVL36:
 340 0036 DDE90023 		ldrd	r2, [sp]
 341 003a FFF7FEFF 		bl	__aeabi_dadd
 342              	.LVL37:
 343 003e FFF7FEFF 		bl	__aeabi_d2f
 344              	.LVL38:
 345 0042 8346     		mov	fp, r0
 346              	.LVL39:
  88:.\sprite_utils.c ****         float scaled_y = 4.63636364 * points[i].y;
 347              		.loc 1 88 0 discriminator 3
ARM GAS  C:\Users\User\AppData\Local\Temp\ccKt0dxG.s 			page 9


 348 0044 3046     		mov	r0, r6
 349              	.LVL40:
 350 0046 3946     		mov	r1, r7
 351 0048 17A3     		adr	r3, .L25+8
 352 004a D3E90023 		ldrd	r2, [r3]
 353 004e FFF7FEFF 		bl	__aeabi_dmul
 354              	.LVL41:
 355 0052 FFF7FEFF 		bl	__aeabi_d2f
 356              	.LVL42:
 357 0056 8146     		mov	r9, r0
 358              	.LVL43:
  89:.\sprite_utils.c ****         float scaling = 1 + 0.01426025 * points[i].y;
 359              		.loc 1 89 0 discriminator 3
 360 0058 3046     		mov	r0, r6
 361              	.LVL44:
 362 005a 3946     		mov	r1, r7
 363 005c 14A3     		adr	r3, .L25+16
 364 005e D3E90023 		ldrd	r2, [r3]
 365 0062 FFF7FEFF 		bl	__aeabi_dmul
 366              	.LVL45:
 367 0066 0022     		movs	r2, #0
 368 0068 134B     		ldr	r3, .L25+24
 369 006a FFF7FEFF 		bl	__aeabi_dadd
 370              	.LVL46:
 371 006e FFF7FEFF 		bl	__aeabi_d2f
 372              	.LVL47:
 373 0072 0646     		mov	r6, r0
 374              	.LVL48:
  90:.\sprite_utils.c ****         points[i].x = (uint8)(scaled_x / scaling);
 375              		.loc 1 90 0 discriminator 3
 376 0074 5846     		mov	r0, fp
 377              	.LVL49:
 378 0076 3146     		mov	r1, r6
 379 0078 FFF7FEFF 		bl	__aeabi_fdiv
 380              	.LVL50:
 381 007c FFF7FEFF 		bl	__aeabi_f2uiz
 382              	.LVL51:
 383 0080 05F81400 		strb	r0, [r5, r4, lsl #1]
  91:.\sprite_utils.c ****         points[i].y = (uint8)(scaled_y / scaling);
 384              		.loc 1 91 0 discriminator 3
 385 0084 4846     		mov	r0, r9
 386 0086 3146     		mov	r1, r6
 387 0088 FFF7FEFF 		bl	__aeabi_fdiv
 388              	.LVL52:
 389 008c FFF7FEFF 		bl	__aeabi_f2uiz
 390              	.LVL53:
 391 0090 88F80100 		strb	r0, [r8, #1]
 392              	.LBE11:
  86:.\sprite_utils.c ****         float scaled_x = points[i].x + 1.81818182 * points[i].y;
 393              		.loc 1 86 0 discriminator 3
 394 0094 0134     		adds	r4, r4, #1
 395              	.LVL54:
 396              	.L22:
  86:.\sprite_utils.c ****         float scaled_x = points[i].x + 1.81818182 * points[i].y;
 397              		.loc 1 86 0 is_stmt 0 discriminator 1
 398 0096 5445     		cmp	r4, r10
 399 0098 B9DB     		blt	.L23
ARM GAS  C:\Users\User\AppData\Local\Temp\ccKt0dxG.s 			page 10


 400              	.LBE10:
  92:.\sprite_utils.c ****     }
  93:.\sprite_utils.c **** }
 401              		.loc 1 93 0 is_stmt 1
 402 009a 03B0     		add	sp, sp, #12
 403              		.cfi_def_cfa_offset 36
 404              		@ sp needed
 405 009c BDE8F08F 		pop	{r4, r5, r6, r7, r8, r9, r10, fp, pc}
 406              	.LVL55:
 407              	.L26:
 408              		.align	3
 409              	.L25:
 410 00a0 E24EF1D1 		.word	-772714782
 411 00a4 4517FD3F 		.word	1073551173
 412 00a8 71A7F8E8 		.word	-386357391
 413 00ac A28B1240 		.word	1074957218
 414 00b0 0FF10F5B 		.word	1527771407
 415 00b4 7A348D3F 		.word	1066218618
 416 00b8 0000F03F 		.word	1072693248
 417              		.cfi_endproc
 418              	.LFE2:
 419              		.size	ortho_to_perspective, .-ortho_to_perspective
 420 00bc AFF30080 		.text
 421              	.Letext0:
 422              		.file 2 "./sprite_utils.h"
 423              		.file 3 "Generated_Source\\PSoC5/cytypes.h"
 424              		.file 4 "c:\\program files (x86)\\cypress\\psoc creator\\3.3\\psoc creator\\import\\gnu\\arm\\4.9.
 425              		.file 5 "c:\\program files (x86)\\cypress\\psoc creator\\3.3\\psoc creator\\import\\gnu\\arm\\4.9.