ARM GAS  C:\Users\User\AppData\Local\Temp\ccykGmck.s 			page 1


   1              		.syntax unified
   2              		.cpu cortex-m3
   3              		.fpu softvfp
   4              		.eabi_attribute 20, 1
   5              		.eabi_attribute 21, 1
   6              		.eabi_attribute 23, 3
   7              		.eabi_attribute 24, 1
   8              		.eabi_attribute 25, 1
   9              		.eabi_attribute 26, 1
  10              		.eabi_attribute 30, 1
  11              		.eabi_attribute 34, 1
  12              		.eabi_attribute 18, 4
  13              		.thumb
  14              		.file	"main.c"
  15              		.text
  16              	.Ltext0:
  17              		.cfi_sections	.debug_frame
  18              		.section	.text.Strum_isr,"ax",%progbits
  19              		.align	2
  20              		.global	Strum_isr
  21              		.thumb
  22              		.thumb_func
  23              		.type	Strum_isr, %function
  24              	Strum_isr:
  25              	.LFB64:
  26              		.file 1 ".\\main.c"
   1:.\main.c      **** /* ========================================
   2:.\main.c      ****  *
   3:.\main.c      ****  * Copyright Andi Qu, 2024
   4:.\main.c      ****  * All Rights Reserved
   5:.\main.c      ****  * UNPUBLISHED, LICENSED SOFTWARE.
   6:.\main.c      ****  *
   7:.\main.c      ****  * CONFIDENTIAL AND PROPRIETARY INFORMATION
   8:.\main.c      ****  * WHICH IS THE PROPERTY OF ANDI QU.
   9:.\main.c      ****  *
  10:.\main.c      ****  * ========================================
  11:.\main.c      ****  */
  12:.\main.c      **** #include <project.h>
  13:.\main.c      **** 
  14:.\main.c      **** // Declare custom ISRs
  15:.\main.c      **** CY_ISR_PROTO(Strum_isr);
  16:.\main.c      **** 
  17:.\main.c      **** /*
  18:.\main.c      ****  * Initialize the system hardware
  19:.\main.c      ****  */
  20:.\main.c      **** void hw_init() {
  21:.\main.c      ****     BLE_UART_Init();
  22:.\main.c      ****     BLE_UART_Start();
  23:.\main.c      **** 
  24:.\main.c      ****     Strum_isr_StartEx(Strum_isr);
  25:.\main.c      **** }
  26:.\main.c      **** 
  27:.\main.c      **** CY_ISR(Strum_isr) {
  27              		.loc 1 27 0
  28              		.cfi_startproc
  29              		@ args = 0, pretend = 0, frame = 0
  30              		@ frame_needed = 0, uses_anonymous_args = 0
ARM GAS  C:\Users\User\AppData\Local\Temp\ccykGmck.s 			page 2


  31 0000 10B5     		push	{r4, lr}
  32              		.cfi_def_cfa_offset 8
  33              		.cfi_offset 4, -8
  34              		.cfi_offset 14, -4
  28:.\main.c      ****     uint8 chr = 0x30 + Btn_1_Read() + 2 * Btn_2_Read() + 4 * Btn_3_Read()
  35              		.loc 1 28 0
  36 0002 FFF7FEFF 		bl	Btn_1_Read
  37              	.LVL0:
  38 0006 0446     		mov	r4, r0
  39 0008 FFF7FEFF 		bl	Btn_2_Read
  40              	.LVL1:
  41 000c 04EB4000 		add	r0, r4, r0, lsl #1
  42 0010 C4B2     		uxtb	r4, r0
  43 0012 FFF7FEFF 		bl	Btn_3_Read
  44              	.LVL2:
  45 0016 04EB8000 		add	r0, r4, r0, lsl #2
  46 001a C4B2     		uxtb	r4, r0
  29:.\main.c      ****                      + 8 * Btn_4_Read() + 16 * Btn_5_Read();
  47              		.loc 1 29 0
  48 001c FFF7FEFF 		bl	Btn_4_Read
  49              	.LVL3:
  28:.\main.c      ****     uint8 chr = 0x30 + Btn_1_Read() + 2 * Btn_2_Read() + 4 * Btn_3_Read()
  50              		.loc 1 28 0
  51 0020 04EBC000 		add	r0, r4, r0, lsl #3
  52 0024 C4B2     		uxtb	r4, r0
  53              		.loc 1 29 0
  54 0026 FFF7FEFF 		bl	Btn_5_Read
  55              	.LVL4:
  28:.\main.c      ****     uint8 chr = 0x30 + Btn_1_Read() + 2 * Btn_2_Read() + 4 * Btn_3_Read()
  56              		.loc 1 28 0
  57 002a 04EB0010 		add	r0, r4, r0, lsl #4
  58 002e 3030     		adds	r0, r0, #48
  59              	.LVL5:
  30:.\main.c      ****     BLE_UART_PutChar(chr);
  60              		.loc 1 30 0
  61 0030 C0B2     		uxtb	r0, r0
  62 0032 FFF7FEFF 		bl	BLE_UART_PutChar
  63              	.LVL6:
  64 0036 10BD     		pop	{r4, pc}
  65              		.cfi_endproc
  66              	.LFE64:
  67              		.size	Strum_isr, .-Strum_isr
  68              		.section	.text.hw_init,"ax",%progbits
  69              		.align	2
  70              		.global	hw_init
  71              		.thumb
  72              		.thumb_func
  73              		.type	hw_init, %function
  74              	hw_init:
  75              	.LFB63:
  20:.\main.c      ****     BLE_UART_Init();
  76              		.loc 1 20 0
  77              		.cfi_startproc
  78              		@ args = 0, pretend = 0, frame = 0
  79              		@ frame_needed = 0, uses_anonymous_args = 0
  80 0000 08B5     		push	{r3, lr}
  81              		.cfi_def_cfa_offset 8
ARM GAS  C:\Users\User\AppData\Local\Temp\ccykGmck.s 			page 3


  82              		.cfi_offset 3, -8
  83              		.cfi_offset 14, -4
  21:.\main.c      ****     BLE_UART_Start();
  84              		.loc 1 21 0
  85 0002 FFF7FEFF 		bl	BLE_UART_Init
  86              	.LVL7:
  22:.\main.c      **** 
  87              		.loc 1 22 0
  88 0006 FFF7FEFF 		bl	BLE_UART_Start
  89              	.LVL8:
  24:.\main.c      **** }
  90              		.loc 1 24 0
  91 000a 0248     		ldr	r0, .L5
  92 000c FFF7FEFF 		bl	Strum_isr_StartEx
  93              	.LVL9:
  94 0010 08BD     		pop	{r3, pc}
  95              	.L6:
  96 0012 00BF     		.align	2
  97              	.L5:
  98 0014 00000000 		.word	Strum_isr
  99              		.cfi_endproc
 100              	.LFE63:
 101              		.size	hw_init, .-hw_init
 102              		.section	.text.main,"ax",%progbits
 103              		.align	2
 104              		.global	main
 105              		.thumb
 106              		.thumb_func
 107              		.type	main, %function
 108              	main:
 109              	.LFB65:
  31:.\main.c      **** }
  32:.\main.c      **** 
  33:.\main.c      **** int main() {
 110              		.loc 1 33 0
 111              		.cfi_startproc
 112              		@ Volatile: function does not return.
 113              		@ args = 0, pretend = 0, frame = 0
 114              		@ frame_needed = 0, uses_anonymous_args = 0
 115 0000 08B5     		push	{r3, lr}
 116              		.cfi_def_cfa_offset 8
 117              		.cfi_offset 3, -8
 118              		.cfi_offset 14, -4
  34:.\main.c      ****     CyGlobalIntEnable; /* Enable global interrupts. */
 119              		.loc 1 34 0
 120              	@ 34 ".\main.c" 1
 121 0002 62B6     		CPSIE   i
 122              	@ 0 "" 2
  35:.\main.c      **** 
  36:.\main.c      ****     hw_init();
 123              		.loc 1 36 0
 124              		.thumb
 125 0004 FFF7FEFF 		bl	hw_init
 126              	.LVL10:
 127              	.L8:
  37:.\main.c      **** 
  38:.\main.c      ****     for(;;) {
ARM GAS  C:\Users\User\AppData\Local\Temp\ccykGmck.s 			page 4


  39:.\main.c      ****         /* Place your application code here. */
  40:.\main.c      ****     }
 128              		.loc 1 40 0 discriminator 1
 129 0008 FEE7     		b	.L8
 130              		.cfi_endproc
 131              	.LFE65:
 132              		.size	main, .-main
 133 000a 00BF     		.text
 134              	.Letext0:
 135              		.file 2 "c:\\program files (x86)\\cypress\\psoc creator\\3.3\\psoc creator\\import\\gnu\\arm\\4.9.
 136              		.file 3 "c:\\program files (x86)\\cypress\\psoc creator\\3.3\\psoc creator\\import\\gnu\\arm\\4.9.
 137              		.file 4 "Generated_Source\\PSoC5/cytypes.h"
 138              		.file 5 "Generated_Source\\PSoC5/Btn_1.h"
 139              		.file 6 "Generated_Source\\PSoC5/Btn_2.h"
 140              		.file 7 "Generated_Source\\PSoC5/Btn_3.h"
 141              		.file 8 "Generated_Source\\PSoC5/Btn_4.h"
 142              		.file 9 "Generated_Source\\PSoC5/Btn_5.h"
 143              		.file 10 "Generated_Source\\PSoC5/BLE_UART.h"
 144              		.file 11 "Generated_Source\\PSoC5/core_cm3.h"
 145              		.file 12 "Generated_Source\\PSoC5/Strum_isr.h"