ARM GAS  C:\Users\User\AppData\Local\Temp\cc4Asa41.s 			page 1


   1              		.syntax unified
   2              		.cpu cortex-m3
   3              		.fpu softvfp
   4              		.eabi_attribute 20, 1
   5              		.eabi_attribute 21, 1
   6              		.eabi_attribute 23, 3
   7              		.eabi_attribute 24, 1
   8              		.eabi_attribute 25, 1
   9              		.eabi_attribute 26, 1
  10              		.eabi_attribute 30, 1
  11              		.eabi_attribute 34, 1
  12              		.eabi_attribute 18, 4
  13              		.thumb
  14              		.file	"BLE_UART.c"
  15              		.text
  16              	.Ltext0:
  17              		.cfi_sections	.debug_frame
  18              		.section	.text.BLE_UART_Init,"ax",%progbits
  19              		.align	2
  20              		.global	BLE_UART_Init
  21              		.thumb
  22              		.thumb_func
  23              		.type	BLE_UART_Init, %function
  24              	BLE_UART_Init:
  25              	.LFB1:
  26              		.file 1 ".\\Generated_Source\\PSoC5\\BLE_UART.c"
   1:.\Generated_Source\PSoC5/BLE_UART.c **** /*******************************************************************************
   2:.\Generated_Source\PSoC5/BLE_UART.c **** * File Name: BLE_UART.c
   3:.\Generated_Source\PSoC5/BLE_UART.c **** * Version 2.50
   4:.\Generated_Source\PSoC5/BLE_UART.c **** *
   5:.\Generated_Source\PSoC5/BLE_UART.c **** * Description:
   6:.\Generated_Source\PSoC5/BLE_UART.c **** *  This file provides all API functionality of the UART component
   7:.\Generated_Source\PSoC5/BLE_UART.c **** *
   8:.\Generated_Source\PSoC5/BLE_UART.c **** * Note:
   9:.\Generated_Source\PSoC5/BLE_UART.c **** *
  10:.\Generated_Source\PSoC5/BLE_UART.c **** ********************************************************************************
  11:.\Generated_Source\PSoC5/BLE_UART.c **** * Copyright 2008-2015, Cypress Semiconductor Corporation.  All rights reserved.
  12:.\Generated_Source\PSoC5/BLE_UART.c **** * You may use this file only in accordance with the license, terms, conditions,
  13:.\Generated_Source\PSoC5/BLE_UART.c **** * disclaimers, and limitations in the end user license agreement accompanying
  14:.\Generated_Source\PSoC5/BLE_UART.c **** * the software package with which this file was provided.
  15:.\Generated_Source\PSoC5/BLE_UART.c **** *******************************************************************************/
  16:.\Generated_Source\PSoC5/BLE_UART.c **** 
  17:.\Generated_Source\PSoC5/BLE_UART.c **** #include "BLE_UART.h"
  18:.\Generated_Source\PSoC5/BLE_UART.c **** #if (BLE_UART_INTERNAL_CLOCK_USED)
  19:.\Generated_Source\PSoC5/BLE_UART.c ****     #include "BLE_UART_IntClock.h"
  20:.\Generated_Source\PSoC5/BLE_UART.c **** #endif /* End BLE_UART_INTERNAL_CLOCK_USED */
  21:.\Generated_Source\PSoC5/BLE_UART.c **** 
  22:.\Generated_Source\PSoC5/BLE_UART.c **** 
  23:.\Generated_Source\PSoC5/BLE_UART.c **** /***************************************
  24:.\Generated_Source\PSoC5/BLE_UART.c **** * Global data allocation
  25:.\Generated_Source\PSoC5/BLE_UART.c **** ***************************************/
  26:.\Generated_Source\PSoC5/BLE_UART.c **** 
  27:.\Generated_Source\PSoC5/BLE_UART.c **** uint8 BLE_UART_initVar = 0u;
  28:.\Generated_Source\PSoC5/BLE_UART.c **** 
  29:.\Generated_Source\PSoC5/BLE_UART.c **** #if (BLE_UART_TX_INTERRUPT_ENABLED && BLE_UART_TX_ENABLED)
  30:.\Generated_Source\PSoC5/BLE_UART.c ****     volatile uint8 BLE_UART_txBuffer[BLE_UART_TX_BUFFER_SIZE];
  31:.\Generated_Source\PSoC5/BLE_UART.c ****     volatile uint8 BLE_UART_txBufferRead = 0u;
ARM GAS  C:\Users\User\AppData\Local\Temp\cc4Asa41.s 			page 2


  32:.\Generated_Source\PSoC5/BLE_UART.c ****     uint8 BLE_UART_txBufferWrite = 0u;
  33:.\Generated_Source\PSoC5/BLE_UART.c **** #endif /* (BLE_UART_TX_INTERRUPT_ENABLED && BLE_UART_TX_ENABLED) */
  34:.\Generated_Source\PSoC5/BLE_UART.c **** 
  35:.\Generated_Source\PSoC5/BLE_UART.c **** #if (BLE_UART_RX_INTERRUPT_ENABLED && (BLE_UART_RX_ENABLED || BLE_UART_HD_ENABLED))
  36:.\Generated_Source\PSoC5/BLE_UART.c ****     uint8 BLE_UART_errorStatus = 0u;
  37:.\Generated_Source\PSoC5/BLE_UART.c ****     volatile uint8 BLE_UART_rxBuffer[BLE_UART_RX_BUFFER_SIZE];
  38:.\Generated_Source\PSoC5/BLE_UART.c ****     volatile uint8 BLE_UART_rxBufferRead  = 0u;
  39:.\Generated_Source\PSoC5/BLE_UART.c ****     volatile uint8 BLE_UART_rxBufferWrite = 0u;
  40:.\Generated_Source\PSoC5/BLE_UART.c ****     volatile uint8 BLE_UART_rxBufferLoopDetect = 0u;
  41:.\Generated_Source\PSoC5/BLE_UART.c ****     volatile uint8 BLE_UART_rxBufferOverflow   = 0u;
  42:.\Generated_Source\PSoC5/BLE_UART.c ****     #if (BLE_UART_RXHW_ADDRESS_ENABLED)
  43:.\Generated_Source\PSoC5/BLE_UART.c ****         volatile uint8 BLE_UART_rxAddressMode = BLE_UART_RX_ADDRESS_MODE;
  44:.\Generated_Source\PSoC5/BLE_UART.c ****         volatile uint8 BLE_UART_rxAddressDetected = 0u;
  45:.\Generated_Source\PSoC5/BLE_UART.c ****     #endif /* (BLE_UART_RXHW_ADDRESS_ENABLED) */
  46:.\Generated_Source\PSoC5/BLE_UART.c **** #endif /* (BLE_UART_RX_INTERRUPT_ENABLED && (BLE_UART_RX_ENABLED || BLE_UART_HD_ENABLED)) */
  47:.\Generated_Source\PSoC5/BLE_UART.c **** 
  48:.\Generated_Source\PSoC5/BLE_UART.c **** 
  49:.\Generated_Source\PSoC5/BLE_UART.c **** /*******************************************************************************
  50:.\Generated_Source\PSoC5/BLE_UART.c **** * Function Name: BLE_UART_Start
  51:.\Generated_Source\PSoC5/BLE_UART.c **** ********************************************************************************
  52:.\Generated_Source\PSoC5/BLE_UART.c **** *
  53:.\Generated_Source\PSoC5/BLE_UART.c **** * Summary:
  54:.\Generated_Source\PSoC5/BLE_UART.c **** *  This is the preferred method to begin component operation.
  55:.\Generated_Source\PSoC5/BLE_UART.c **** *  BLE_UART_Start() sets the initVar variable, calls the
  56:.\Generated_Source\PSoC5/BLE_UART.c **** *  BLE_UART_Init() function, and then calls the
  57:.\Generated_Source\PSoC5/BLE_UART.c **** *  BLE_UART_Enable() function.
  58:.\Generated_Source\PSoC5/BLE_UART.c **** *
  59:.\Generated_Source\PSoC5/BLE_UART.c **** * Parameters:
  60:.\Generated_Source\PSoC5/BLE_UART.c **** *  None.
  61:.\Generated_Source\PSoC5/BLE_UART.c **** *
  62:.\Generated_Source\PSoC5/BLE_UART.c **** * Return:
  63:.\Generated_Source\PSoC5/BLE_UART.c **** *  None.
  64:.\Generated_Source\PSoC5/BLE_UART.c **** *
  65:.\Generated_Source\PSoC5/BLE_UART.c **** * Global variables:
  66:.\Generated_Source\PSoC5/BLE_UART.c **** *  The BLE_UART_intiVar variable is used to indicate initial
  67:.\Generated_Source\PSoC5/BLE_UART.c **** *  configuration of this component. The variable is initialized to zero (0u)
  68:.\Generated_Source\PSoC5/BLE_UART.c **** *  and set to one (1u) the first time BLE_UART_Start() is called. This
  69:.\Generated_Source\PSoC5/BLE_UART.c **** *  allows for component initialization without re-initialization in all
  70:.\Generated_Source\PSoC5/BLE_UART.c **** *  subsequent calls to the BLE_UART_Start() routine.
  71:.\Generated_Source\PSoC5/BLE_UART.c **** *
  72:.\Generated_Source\PSoC5/BLE_UART.c **** * Reentrant:
  73:.\Generated_Source\PSoC5/BLE_UART.c **** *  No.
  74:.\Generated_Source\PSoC5/BLE_UART.c **** *
  75:.\Generated_Source\PSoC5/BLE_UART.c **** *******************************************************************************/
  76:.\Generated_Source\PSoC5/BLE_UART.c **** void BLE_UART_Start(void) 
  77:.\Generated_Source\PSoC5/BLE_UART.c **** {
  78:.\Generated_Source\PSoC5/BLE_UART.c ****     /* If not initialized then initialize all required hardware and software */
  79:.\Generated_Source\PSoC5/BLE_UART.c ****     if(BLE_UART_initVar == 0u)
  80:.\Generated_Source\PSoC5/BLE_UART.c ****     {
  81:.\Generated_Source\PSoC5/BLE_UART.c ****         BLE_UART_Init();
  82:.\Generated_Source\PSoC5/BLE_UART.c ****         BLE_UART_initVar = 1u;
  83:.\Generated_Source\PSoC5/BLE_UART.c ****     }
  84:.\Generated_Source\PSoC5/BLE_UART.c **** 
  85:.\Generated_Source\PSoC5/BLE_UART.c ****     BLE_UART_Enable();
  86:.\Generated_Source\PSoC5/BLE_UART.c **** }
  87:.\Generated_Source\PSoC5/BLE_UART.c **** 
  88:.\Generated_Source\PSoC5/BLE_UART.c **** 
ARM GAS  C:\Users\User\AppData\Local\Temp\cc4Asa41.s 			page 3


  89:.\Generated_Source\PSoC5/BLE_UART.c **** /*******************************************************************************
  90:.\Generated_Source\PSoC5/BLE_UART.c **** * Function Name: BLE_UART_Init
  91:.\Generated_Source\PSoC5/BLE_UART.c **** ********************************************************************************
  92:.\Generated_Source\PSoC5/BLE_UART.c **** *
  93:.\Generated_Source\PSoC5/BLE_UART.c **** * Summary:
  94:.\Generated_Source\PSoC5/BLE_UART.c **** *  Initializes or restores the component according to the customizer Configure
  95:.\Generated_Source\PSoC5/BLE_UART.c **** *  dialog settings. It is not necessary to call BLE_UART_Init() because
  96:.\Generated_Source\PSoC5/BLE_UART.c **** *  the BLE_UART_Start() API calls this function and is the preferred
  97:.\Generated_Source\PSoC5/BLE_UART.c **** *  method to begin component operation.
  98:.\Generated_Source\PSoC5/BLE_UART.c **** *
  99:.\Generated_Source\PSoC5/BLE_UART.c **** * Parameters:
 100:.\Generated_Source\PSoC5/BLE_UART.c **** *  None.
 101:.\Generated_Source\PSoC5/BLE_UART.c **** *
 102:.\Generated_Source\PSoC5/BLE_UART.c **** * Return:
 103:.\Generated_Source\PSoC5/BLE_UART.c **** *  None.
 104:.\Generated_Source\PSoC5/BLE_UART.c **** *
 105:.\Generated_Source\PSoC5/BLE_UART.c **** *******************************************************************************/
 106:.\Generated_Source\PSoC5/BLE_UART.c **** void BLE_UART_Init(void) 
 107:.\Generated_Source\PSoC5/BLE_UART.c **** {
  27              		.loc 1 107 0
  28              		.cfi_startproc
  29              		@ args = 0, pretend = 0, frame = 0
  30              		@ frame_needed = 0, uses_anonymous_args = 0
  31              		@ link register save eliminated.
 108:.\Generated_Source\PSoC5/BLE_UART.c ****     #if(BLE_UART_RX_ENABLED || BLE_UART_HD_ENABLED)
 109:.\Generated_Source\PSoC5/BLE_UART.c **** 
 110:.\Generated_Source\PSoC5/BLE_UART.c ****         #if (BLE_UART_RX_INTERRUPT_ENABLED)
 111:.\Generated_Source\PSoC5/BLE_UART.c ****             /* Set RX interrupt vector and priority */
 112:.\Generated_Source\PSoC5/BLE_UART.c ****             (void) CyIntSetVector(BLE_UART_RX_VECT_NUM, &BLE_UART_RXISR);
 113:.\Generated_Source\PSoC5/BLE_UART.c ****             CyIntSetPriority(BLE_UART_RX_VECT_NUM, BLE_UART_RX_PRIOR_NUM);
 114:.\Generated_Source\PSoC5/BLE_UART.c ****             BLE_UART_errorStatus = 0u;
 115:.\Generated_Source\PSoC5/BLE_UART.c ****         #endif /* (BLE_UART_RX_INTERRUPT_ENABLED) */
 116:.\Generated_Source\PSoC5/BLE_UART.c **** 
 117:.\Generated_Source\PSoC5/BLE_UART.c ****         #if (BLE_UART_RXHW_ADDRESS_ENABLED)
 118:.\Generated_Source\PSoC5/BLE_UART.c ****             BLE_UART_SetRxAddressMode(BLE_UART_RX_ADDRESS_MODE);
 119:.\Generated_Source\PSoC5/BLE_UART.c ****             BLE_UART_SetRxAddress1(BLE_UART_RX_HW_ADDRESS1);
 120:.\Generated_Source\PSoC5/BLE_UART.c ****             BLE_UART_SetRxAddress2(BLE_UART_RX_HW_ADDRESS2);
 121:.\Generated_Source\PSoC5/BLE_UART.c ****         #endif /* End BLE_UART_RXHW_ADDRESS_ENABLED */
 122:.\Generated_Source\PSoC5/BLE_UART.c **** 
 123:.\Generated_Source\PSoC5/BLE_UART.c ****         /* Init Count7 period */
 124:.\Generated_Source\PSoC5/BLE_UART.c ****         BLE_UART_RXBITCTR_PERIOD_REG = BLE_UART_RXBITCTR_INIT;
  32              		.loc 1 124 0
  33 0000 7222     		movs	r2, #114
  34 0002 034B     		ldr	r3, .L2
  35 0004 1A70     		strb	r2, [r3]
 125:.\Generated_Source\PSoC5/BLE_UART.c ****         /* Configure the Initial RX interrupt mask */
 126:.\Generated_Source\PSoC5/BLE_UART.c ****         BLE_UART_RXSTATUS_MASK_REG  = BLE_UART_INIT_RX_INTERRUPTS_MASK;
  36              		.loc 1 126 0
  37 0006 2022     		movs	r2, #32
  38 0008 0233     		adds	r3, r3, #2
  39 000a 1A70     		strb	r2, [r3]
  40 000c 7047     		bx	lr
  41              	.L3:
  42 000e 00BF     		.align	2
  43              	.L2:
  44 0010 8B640040 		.word	1073767563
  45              		.cfi_endproc
ARM GAS  C:\Users\User\AppData\Local\Temp\cc4Asa41.s 			page 4


  46              	.LFE1:
  47              		.size	BLE_UART_Init, .-BLE_UART_Init
  48              		.section	.text.BLE_UART_Enable,"ax",%progbits
  49              		.align	2
  50              		.global	BLE_UART_Enable
  51              		.thumb
  52              		.thumb_func
  53              		.type	BLE_UART_Enable, %function
  54              	BLE_UART_Enable:
  55              	.LFB2:
 127:.\Generated_Source\PSoC5/BLE_UART.c ****     #endif /* End BLE_UART_RX_ENABLED || BLE_UART_HD_ENABLED*/
 128:.\Generated_Source\PSoC5/BLE_UART.c **** 
 129:.\Generated_Source\PSoC5/BLE_UART.c ****     #if(BLE_UART_TX_ENABLED)
 130:.\Generated_Source\PSoC5/BLE_UART.c ****         #if (BLE_UART_TX_INTERRUPT_ENABLED)
 131:.\Generated_Source\PSoC5/BLE_UART.c ****             /* Set TX interrupt vector and priority */
 132:.\Generated_Source\PSoC5/BLE_UART.c ****             (void) CyIntSetVector(BLE_UART_TX_VECT_NUM, &BLE_UART_TXISR);
 133:.\Generated_Source\PSoC5/BLE_UART.c ****             CyIntSetPriority(BLE_UART_TX_VECT_NUM, BLE_UART_TX_PRIOR_NUM);
 134:.\Generated_Source\PSoC5/BLE_UART.c ****         #endif /* (BLE_UART_TX_INTERRUPT_ENABLED) */
 135:.\Generated_Source\PSoC5/BLE_UART.c **** 
 136:.\Generated_Source\PSoC5/BLE_UART.c ****         /* Write Counter Value for TX Bit Clk Generator*/
 137:.\Generated_Source\PSoC5/BLE_UART.c ****         #if (BLE_UART_TXCLKGEN_DP)
 138:.\Generated_Source\PSoC5/BLE_UART.c ****             BLE_UART_TXBITCLKGEN_CTR_REG = BLE_UART_BIT_CENTER;
 139:.\Generated_Source\PSoC5/BLE_UART.c ****             BLE_UART_TXBITCLKTX_COMPLETE_REG = ((BLE_UART_NUMBER_OF_DATA_BITS +
 140:.\Generated_Source\PSoC5/BLE_UART.c ****                         BLE_UART_NUMBER_OF_START_BIT) * BLE_UART_OVER_SAMPLE_COUNT) - 1u;
 141:.\Generated_Source\PSoC5/BLE_UART.c ****         #else
 142:.\Generated_Source\PSoC5/BLE_UART.c ****             BLE_UART_TXBITCTR_PERIOD_REG = ((BLE_UART_NUMBER_OF_DATA_BITS +
 143:.\Generated_Source\PSoC5/BLE_UART.c ****                         BLE_UART_NUMBER_OF_START_BIT) * BLE_UART_OVER_SAMPLE_8) - 1u;
 144:.\Generated_Source\PSoC5/BLE_UART.c ****         #endif /* End BLE_UART_TXCLKGEN_DP */
 145:.\Generated_Source\PSoC5/BLE_UART.c **** 
 146:.\Generated_Source\PSoC5/BLE_UART.c ****         /* Configure the Initial TX interrupt mask */
 147:.\Generated_Source\PSoC5/BLE_UART.c ****         #if (BLE_UART_TX_INTERRUPT_ENABLED)
 148:.\Generated_Source\PSoC5/BLE_UART.c ****             BLE_UART_TXSTATUS_MASK_REG = BLE_UART_TX_STS_FIFO_EMPTY;
 149:.\Generated_Source\PSoC5/BLE_UART.c ****         #else
 150:.\Generated_Source\PSoC5/BLE_UART.c ****             BLE_UART_TXSTATUS_MASK_REG = BLE_UART_INIT_TX_INTERRUPTS_MASK;
 151:.\Generated_Source\PSoC5/BLE_UART.c ****         #endif /*End BLE_UART_TX_INTERRUPT_ENABLED*/
 152:.\Generated_Source\PSoC5/BLE_UART.c **** 
 153:.\Generated_Source\PSoC5/BLE_UART.c ****     #endif /* End BLE_UART_TX_ENABLED */
 154:.\Generated_Source\PSoC5/BLE_UART.c **** 
 155:.\Generated_Source\PSoC5/BLE_UART.c ****     #if(BLE_UART_PARITY_TYPE_SW)  /* Write Parity to Control Register */
 156:.\Generated_Source\PSoC5/BLE_UART.c ****         BLE_UART_WriteControlRegister( \
 157:.\Generated_Source\PSoC5/BLE_UART.c ****             (BLE_UART_ReadControlRegister() & (uint8)~BLE_UART_CTRL_PARITY_TYPE_MASK) | \
 158:.\Generated_Source\PSoC5/BLE_UART.c ****             (uint8)(BLE_UART_PARITY_TYPE << BLE_UART_CTRL_PARITY_TYPE0_SHIFT) );
 159:.\Generated_Source\PSoC5/BLE_UART.c ****     #endif /* End BLE_UART_PARITY_TYPE_SW */
 160:.\Generated_Source\PSoC5/BLE_UART.c **** }
 161:.\Generated_Source\PSoC5/BLE_UART.c **** 
 162:.\Generated_Source\PSoC5/BLE_UART.c **** 
 163:.\Generated_Source\PSoC5/BLE_UART.c **** /*******************************************************************************
 164:.\Generated_Source\PSoC5/BLE_UART.c **** * Function Name: BLE_UART_Enable
 165:.\Generated_Source\PSoC5/BLE_UART.c **** ********************************************************************************
 166:.\Generated_Source\PSoC5/BLE_UART.c **** *
 167:.\Generated_Source\PSoC5/BLE_UART.c **** * Summary:
 168:.\Generated_Source\PSoC5/BLE_UART.c **** *  Activates the hardware and begins component operation. It is not necessary
 169:.\Generated_Source\PSoC5/BLE_UART.c **** *  to call BLE_UART_Enable() because the BLE_UART_Start() API
 170:.\Generated_Source\PSoC5/BLE_UART.c **** *  calls this function, which is the preferred method to begin component
 171:.\Generated_Source\PSoC5/BLE_UART.c **** *  operation.
 172:.\Generated_Source\PSoC5/BLE_UART.c **** 
 173:.\Generated_Source\PSoC5/BLE_UART.c **** * Parameters:
ARM GAS  C:\Users\User\AppData\Local\Temp\cc4Asa41.s 			page 5


 174:.\Generated_Source\PSoC5/BLE_UART.c **** *  None.
 175:.\Generated_Source\PSoC5/BLE_UART.c **** *
 176:.\Generated_Source\PSoC5/BLE_UART.c **** * Return:
 177:.\Generated_Source\PSoC5/BLE_UART.c **** *  None.
 178:.\Generated_Source\PSoC5/BLE_UART.c **** *
 179:.\Generated_Source\PSoC5/BLE_UART.c **** * Global Variables:
 180:.\Generated_Source\PSoC5/BLE_UART.c **** *  BLE_UART_rxAddressDetected - set to initial state (0).
 181:.\Generated_Source\PSoC5/BLE_UART.c **** *
 182:.\Generated_Source\PSoC5/BLE_UART.c **** *******************************************************************************/
 183:.\Generated_Source\PSoC5/BLE_UART.c **** void BLE_UART_Enable(void) 
 184:.\Generated_Source\PSoC5/BLE_UART.c **** {
  56              		.loc 1 184 0
  57              		.cfi_startproc
  58              		@ args = 0, pretend = 0, frame = 0
  59              		@ frame_needed = 0, uses_anonymous_args = 0
  60 0000 10B5     		push	{r4, lr}
  61              		.cfi_def_cfa_offset 8
  62              		.cfi_offset 4, -8
  63              		.cfi_offset 14, -4
 185:.\Generated_Source\PSoC5/BLE_UART.c ****     uint8 enableInterrupts;
 186:.\Generated_Source\PSoC5/BLE_UART.c ****     enableInterrupts = CyEnterCriticalSection();
  64              		.loc 1 186 0
  65 0002 FFF7FEFF 		bl	CyEnterCriticalSection
  66              	.LVL0:
  67 0006 0446     		mov	r4, r0
  68              	.LVL1:
 187:.\Generated_Source\PSoC5/BLE_UART.c **** 
 188:.\Generated_Source\PSoC5/BLE_UART.c ****     #if (BLE_UART_RX_ENABLED || BLE_UART_HD_ENABLED)
 189:.\Generated_Source\PSoC5/BLE_UART.c ****         /* RX Counter (Count7) Enable */
 190:.\Generated_Source\PSoC5/BLE_UART.c ****         BLE_UART_RXBITCTR_CONTROL_REG |= BLE_UART_CNTR_ENABLE;
  69              		.loc 1 190 0
  70 0008 074A     		ldr	r2, .L6
  71 000a 1378     		ldrb	r3, [r2]	@ zero_extendqisi2
  72 000c 43F02003 		orr	r3, r3, #32
  73 0010 1370     		strb	r3, [r2]
 191:.\Generated_Source\PSoC5/BLE_UART.c **** 
 192:.\Generated_Source\PSoC5/BLE_UART.c ****         /* Enable the RX Interrupt */
 193:.\Generated_Source\PSoC5/BLE_UART.c ****         BLE_UART_RXSTATUS_ACTL_REG  |= BLE_UART_INT_ENABLE;
  74              		.loc 1 193 0
  75 0012 0232     		adds	r2, r2, #2
  76 0014 1378     		ldrb	r3, [r2]	@ zero_extendqisi2
  77 0016 43F01003 		orr	r3, r3, #16
  78 001a 1370     		strb	r3, [r2]
 194:.\Generated_Source\PSoC5/BLE_UART.c **** 
 195:.\Generated_Source\PSoC5/BLE_UART.c ****         #if (BLE_UART_RX_INTERRUPT_ENABLED)
 196:.\Generated_Source\PSoC5/BLE_UART.c ****             BLE_UART_EnableRxInt();
 197:.\Generated_Source\PSoC5/BLE_UART.c **** 
 198:.\Generated_Source\PSoC5/BLE_UART.c ****             #if (BLE_UART_RXHW_ADDRESS_ENABLED)
 199:.\Generated_Source\PSoC5/BLE_UART.c ****                 BLE_UART_rxAddressDetected = 0u;
 200:.\Generated_Source\PSoC5/BLE_UART.c ****             #endif /* (BLE_UART_RXHW_ADDRESS_ENABLED) */
 201:.\Generated_Source\PSoC5/BLE_UART.c ****         #endif /* (BLE_UART_RX_INTERRUPT_ENABLED) */
 202:.\Generated_Source\PSoC5/BLE_UART.c ****     #endif /* (BLE_UART_RX_ENABLED || BLE_UART_HD_ENABLED) */
 203:.\Generated_Source\PSoC5/BLE_UART.c **** 
 204:.\Generated_Source\PSoC5/BLE_UART.c ****     #if(BLE_UART_TX_ENABLED)
 205:.\Generated_Source\PSoC5/BLE_UART.c ****         /* TX Counter (DP/Count7) Enable */
 206:.\Generated_Source\PSoC5/BLE_UART.c ****         #if(!BLE_UART_TXCLKGEN_DP)
 207:.\Generated_Source\PSoC5/BLE_UART.c ****             BLE_UART_TXBITCTR_CONTROL_REG |= BLE_UART_CNTR_ENABLE;
ARM GAS  C:\Users\User\AppData\Local\Temp\cc4Asa41.s 			page 6


 208:.\Generated_Source\PSoC5/BLE_UART.c ****         #endif /* End BLE_UART_TXCLKGEN_DP */
 209:.\Generated_Source\PSoC5/BLE_UART.c **** 
 210:.\Generated_Source\PSoC5/BLE_UART.c ****         /* Enable the TX Interrupt */
 211:.\Generated_Source\PSoC5/BLE_UART.c ****         BLE_UART_TXSTATUS_ACTL_REG |= BLE_UART_INT_ENABLE;
 212:.\Generated_Source\PSoC5/BLE_UART.c ****         #if (BLE_UART_TX_INTERRUPT_ENABLED)
 213:.\Generated_Source\PSoC5/BLE_UART.c ****             BLE_UART_ClearPendingTxInt(); /* Clear history of TX_NOT_EMPTY */
 214:.\Generated_Source\PSoC5/BLE_UART.c ****             BLE_UART_EnableTxInt();
 215:.\Generated_Source\PSoC5/BLE_UART.c ****         #endif /* (BLE_UART_TX_INTERRUPT_ENABLED) */
 216:.\Generated_Source\PSoC5/BLE_UART.c ****      #endif /* (BLE_UART_TX_INTERRUPT_ENABLED) */
 217:.\Generated_Source\PSoC5/BLE_UART.c **** 
 218:.\Generated_Source\PSoC5/BLE_UART.c ****     #if (BLE_UART_INTERNAL_CLOCK_USED)
 219:.\Generated_Source\PSoC5/BLE_UART.c ****         BLE_UART_IntClock_Start();  /* Enable the clock */
  79              		.loc 1 219 0
  80 001c FFF7FEFF 		bl	BLE_UART_IntClock_Start
  81              	.LVL2:
 220:.\Generated_Source\PSoC5/BLE_UART.c ****     #endif /* (BLE_UART_INTERNAL_CLOCK_USED) */
 221:.\Generated_Source\PSoC5/BLE_UART.c **** 
 222:.\Generated_Source\PSoC5/BLE_UART.c ****     CyExitCriticalSection(enableInterrupts);
  82              		.loc 1 222 0
  83 0020 2046     		mov	r0, r4
  84 0022 FFF7FEFF 		bl	CyExitCriticalSection
  85              	.LVL3:
  86 0026 10BD     		pop	{r4, pc}
  87              	.LVL4:
  88              	.L7:
  89              		.align	2
  90              	.L6:
  91 0028 9B640040 		.word	1073767579
  92              		.cfi_endproc
  93              	.LFE2:
  94              		.size	BLE_UART_Enable, .-BLE_UART_Enable
  95              		.section	.text.BLE_UART_Start,"ax",%progbits
  96              		.align	2
  97              		.global	BLE_UART_Start
  98              		.thumb
  99              		.thumb_func
 100              		.type	BLE_UART_Start, %function
 101              	BLE_UART_Start:
 102              	.LFB0:
  77:.\Generated_Source\PSoC5/BLE_UART.c ****     /* If not initialized then initialize all required hardware and software */
 103              		.loc 1 77 0
 104              		.cfi_startproc
 105              		@ args = 0, pretend = 0, frame = 0
 106              		@ frame_needed = 0, uses_anonymous_args = 0
 107 0000 08B5     		push	{r3, lr}
 108              		.cfi_def_cfa_offset 8
 109              		.cfi_offset 3, -8
 110              		.cfi_offset 14, -4
  79:.\Generated_Source\PSoC5/BLE_UART.c ****     {
 111              		.loc 1 79 0
 112 0002 054B     		ldr	r3, .L11
 113 0004 1B78     		ldrb	r3, [r3]	@ zero_extendqisi2
 114 0006 23B9     		cbnz	r3, .L9
  81:.\Generated_Source\PSoC5/BLE_UART.c ****         BLE_UART_initVar = 1u;
 115              		.loc 1 81 0
 116 0008 FFF7FEFF 		bl	BLE_UART_Init
 117              	.LVL5:
ARM GAS  C:\Users\User\AppData\Local\Temp\cc4Asa41.s 			page 7


  82:.\Generated_Source\PSoC5/BLE_UART.c ****     }
 118              		.loc 1 82 0
 119 000c 0122     		movs	r2, #1
 120 000e 024B     		ldr	r3, .L11
 121 0010 1A70     		strb	r2, [r3]
 122              	.L9:
  85:.\Generated_Source\PSoC5/BLE_UART.c **** }
 123              		.loc 1 85 0
 124 0012 FFF7FEFF 		bl	BLE_UART_Enable
 125              	.LVL6:
 126 0016 08BD     		pop	{r3, pc}
 127              	.L12:
 128              		.align	2
 129              	.L11:
 130 0018 00000000 		.word	.LANCHOR0
 131              		.cfi_endproc
 132              	.LFE0:
 133              		.size	BLE_UART_Start, .-BLE_UART_Start
 134              		.section	.text.BLE_UART_Stop,"ax",%progbits
 135              		.align	2
 136              		.global	BLE_UART_Stop
 137              		.thumb
 138              		.thumb_func
 139              		.type	BLE_UART_Stop, %function
 140              	BLE_UART_Stop:
 141              	.LFB3:
 223:.\Generated_Source\PSoC5/BLE_UART.c **** }
 224:.\Generated_Source\PSoC5/BLE_UART.c **** 
 225:.\Generated_Source\PSoC5/BLE_UART.c **** 
 226:.\Generated_Source\PSoC5/BLE_UART.c **** /*******************************************************************************
 227:.\Generated_Source\PSoC5/BLE_UART.c **** * Function Name: BLE_UART_Stop
 228:.\Generated_Source\PSoC5/BLE_UART.c **** ********************************************************************************
 229:.\Generated_Source\PSoC5/BLE_UART.c **** *
 230:.\Generated_Source\PSoC5/BLE_UART.c **** * Summary:
 231:.\Generated_Source\PSoC5/BLE_UART.c **** *  Disables the UART operation.
 232:.\Generated_Source\PSoC5/BLE_UART.c **** *
 233:.\Generated_Source\PSoC5/BLE_UART.c **** * Parameters:
 234:.\Generated_Source\PSoC5/BLE_UART.c **** *  None.
 235:.\Generated_Source\PSoC5/BLE_UART.c **** *
 236:.\Generated_Source\PSoC5/BLE_UART.c **** * Return:
 237:.\Generated_Source\PSoC5/BLE_UART.c **** *  None.
 238:.\Generated_Source\PSoC5/BLE_UART.c **** *
 239:.\Generated_Source\PSoC5/BLE_UART.c **** *******************************************************************************/
 240:.\Generated_Source\PSoC5/BLE_UART.c **** void BLE_UART_Stop(void) 
 241:.\Generated_Source\PSoC5/BLE_UART.c **** {
 142              		.loc 1 241 0
 143              		.cfi_startproc
 144              		@ args = 0, pretend = 0, frame = 0
 145              		@ frame_needed = 0, uses_anonymous_args = 0
 146 0000 10B5     		push	{r4, lr}
 147              		.cfi_def_cfa_offset 8
 148              		.cfi_offset 4, -8
 149              		.cfi_offset 14, -4
 242:.\Generated_Source\PSoC5/BLE_UART.c ****     uint8 enableInterrupts;
 243:.\Generated_Source\PSoC5/BLE_UART.c ****     enableInterrupts = CyEnterCriticalSection();
 150              		.loc 1 243 0
 151 0002 FFF7FEFF 		bl	CyEnterCriticalSection
ARM GAS  C:\Users\User\AppData\Local\Temp\cc4Asa41.s 			page 8


 152              	.LVL7:
 153 0006 0446     		mov	r4, r0
 154              	.LVL8:
 244:.\Generated_Source\PSoC5/BLE_UART.c **** 
 245:.\Generated_Source\PSoC5/BLE_UART.c ****     /* Write Bit Counter Disable */
 246:.\Generated_Source\PSoC5/BLE_UART.c ****     #if (BLE_UART_RX_ENABLED || BLE_UART_HD_ENABLED)
 247:.\Generated_Source\PSoC5/BLE_UART.c ****         BLE_UART_RXBITCTR_CONTROL_REG &= (uint8) ~BLE_UART_CNTR_ENABLE;
 155              		.loc 1 247 0
 156 0008 074A     		ldr	r2, .L15
 157 000a 1378     		ldrb	r3, [r2]	@ zero_extendqisi2
 158 000c 03F0DF03 		and	r3, r3, #223
 159 0010 1370     		strb	r3, [r2]
 248:.\Generated_Source\PSoC5/BLE_UART.c ****     #endif /* (BLE_UART_RX_ENABLED || BLE_UART_HD_ENABLED) */
 249:.\Generated_Source\PSoC5/BLE_UART.c **** 
 250:.\Generated_Source\PSoC5/BLE_UART.c ****     #if (BLE_UART_TX_ENABLED)
 251:.\Generated_Source\PSoC5/BLE_UART.c ****         #if(!BLE_UART_TXCLKGEN_DP)
 252:.\Generated_Source\PSoC5/BLE_UART.c ****             BLE_UART_TXBITCTR_CONTROL_REG &= (uint8) ~BLE_UART_CNTR_ENABLE;
 253:.\Generated_Source\PSoC5/BLE_UART.c ****         #endif /* (!BLE_UART_TXCLKGEN_DP) */
 254:.\Generated_Source\PSoC5/BLE_UART.c ****     #endif /* (BLE_UART_TX_ENABLED) */
 255:.\Generated_Source\PSoC5/BLE_UART.c **** 
 256:.\Generated_Source\PSoC5/BLE_UART.c ****     #if (BLE_UART_INTERNAL_CLOCK_USED)
 257:.\Generated_Source\PSoC5/BLE_UART.c ****         BLE_UART_IntClock_Stop();   /* Disable the clock */
 160              		.loc 1 257 0
 161 0012 FFF7FEFF 		bl	BLE_UART_IntClock_Stop
 162              	.LVL9:
 258:.\Generated_Source\PSoC5/BLE_UART.c ****     #endif /* (BLE_UART_INTERNAL_CLOCK_USED) */
 259:.\Generated_Source\PSoC5/BLE_UART.c **** 
 260:.\Generated_Source\PSoC5/BLE_UART.c ****     /* Disable internal interrupt component */
 261:.\Generated_Source\PSoC5/BLE_UART.c ****     #if (BLE_UART_RX_ENABLED || BLE_UART_HD_ENABLED)
 262:.\Generated_Source\PSoC5/BLE_UART.c ****         BLE_UART_RXSTATUS_ACTL_REG  &= (uint8) ~BLE_UART_INT_ENABLE;
 163              		.loc 1 262 0
 164 0016 054A     		ldr	r2, .L15+4
 165 0018 1378     		ldrb	r3, [r2]	@ zero_extendqisi2
 166 001a 03F0EF03 		and	r3, r3, #239
 167 001e 1370     		strb	r3, [r2]
 263:.\Generated_Source\PSoC5/BLE_UART.c **** 
 264:.\Generated_Source\PSoC5/BLE_UART.c ****         #if (BLE_UART_RX_INTERRUPT_ENABLED)
 265:.\Generated_Source\PSoC5/BLE_UART.c ****             BLE_UART_DisableRxInt();
 266:.\Generated_Source\PSoC5/BLE_UART.c ****         #endif /* (BLE_UART_RX_INTERRUPT_ENABLED) */
 267:.\Generated_Source\PSoC5/BLE_UART.c ****     #endif /* (BLE_UART_RX_ENABLED || BLE_UART_HD_ENABLED) */
 268:.\Generated_Source\PSoC5/BLE_UART.c **** 
 269:.\Generated_Source\PSoC5/BLE_UART.c ****     #if (BLE_UART_TX_ENABLED)
 270:.\Generated_Source\PSoC5/BLE_UART.c ****         BLE_UART_TXSTATUS_ACTL_REG &= (uint8) ~BLE_UART_INT_ENABLE;
 271:.\Generated_Source\PSoC5/BLE_UART.c **** 
 272:.\Generated_Source\PSoC5/BLE_UART.c ****         #if (BLE_UART_TX_INTERRUPT_ENABLED)
 273:.\Generated_Source\PSoC5/BLE_UART.c ****             BLE_UART_DisableTxInt();
 274:.\Generated_Source\PSoC5/BLE_UART.c ****         #endif /* (BLE_UART_TX_INTERRUPT_ENABLED) */
 275:.\Generated_Source\PSoC5/BLE_UART.c ****     #endif /* (BLE_UART_TX_ENABLED) */
 276:.\Generated_Source\PSoC5/BLE_UART.c **** 
 277:.\Generated_Source\PSoC5/BLE_UART.c ****     CyExitCriticalSection(enableInterrupts);
 168              		.loc 1 277 0
 169 0020 2046     		mov	r0, r4
 170 0022 FFF7FEFF 		bl	CyExitCriticalSection
 171              	.LVL10:
 172 0026 10BD     		pop	{r4, pc}
 173              	.LVL11:
 174              	.L16:
ARM GAS  C:\Users\User\AppData\Local\Temp\cc4Asa41.s 			page 9


 175              		.align	2
 176              	.L15:
 177 0028 9B640040 		.word	1073767579
 178 002c 9D640040 		.word	1073767581
 179              		.cfi_endproc
 180              	.LFE3:
 181              		.size	BLE_UART_Stop, .-BLE_UART_Stop
 182              		.section	.text.BLE_UART_ReadControlRegister,"ax",%progbits
 183              		.align	2
 184              		.global	BLE_UART_ReadControlRegister
 185              		.thumb
 186              		.thumb_func
 187              		.type	BLE_UART_ReadControlRegister, %function
 188              	BLE_UART_ReadControlRegister:
 189              	.LFB4:
 278:.\Generated_Source\PSoC5/BLE_UART.c **** }
 279:.\Generated_Source\PSoC5/BLE_UART.c **** 
 280:.\Generated_Source\PSoC5/BLE_UART.c **** 
 281:.\Generated_Source\PSoC5/BLE_UART.c **** /*******************************************************************************
 282:.\Generated_Source\PSoC5/BLE_UART.c **** * Function Name: BLE_UART_ReadControlRegister
 283:.\Generated_Source\PSoC5/BLE_UART.c **** ********************************************************************************
 284:.\Generated_Source\PSoC5/BLE_UART.c **** *
 285:.\Generated_Source\PSoC5/BLE_UART.c **** * Summary:
 286:.\Generated_Source\PSoC5/BLE_UART.c **** *  Returns the current value of the control register.
 287:.\Generated_Source\PSoC5/BLE_UART.c **** *
 288:.\Generated_Source\PSoC5/BLE_UART.c **** * Parameters:
 289:.\Generated_Source\PSoC5/BLE_UART.c **** *  None.
 290:.\Generated_Source\PSoC5/BLE_UART.c **** *
 291:.\Generated_Source\PSoC5/BLE_UART.c **** * Return:
 292:.\Generated_Source\PSoC5/BLE_UART.c **** *  Contents of the control register.
 293:.\Generated_Source\PSoC5/BLE_UART.c **** *
 294:.\Generated_Source\PSoC5/BLE_UART.c **** *******************************************************************************/
 295:.\Generated_Source\PSoC5/BLE_UART.c **** uint8 BLE_UART_ReadControlRegister(void) 
 296:.\Generated_Source\PSoC5/BLE_UART.c **** {
 190              		.loc 1 296 0
 191              		.cfi_startproc
 192              		@ args = 0, pretend = 0, frame = 0
 193              		@ frame_needed = 0, uses_anonymous_args = 0
 194              		@ link register save eliminated.
 297:.\Generated_Source\PSoC5/BLE_UART.c ****     #if (BLE_UART_CONTROL_REG_REMOVED)
 298:.\Generated_Source\PSoC5/BLE_UART.c ****         return(0u);
 299:.\Generated_Source\PSoC5/BLE_UART.c ****     #else
 300:.\Generated_Source\PSoC5/BLE_UART.c ****         return(BLE_UART_CONTROL_REG);
 301:.\Generated_Source\PSoC5/BLE_UART.c ****     #endif /* (BLE_UART_CONTROL_REG_REMOVED) */
 302:.\Generated_Source\PSoC5/BLE_UART.c **** }
 195              		.loc 1 302 0
 196 0000 0020     		movs	r0, #0
 197 0002 7047     		bx	lr
 198              		.cfi_endproc
 199              	.LFE4:
 200              		.size	BLE_UART_ReadControlRegister, .-BLE_UART_ReadControlRegister
 201              		.section	.text.BLE_UART_WriteControlRegister,"ax",%progbits
 202              		.align	2
 203              		.global	BLE_UART_WriteControlRegister
 204              		.thumb
 205              		.thumb_func
 206              		.type	BLE_UART_WriteControlRegister, %function
ARM GAS  C:\Users\User\AppData\Local\Temp\cc4Asa41.s 			page 10


 207              	BLE_UART_WriteControlRegister:
 208              	.LFB5:
 303:.\Generated_Source\PSoC5/BLE_UART.c **** 
 304:.\Generated_Source\PSoC5/BLE_UART.c **** 
 305:.\Generated_Source\PSoC5/BLE_UART.c **** /*******************************************************************************
 306:.\Generated_Source\PSoC5/BLE_UART.c **** * Function Name: BLE_UART_WriteControlRegister
 307:.\Generated_Source\PSoC5/BLE_UART.c **** ********************************************************************************
 308:.\Generated_Source\PSoC5/BLE_UART.c **** *
 309:.\Generated_Source\PSoC5/BLE_UART.c **** * Summary:
 310:.\Generated_Source\PSoC5/BLE_UART.c **** *  Writes an 8-bit value into the control register
 311:.\Generated_Source\PSoC5/BLE_UART.c **** *
 312:.\Generated_Source\PSoC5/BLE_UART.c **** * Parameters:
 313:.\Generated_Source\PSoC5/BLE_UART.c **** *  control:  control register value
 314:.\Generated_Source\PSoC5/BLE_UART.c **** *
 315:.\Generated_Source\PSoC5/BLE_UART.c **** * Return:
 316:.\Generated_Source\PSoC5/BLE_UART.c **** *  None.
 317:.\Generated_Source\PSoC5/BLE_UART.c **** *
 318:.\Generated_Source\PSoC5/BLE_UART.c **** *******************************************************************************/
 319:.\Generated_Source\PSoC5/BLE_UART.c **** void  BLE_UART_WriteControlRegister(uint8 control) 
 320:.\Generated_Source\PSoC5/BLE_UART.c **** {
 209              		.loc 1 320 0
 210              		.cfi_startproc
 211              		@ args = 0, pretend = 0, frame = 0
 212              		@ frame_needed = 0, uses_anonymous_args = 0
 213              		@ link register save eliminated.
 214              	.LVL12:
 215 0000 7047     		bx	lr
 216              		.cfi_endproc
 217              	.LFE5:
 218              		.size	BLE_UART_WriteControlRegister, .-BLE_UART_WriteControlRegister
 219 0002 00BF     		.section	.text.BLE_UART_SetRxInterruptMode,"ax",%progbits
 220              		.align	2
 221              		.global	BLE_UART_SetRxInterruptMode
 222              		.thumb
 223              		.thumb_func
 224              		.type	BLE_UART_SetRxInterruptMode, %function
 225              	BLE_UART_SetRxInterruptMode:
 226              	.LFB6:
 321:.\Generated_Source\PSoC5/BLE_UART.c ****     #if (BLE_UART_CONTROL_REG_REMOVED)
 322:.\Generated_Source\PSoC5/BLE_UART.c ****         if(0u != control)
 323:.\Generated_Source\PSoC5/BLE_UART.c ****         {
 324:.\Generated_Source\PSoC5/BLE_UART.c ****             /* Suppress compiler warning */
 325:.\Generated_Source\PSoC5/BLE_UART.c ****         }
 326:.\Generated_Source\PSoC5/BLE_UART.c ****     #else
 327:.\Generated_Source\PSoC5/BLE_UART.c ****        BLE_UART_CONTROL_REG = control;
 328:.\Generated_Source\PSoC5/BLE_UART.c ****     #endif /* (BLE_UART_CONTROL_REG_REMOVED) */
 329:.\Generated_Source\PSoC5/BLE_UART.c **** }
 330:.\Generated_Source\PSoC5/BLE_UART.c **** 
 331:.\Generated_Source\PSoC5/BLE_UART.c **** 
 332:.\Generated_Source\PSoC5/BLE_UART.c **** #if(BLE_UART_RX_ENABLED || BLE_UART_HD_ENABLED)
 333:.\Generated_Source\PSoC5/BLE_UART.c ****     /*******************************************************************************
 334:.\Generated_Source\PSoC5/BLE_UART.c ****     * Function Name: BLE_UART_SetRxInterruptMode
 335:.\Generated_Source\PSoC5/BLE_UART.c ****     ********************************************************************************
 336:.\Generated_Source\PSoC5/BLE_UART.c ****     *
 337:.\Generated_Source\PSoC5/BLE_UART.c ****     * Summary:
 338:.\Generated_Source\PSoC5/BLE_UART.c ****     *  Configures the RX interrupt sources enabled.
 339:.\Generated_Source\PSoC5/BLE_UART.c ****     *
ARM GAS  C:\Users\User\AppData\Local\Temp\cc4Asa41.s 			page 11


 340:.\Generated_Source\PSoC5/BLE_UART.c ****     * Parameters:
 341:.\Generated_Source\PSoC5/BLE_UART.c ****     *  IntSrc:  Bit field containing the RX interrupts to enable. Based on the 
 342:.\Generated_Source\PSoC5/BLE_UART.c ****     *  bit-field arrangement of the status register. This value must be a 
 343:.\Generated_Source\PSoC5/BLE_UART.c ****     *  combination of status register bit-masks shown below:
 344:.\Generated_Source\PSoC5/BLE_UART.c ****     *      BLE_UART_RX_STS_FIFO_NOTEMPTY    Interrupt on byte received.
 345:.\Generated_Source\PSoC5/BLE_UART.c ****     *      BLE_UART_RX_STS_PAR_ERROR        Interrupt on parity error.
 346:.\Generated_Source\PSoC5/BLE_UART.c ****     *      BLE_UART_RX_STS_STOP_ERROR       Interrupt on stop error.
 347:.\Generated_Source\PSoC5/BLE_UART.c ****     *      BLE_UART_RX_STS_BREAK            Interrupt on break.
 348:.\Generated_Source\PSoC5/BLE_UART.c ****     *      BLE_UART_RX_STS_OVERRUN          Interrupt on overrun error.
 349:.\Generated_Source\PSoC5/BLE_UART.c ****     *      BLE_UART_RX_STS_ADDR_MATCH       Interrupt on address match.
 350:.\Generated_Source\PSoC5/BLE_UART.c ****     *      BLE_UART_RX_STS_MRKSPC           Interrupt on address detect.
 351:.\Generated_Source\PSoC5/BLE_UART.c ****     *
 352:.\Generated_Source\PSoC5/BLE_UART.c ****     * Return:
 353:.\Generated_Source\PSoC5/BLE_UART.c ****     *  None.
 354:.\Generated_Source\PSoC5/BLE_UART.c ****     *
 355:.\Generated_Source\PSoC5/BLE_UART.c ****     * Theory:
 356:.\Generated_Source\PSoC5/BLE_UART.c ****     *  Enables the output of specific status bits to the interrupt controller
 357:.\Generated_Source\PSoC5/BLE_UART.c ****     *
 358:.\Generated_Source\PSoC5/BLE_UART.c ****     *******************************************************************************/
 359:.\Generated_Source\PSoC5/BLE_UART.c ****     void BLE_UART_SetRxInterruptMode(uint8 intSrc) 
 360:.\Generated_Source\PSoC5/BLE_UART.c ****     {
 227              		.loc 1 360 0
 228              		.cfi_startproc
 229              		@ args = 0, pretend = 0, frame = 0
 230              		@ frame_needed = 0, uses_anonymous_args = 0
 231              		@ link register save eliminated.
 232              	.LVL13:
 361:.\Generated_Source\PSoC5/BLE_UART.c ****         BLE_UART_RXSTATUS_MASK_REG  = intSrc;
 233              		.loc 1 361 0
 234 0000 014B     		ldr	r3, .L20
 235 0002 1870     		strb	r0, [r3]
 236 0004 7047     		bx	lr
 237              	.L21:
 238 0006 00BF     		.align	2
 239              	.L20:
 240 0008 8D640040 		.word	1073767565
 241              		.cfi_endproc
 242              	.LFE6:
 243              		.size	BLE_UART_SetRxInterruptMode, .-BLE_UART_SetRxInterruptMode
 244              		.section	.text.BLE_UART_ReadRxData,"ax",%progbits
 245              		.align	2
 246              		.global	BLE_UART_ReadRxData
 247              		.thumb
 248              		.thumb_func
 249              		.type	BLE_UART_ReadRxData, %function
 250              	BLE_UART_ReadRxData:
 251              	.LFB7:
 362:.\Generated_Source\PSoC5/BLE_UART.c ****     }
 363:.\Generated_Source\PSoC5/BLE_UART.c **** 
 364:.\Generated_Source\PSoC5/BLE_UART.c **** 
 365:.\Generated_Source\PSoC5/BLE_UART.c ****     /*******************************************************************************
 366:.\Generated_Source\PSoC5/BLE_UART.c ****     * Function Name: BLE_UART_ReadRxData
 367:.\Generated_Source\PSoC5/BLE_UART.c ****     ********************************************************************************
 368:.\Generated_Source\PSoC5/BLE_UART.c ****     *
 369:.\Generated_Source\PSoC5/BLE_UART.c ****     * Summary:
 370:.\Generated_Source\PSoC5/BLE_UART.c ****     *  Returns the next byte of received data. This function returns data without
 371:.\Generated_Source\PSoC5/BLE_UART.c ****     *  checking the status. You must check the status separately.
ARM GAS  C:\Users\User\AppData\Local\Temp\cc4Asa41.s 			page 12


 372:.\Generated_Source\PSoC5/BLE_UART.c ****     *
 373:.\Generated_Source\PSoC5/BLE_UART.c ****     * Parameters:
 374:.\Generated_Source\PSoC5/BLE_UART.c ****     *  None.
 375:.\Generated_Source\PSoC5/BLE_UART.c ****     *
 376:.\Generated_Source\PSoC5/BLE_UART.c ****     * Return:
 377:.\Generated_Source\PSoC5/BLE_UART.c ****     *  Received data from RX register
 378:.\Generated_Source\PSoC5/BLE_UART.c ****     *
 379:.\Generated_Source\PSoC5/BLE_UART.c ****     * Global Variables:
 380:.\Generated_Source\PSoC5/BLE_UART.c ****     *  BLE_UART_rxBuffer - RAM buffer pointer for save received data.
 381:.\Generated_Source\PSoC5/BLE_UART.c ****     *  BLE_UART_rxBufferWrite - cyclic index for write to rxBuffer,
 382:.\Generated_Source\PSoC5/BLE_UART.c ****     *     checked to identify new data.
 383:.\Generated_Source\PSoC5/BLE_UART.c ****     *  BLE_UART_rxBufferRead - cyclic index for read from rxBuffer,
 384:.\Generated_Source\PSoC5/BLE_UART.c ****     *     incremented after each byte has been read from buffer.
 385:.\Generated_Source\PSoC5/BLE_UART.c ****     *  BLE_UART_rxBufferLoopDetect - cleared if loop condition was detected
 386:.\Generated_Source\PSoC5/BLE_UART.c ****     *     in RX ISR.
 387:.\Generated_Source\PSoC5/BLE_UART.c ****     *
 388:.\Generated_Source\PSoC5/BLE_UART.c ****     * Reentrant:
 389:.\Generated_Source\PSoC5/BLE_UART.c ****     *  No.
 390:.\Generated_Source\PSoC5/BLE_UART.c ****     *
 391:.\Generated_Source\PSoC5/BLE_UART.c ****     *******************************************************************************/
 392:.\Generated_Source\PSoC5/BLE_UART.c ****     uint8 BLE_UART_ReadRxData(void) 
 393:.\Generated_Source\PSoC5/BLE_UART.c ****     {
 252              		.loc 1 393 0
 253              		.cfi_startproc
 254              		@ args = 0, pretend = 0, frame = 0
 255              		@ frame_needed = 0, uses_anonymous_args = 0
 256              		@ link register save eliminated.
 394:.\Generated_Source\PSoC5/BLE_UART.c ****         uint8 rxData;
 395:.\Generated_Source\PSoC5/BLE_UART.c **** 
 396:.\Generated_Source\PSoC5/BLE_UART.c ****     #if (BLE_UART_RX_INTERRUPT_ENABLED)
 397:.\Generated_Source\PSoC5/BLE_UART.c **** 
 398:.\Generated_Source\PSoC5/BLE_UART.c ****         uint8 locRxBufferRead;
 399:.\Generated_Source\PSoC5/BLE_UART.c ****         uint8 locRxBufferWrite;
 400:.\Generated_Source\PSoC5/BLE_UART.c **** 
 401:.\Generated_Source\PSoC5/BLE_UART.c ****         /* Protect variables that could change on interrupt */
 402:.\Generated_Source\PSoC5/BLE_UART.c ****         BLE_UART_DisableRxInt();
 403:.\Generated_Source\PSoC5/BLE_UART.c **** 
 404:.\Generated_Source\PSoC5/BLE_UART.c ****         locRxBufferRead  = BLE_UART_rxBufferRead;
 405:.\Generated_Source\PSoC5/BLE_UART.c ****         locRxBufferWrite = BLE_UART_rxBufferWrite;
 406:.\Generated_Source\PSoC5/BLE_UART.c **** 
 407:.\Generated_Source\PSoC5/BLE_UART.c ****         if( (BLE_UART_rxBufferLoopDetect != 0u) || (locRxBufferRead != locRxBufferWrite) )
 408:.\Generated_Source\PSoC5/BLE_UART.c ****         {
 409:.\Generated_Source\PSoC5/BLE_UART.c ****             rxData = BLE_UART_rxBuffer[locRxBufferRead];
 410:.\Generated_Source\PSoC5/BLE_UART.c ****             locRxBufferRead++;
 411:.\Generated_Source\PSoC5/BLE_UART.c **** 
 412:.\Generated_Source\PSoC5/BLE_UART.c ****             if(locRxBufferRead >= BLE_UART_RX_BUFFER_SIZE)
 413:.\Generated_Source\PSoC5/BLE_UART.c ****             {
 414:.\Generated_Source\PSoC5/BLE_UART.c ****                 locRxBufferRead = 0u;
 415:.\Generated_Source\PSoC5/BLE_UART.c ****             }
 416:.\Generated_Source\PSoC5/BLE_UART.c ****             /* Update the real pointer */
 417:.\Generated_Source\PSoC5/BLE_UART.c ****             BLE_UART_rxBufferRead = locRxBufferRead;
 418:.\Generated_Source\PSoC5/BLE_UART.c **** 
 419:.\Generated_Source\PSoC5/BLE_UART.c ****             if(BLE_UART_rxBufferLoopDetect != 0u)
 420:.\Generated_Source\PSoC5/BLE_UART.c ****             {
 421:.\Generated_Source\PSoC5/BLE_UART.c ****                 BLE_UART_rxBufferLoopDetect = 0u;
 422:.\Generated_Source\PSoC5/BLE_UART.c ****                 #if ((BLE_UART_RX_INTERRUPT_ENABLED) && (BLE_UART_FLOW_CONTROL != 0u))
 423:.\Generated_Source\PSoC5/BLE_UART.c ****                     /* When Hardware Flow Control selected - return RX mask */
ARM GAS  C:\Users\User\AppData\Local\Temp\cc4Asa41.s 			page 13


 424:.\Generated_Source\PSoC5/BLE_UART.c ****                     #if( BLE_UART_HD_ENABLED )
 425:.\Generated_Source\PSoC5/BLE_UART.c ****                         if((BLE_UART_CONTROL_REG & BLE_UART_CTRL_HD_SEND) == 0u)
 426:.\Generated_Source\PSoC5/BLE_UART.c ****                         {   /* In Half duplex mode return RX mask only in RX
 427:.\Generated_Source\PSoC5/BLE_UART.c ****                             *  configuration set, otherwise
 428:.\Generated_Source\PSoC5/BLE_UART.c ****                             *  mask will be returned in LoadRxConfig() API.
 429:.\Generated_Source\PSoC5/BLE_UART.c ****                             */
 430:.\Generated_Source\PSoC5/BLE_UART.c ****                             BLE_UART_RXSTATUS_MASK_REG  |= BLE_UART_RX_STS_FIFO_NOTEMPTY;
 431:.\Generated_Source\PSoC5/BLE_UART.c ****                         }
 432:.\Generated_Source\PSoC5/BLE_UART.c ****                     #else
 433:.\Generated_Source\PSoC5/BLE_UART.c ****                         BLE_UART_RXSTATUS_MASK_REG  |= BLE_UART_RX_STS_FIFO_NOTEMPTY;
 434:.\Generated_Source\PSoC5/BLE_UART.c ****                     #endif /* end BLE_UART_HD_ENABLED */
 435:.\Generated_Source\PSoC5/BLE_UART.c ****                 #endif /* ((BLE_UART_RX_INTERRUPT_ENABLED) && (BLE_UART_FLOW_CONTROL != 0u)) */
 436:.\Generated_Source\PSoC5/BLE_UART.c ****             }
 437:.\Generated_Source\PSoC5/BLE_UART.c ****         }
 438:.\Generated_Source\PSoC5/BLE_UART.c ****         else
 439:.\Generated_Source\PSoC5/BLE_UART.c ****         {   /* Needs to check status for RX_STS_FIFO_NOTEMPTY bit */
 440:.\Generated_Source\PSoC5/BLE_UART.c ****             rxData = BLE_UART_RXDATA_REG;
 441:.\Generated_Source\PSoC5/BLE_UART.c ****         }
 442:.\Generated_Source\PSoC5/BLE_UART.c **** 
 443:.\Generated_Source\PSoC5/BLE_UART.c ****         BLE_UART_EnableRxInt();
 444:.\Generated_Source\PSoC5/BLE_UART.c **** 
 445:.\Generated_Source\PSoC5/BLE_UART.c ****     #else
 446:.\Generated_Source\PSoC5/BLE_UART.c **** 
 447:.\Generated_Source\PSoC5/BLE_UART.c ****         /* Needs to check status for RX_STS_FIFO_NOTEMPTY bit */
 448:.\Generated_Source\PSoC5/BLE_UART.c ****         rxData = BLE_UART_RXDATA_REG;
 257              		.loc 1 448 0
 258 0000 014B     		ldr	r3, .L23
 259 0002 1878     		ldrb	r0, [r3]	@ zero_extendqisi2
 260              	.LVL14:
 449:.\Generated_Source\PSoC5/BLE_UART.c **** 
 450:.\Generated_Source\PSoC5/BLE_UART.c ****     #endif /* (BLE_UART_RX_INTERRUPT_ENABLED) */
 451:.\Generated_Source\PSoC5/BLE_UART.c **** 
 452:.\Generated_Source\PSoC5/BLE_UART.c ****         return(rxData);
 453:.\Generated_Source\PSoC5/BLE_UART.c ****     }
 261              		.loc 1 453 0
 262 0004 7047     		bx	lr
 263              	.L24:
 264 0006 00BF     		.align	2
 265              	.L23:
 266 0008 4D640040 		.word	1073767501
 267              		.cfi_endproc
 268              	.LFE7:
 269              		.size	BLE_UART_ReadRxData, .-BLE_UART_ReadRxData
 270              		.section	.text.BLE_UART_ReadRxStatus,"ax",%progbits
 271              		.align	2
 272              		.global	BLE_UART_ReadRxStatus
 273              		.thumb
 274              		.thumb_func
 275              		.type	BLE_UART_ReadRxStatus, %function
 276              	BLE_UART_ReadRxStatus:
 277              	.LFB8:
 454:.\Generated_Source\PSoC5/BLE_UART.c **** 
 455:.\Generated_Source\PSoC5/BLE_UART.c **** 
 456:.\Generated_Source\PSoC5/BLE_UART.c ****     /*******************************************************************************
 457:.\Generated_Source\PSoC5/BLE_UART.c ****     * Function Name: BLE_UART_ReadRxStatus
 458:.\Generated_Source\PSoC5/BLE_UART.c ****     ********************************************************************************
 459:.\Generated_Source\PSoC5/BLE_UART.c ****     *
ARM GAS  C:\Users\User\AppData\Local\Temp\cc4Asa41.s 			page 14


 460:.\Generated_Source\PSoC5/BLE_UART.c ****     * Summary:
 461:.\Generated_Source\PSoC5/BLE_UART.c ****     *  Returns the current state of the receiver status register and the software
 462:.\Generated_Source\PSoC5/BLE_UART.c ****     *  buffer overflow status.
 463:.\Generated_Source\PSoC5/BLE_UART.c ****     *
 464:.\Generated_Source\PSoC5/BLE_UART.c ****     * Parameters:
 465:.\Generated_Source\PSoC5/BLE_UART.c ****     *  None.
 466:.\Generated_Source\PSoC5/BLE_UART.c ****     *
 467:.\Generated_Source\PSoC5/BLE_UART.c ****     * Return:
 468:.\Generated_Source\PSoC5/BLE_UART.c ****     *  Current state of the status register.
 469:.\Generated_Source\PSoC5/BLE_UART.c ****     *
 470:.\Generated_Source\PSoC5/BLE_UART.c ****     * Side Effect:
 471:.\Generated_Source\PSoC5/BLE_UART.c ****     *  All status register bits are clear-on-read except
 472:.\Generated_Source\PSoC5/BLE_UART.c ****     *  BLE_UART_RX_STS_FIFO_NOTEMPTY.
 473:.\Generated_Source\PSoC5/BLE_UART.c ****     *  BLE_UART_RX_STS_FIFO_NOTEMPTY clears immediately after RX data
 474:.\Generated_Source\PSoC5/BLE_UART.c ****     *  register read.
 475:.\Generated_Source\PSoC5/BLE_UART.c ****     *
 476:.\Generated_Source\PSoC5/BLE_UART.c ****     * Global Variables:
 477:.\Generated_Source\PSoC5/BLE_UART.c ****     *  BLE_UART_rxBufferOverflow - used to indicate overload condition.
 478:.\Generated_Source\PSoC5/BLE_UART.c ****     *   It set to one in RX interrupt when there isn't free space in
 479:.\Generated_Source\PSoC5/BLE_UART.c ****     *   BLE_UART_rxBufferRead to write new data. This condition returned
 480:.\Generated_Source\PSoC5/BLE_UART.c ****     *   and cleared to zero by this API as an
 481:.\Generated_Source\PSoC5/BLE_UART.c ****     *   BLE_UART_RX_STS_SOFT_BUFF_OVER bit along with RX Status register
 482:.\Generated_Source\PSoC5/BLE_UART.c ****     *   bits.
 483:.\Generated_Source\PSoC5/BLE_UART.c ****     *
 484:.\Generated_Source\PSoC5/BLE_UART.c ****     *******************************************************************************/
 485:.\Generated_Source\PSoC5/BLE_UART.c ****     uint8 BLE_UART_ReadRxStatus(void) 
 486:.\Generated_Source\PSoC5/BLE_UART.c ****     {
 278              		.loc 1 486 0
 279              		.cfi_startproc
 280              		@ args = 0, pretend = 0, frame = 0
 281              		@ frame_needed = 0, uses_anonymous_args = 0
 282              		@ link register save eliminated.
 487:.\Generated_Source\PSoC5/BLE_UART.c ****         uint8 status;
 488:.\Generated_Source\PSoC5/BLE_UART.c **** 
 489:.\Generated_Source\PSoC5/BLE_UART.c ****         status = BLE_UART_RXSTATUS_REG & BLE_UART_RX_HW_MASK;
 283              		.loc 1 489 0
 284 0000 024B     		ldr	r3, .L26
 285 0002 1878     		ldrb	r0, [r3]	@ zero_extendqisi2
 286              	.LVL15:
 490:.\Generated_Source\PSoC5/BLE_UART.c **** 
 491:.\Generated_Source\PSoC5/BLE_UART.c ****     #if (BLE_UART_RX_INTERRUPT_ENABLED)
 492:.\Generated_Source\PSoC5/BLE_UART.c ****         if(BLE_UART_rxBufferOverflow != 0u)
 493:.\Generated_Source\PSoC5/BLE_UART.c ****         {
 494:.\Generated_Source\PSoC5/BLE_UART.c ****             status |= BLE_UART_RX_STS_SOFT_BUFF_OVER;
 495:.\Generated_Source\PSoC5/BLE_UART.c ****             BLE_UART_rxBufferOverflow = 0u;
 496:.\Generated_Source\PSoC5/BLE_UART.c ****         }
 497:.\Generated_Source\PSoC5/BLE_UART.c ****     #endif /* (BLE_UART_RX_INTERRUPT_ENABLED) */
 498:.\Generated_Source\PSoC5/BLE_UART.c **** 
 499:.\Generated_Source\PSoC5/BLE_UART.c ****         return(status);
 500:.\Generated_Source\PSoC5/BLE_UART.c ****     }
 287              		.loc 1 500 0
 288 0004 00F07F00 		and	r0, r0, #127
 289              	.LVL16:
 290 0008 7047     		bx	lr
 291              	.L27:
 292 000a 00BF     		.align	2
 293              	.L26:
ARM GAS  C:\Users\User\AppData\Local\Temp\cc4Asa41.s 			page 15


 294 000c 6D640040 		.word	1073767533
 295              		.cfi_endproc
 296              	.LFE8:
 297              		.size	BLE_UART_ReadRxStatus, .-BLE_UART_ReadRxStatus
 298              		.section	.text.BLE_UART_GetChar,"ax",%progbits
 299              		.align	2
 300              		.global	BLE_UART_GetChar
 301              		.thumb
 302              		.thumb_func
 303              		.type	BLE_UART_GetChar, %function
 304              	BLE_UART_GetChar:
 305              	.LFB9:
 501:.\Generated_Source\PSoC5/BLE_UART.c **** 
 502:.\Generated_Source\PSoC5/BLE_UART.c **** 
 503:.\Generated_Source\PSoC5/BLE_UART.c ****     /*******************************************************************************
 504:.\Generated_Source\PSoC5/BLE_UART.c ****     * Function Name: BLE_UART_GetChar
 505:.\Generated_Source\PSoC5/BLE_UART.c ****     ********************************************************************************
 506:.\Generated_Source\PSoC5/BLE_UART.c ****     *
 507:.\Generated_Source\PSoC5/BLE_UART.c ****     * Summary:
 508:.\Generated_Source\PSoC5/BLE_UART.c ****     *  Returns the last received byte of data. BLE_UART_GetChar() is
 509:.\Generated_Source\PSoC5/BLE_UART.c ****     *  designed for ASCII characters and returns a uint8 where 1 to 255 are values
 510:.\Generated_Source\PSoC5/BLE_UART.c ****     *  for valid characters and 0 indicates an error occurred or no data is present.
 511:.\Generated_Source\PSoC5/BLE_UART.c ****     *
 512:.\Generated_Source\PSoC5/BLE_UART.c ****     * Parameters:
 513:.\Generated_Source\PSoC5/BLE_UART.c ****     *  None.
 514:.\Generated_Source\PSoC5/BLE_UART.c ****     *
 515:.\Generated_Source\PSoC5/BLE_UART.c ****     * Return:
 516:.\Generated_Source\PSoC5/BLE_UART.c ****     *  Character read from UART RX buffer. ASCII characters from 1 to 255 are valid.
 517:.\Generated_Source\PSoC5/BLE_UART.c ****     *  A returned zero signifies an error condition or no data available.
 518:.\Generated_Source\PSoC5/BLE_UART.c ****     *
 519:.\Generated_Source\PSoC5/BLE_UART.c ****     * Global Variables:
 520:.\Generated_Source\PSoC5/BLE_UART.c ****     *  BLE_UART_rxBuffer - RAM buffer pointer for save received data.
 521:.\Generated_Source\PSoC5/BLE_UART.c ****     *  BLE_UART_rxBufferWrite - cyclic index for write to rxBuffer,
 522:.\Generated_Source\PSoC5/BLE_UART.c ****     *     checked to identify new data.
 523:.\Generated_Source\PSoC5/BLE_UART.c ****     *  BLE_UART_rxBufferRead - cyclic index for read from rxBuffer,
 524:.\Generated_Source\PSoC5/BLE_UART.c ****     *     incremented after each byte has been read from buffer.
 525:.\Generated_Source\PSoC5/BLE_UART.c ****     *  BLE_UART_rxBufferLoopDetect - cleared if loop condition was detected
 526:.\Generated_Source\PSoC5/BLE_UART.c ****     *     in RX ISR.
 527:.\Generated_Source\PSoC5/BLE_UART.c ****     *
 528:.\Generated_Source\PSoC5/BLE_UART.c ****     * Reentrant:
 529:.\Generated_Source\PSoC5/BLE_UART.c ****     *  No.
 530:.\Generated_Source\PSoC5/BLE_UART.c ****     *
 531:.\Generated_Source\PSoC5/BLE_UART.c ****     *******************************************************************************/
 532:.\Generated_Source\PSoC5/BLE_UART.c ****     uint8 BLE_UART_GetChar(void) 
 533:.\Generated_Source\PSoC5/BLE_UART.c ****     {
 306              		.loc 1 533 0
 307              		.cfi_startproc
 308              		@ args = 0, pretend = 0, frame = 0
 309              		@ frame_needed = 0, uses_anonymous_args = 0
 310              		@ link register save eliminated.
 311              	.LVL17:
 534:.\Generated_Source\PSoC5/BLE_UART.c ****         uint8 rxData = 0u;
 535:.\Generated_Source\PSoC5/BLE_UART.c ****         uint8 rxStatus;
 536:.\Generated_Source\PSoC5/BLE_UART.c **** 
 537:.\Generated_Source\PSoC5/BLE_UART.c ****     #if (BLE_UART_RX_INTERRUPT_ENABLED)
 538:.\Generated_Source\PSoC5/BLE_UART.c ****         uint8 locRxBufferRead;
 539:.\Generated_Source\PSoC5/BLE_UART.c ****         uint8 locRxBufferWrite;
ARM GAS  C:\Users\User\AppData\Local\Temp\cc4Asa41.s 			page 16


 540:.\Generated_Source\PSoC5/BLE_UART.c **** 
 541:.\Generated_Source\PSoC5/BLE_UART.c ****         /* Protect variables that could change on interrupt */
 542:.\Generated_Source\PSoC5/BLE_UART.c ****         BLE_UART_DisableRxInt();
 543:.\Generated_Source\PSoC5/BLE_UART.c **** 
 544:.\Generated_Source\PSoC5/BLE_UART.c ****         locRxBufferRead  = BLE_UART_rxBufferRead;
 545:.\Generated_Source\PSoC5/BLE_UART.c ****         locRxBufferWrite = BLE_UART_rxBufferWrite;
 546:.\Generated_Source\PSoC5/BLE_UART.c **** 
 547:.\Generated_Source\PSoC5/BLE_UART.c ****         if( (BLE_UART_rxBufferLoopDetect != 0u) || (locRxBufferRead != locRxBufferWrite) )
 548:.\Generated_Source\PSoC5/BLE_UART.c ****         {
 549:.\Generated_Source\PSoC5/BLE_UART.c ****             rxData = BLE_UART_rxBuffer[locRxBufferRead];
 550:.\Generated_Source\PSoC5/BLE_UART.c ****             locRxBufferRead++;
 551:.\Generated_Source\PSoC5/BLE_UART.c ****             if(locRxBufferRead >= BLE_UART_RX_BUFFER_SIZE)
 552:.\Generated_Source\PSoC5/BLE_UART.c ****             {
 553:.\Generated_Source\PSoC5/BLE_UART.c ****                 locRxBufferRead = 0u;
 554:.\Generated_Source\PSoC5/BLE_UART.c ****             }
 555:.\Generated_Source\PSoC5/BLE_UART.c ****             /* Update the real pointer */
 556:.\Generated_Source\PSoC5/BLE_UART.c ****             BLE_UART_rxBufferRead = locRxBufferRead;
 557:.\Generated_Source\PSoC5/BLE_UART.c **** 
 558:.\Generated_Source\PSoC5/BLE_UART.c ****             if(BLE_UART_rxBufferLoopDetect != 0u)
 559:.\Generated_Source\PSoC5/BLE_UART.c ****             {
 560:.\Generated_Source\PSoC5/BLE_UART.c ****                 BLE_UART_rxBufferLoopDetect = 0u;
 561:.\Generated_Source\PSoC5/BLE_UART.c ****                 #if( (BLE_UART_RX_INTERRUPT_ENABLED) && (BLE_UART_FLOW_CONTROL != 0u) )
 562:.\Generated_Source\PSoC5/BLE_UART.c ****                     /* When Hardware Flow Control selected - return RX mask */
 563:.\Generated_Source\PSoC5/BLE_UART.c ****                     #if( BLE_UART_HD_ENABLED )
 564:.\Generated_Source\PSoC5/BLE_UART.c ****                         if((BLE_UART_CONTROL_REG & BLE_UART_CTRL_HD_SEND) == 0u)
 565:.\Generated_Source\PSoC5/BLE_UART.c ****                         {   /* In Half duplex mode return RX mask only if
 566:.\Generated_Source\PSoC5/BLE_UART.c ****                             *  RX configuration set, otherwise
 567:.\Generated_Source\PSoC5/BLE_UART.c ****                             *  mask will be returned in LoadRxConfig() API.
 568:.\Generated_Source\PSoC5/BLE_UART.c ****                             */
 569:.\Generated_Source\PSoC5/BLE_UART.c ****                             BLE_UART_RXSTATUS_MASK_REG |= BLE_UART_RX_STS_FIFO_NOTEMPTY;
 570:.\Generated_Source\PSoC5/BLE_UART.c ****                         }
 571:.\Generated_Source\PSoC5/BLE_UART.c ****                     #else
 572:.\Generated_Source\PSoC5/BLE_UART.c ****                         BLE_UART_RXSTATUS_MASK_REG |= BLE_UART_RX_STS_FIFO_NOTEMPTY;
 573:.\Generated_Source\PSoC5/BLE_UART.c ****                     #endif /* end BLE_UART_HD_ENABLED */
 574:.\Generated_Source\PSoC5/BLE_UART.c ****                 #endif /* BLE_UART_RX_INTERRUPT_ENABLED and Hardware flow control*/
 575:.\Generated_Source\PSoC5/BLE_UART.c ****             }
 576:.\Generated_Source\PSoC5/BLE_UART.c **** 
 577:.\Generated_Source\PSoC5/BLE_UART.c ****         }
 578:.\Generated_Source\PSoC5/BLE_UART.c ****         else
 579:.\Generated_Source\PSoC5/BLE_UART.c ****         {   rxStatus = BLE_UART_RXSTATUS_REG;
 580:.\Generated_Source\PSoC5/BLE_UART.c ****             if((rxStatus & BLE_UART_RX_STS_FIFO_NOTEMPTY) != 0u)
 581:.\Generated_Source\PSoC5/BLE_UART.c ****             {   /* Read received data from FIFO */
 582:.\Generated_Source\PSoC5/BLE_UART.c ****                 rxData = BLE_UART_RXDATA_REG;
 583:.\Generated_Source\PSoC5/BLE_UART.c ****                 /*Check status on error*/
 584:.\Generated_Source\PSoC5/BLE_UART.c ****                 if((rxStatus & (BLE_UART_RX_STS_BREAK | BLE_UART_RX_STS_PAR_ERROR |
 585:.\Generated_Source\PSoC5/BLE_UART.c ****                                 BLE_UART_RX_STS_STOP_ERROR | BLE_UART_RX_STS_OVERRUN)) != 0u)
 586:.\Generated_Source\PSoC5/BLE_UART.c ****                 {
 587:.\Generated_Source\PSoC5/BLE_UART.c ****                     rxData = 0u;
 588:.\Generated_Source\PSoC5/BLE_UART.c ****                 }
 589:.\Generated_Source\PSoC5/BLE_UART.c ****             }
 590:.\Generated_Source\PSoC5/BLE_UART.c ****         }
 591:.\Generated_Source\PSoC5/BLE_UART.c **** 
 592:.\Generated_Source\PSoC5/BLE_UART.c ****         BLE_UART_EnableRxInt();
 593:.\Generated_Source\PSoC5/BLE_UART.c **** 
 594:.\Generated_Source\PSoC5/BLE_UART.c ****     #else
 595:.\Generated_Source\PSoC5/BLE_UART.c **** 
 596:.\Generated_Source\PSoC5/BLE_UART.c ****         rxStatus =BLE_UART_RXSTATUS_REG;
ARM GAS  C:\Users\User\AppData\Local\Temp\cc4Asa41.s 			page 17


 312              		.loc 1 596 0
 313 0000 084B     		ldr	r3, .L32
 314 0002 1B78     		ldrb	r3, [r3]	@ zero_extendqisi2
 315 0004 DBB2     		uxtb	r3, r3
 316              	.LVL18:
 597:.\Generated_Source\PSoC5/BLE_UART.c ****         if((rxStatus & BLE_UART_RX_STS_FIFO_NOTEMPTY) != 0u)
 317              		.loc 1 597 0
 318 0006 13F0200F 		tst	r3, #32
 319 000a 06D0     		beq	.L30
 598:.\Generated_Source\PSoC5/BLE_UART.c ****         {
 599:.\Generated_Source\PSoC5/BLE_UART.c ****             /* Read received data from FIFO */
 600:.\Generated_Source\PSoC5/BLE_UART.c ****             rxData = BLE_UART_RXDATA_REG;
 320              		.loc 1 600 0
 321 000c 064A     		ldr	r2, .L32+4
 322 000e 1078     		ldrb	r0, [r2]	@ zero_extendqisi2
 323 0010 C0B2     		uxtb	r0, r0
 324              	.LVL19:
 601:.\Generated_Source\PSoC5/BLE_UART.c **** 
 602:.\Generated_Source\PSoC5/BLE_UART.c ****             /*Check status on error*/
 603:.\Generated_Source\PSoC5/BLE_UART.c ****             if((rxStatus & (BLE_UART_RX_STS_BREAK | BLE_UART_RX_STS_PAR_ERROR |
 325              		.loc 1 603 0
 326 0012 13F01E0F 		tst	r3, #30
 327 0016 02D1     		bne	.L31
 328 0018 7047     		bx	lr
 329              	.LVL20:
 330              	.L30:
 534:.\Generated_Source\PSoC5/BLE_UART.c ****         uint8 rxStatus;
 331              		.loc 1 534 0
 332 001a 0020     		movs	r0, #0
 333 001c 7047     		bx	lr
 334              	.LVL21:
 335              	.L31:
 604:.\Generated_Source\PSoC5/BLE_UART.c ****                             BLE_UART_RX_STS_STOP_ERROR | BLE_UART_RX_STS_OVERRUN)) != 0u)
 605:.\Generated_Source\PSoC5/BLE_UART.c ****             {
 606:.\Generated_Source\PSoC5/BLE_UART.c ****                 rxData = 0u;
 336              		.loc 1 606 0
 337 001e 0020     		movs	r0, #0
 338              	.LVL22:
 607:.\Generated_Source\PSoC5/BLE_UART.c ****             }
 608:.\Generated_Source\PSoC5/BLE_UART.c ****         }
 609:.\Generated_Source\PSoC5/BLE_UART.c ****     #endif /* (BLE_UART_RX_INTERRUPT_ENABLED) */
 610:.\Generated_Source\PSoC5/BLE_UART.c **** 
 611:.\Generated_Source\PSoC5/BLE_UART.c ****         return(rxData);
 612:.\Generated_Source\PSoC5/BLE_UART.c ****     }
 339              		.loc 1 612 0
 340 0020 7047     		bx	lr
 341              	.L33:
 342 0022 00BF     		.align	2
 343              	.L32:
 344 0024 6D640040 		.word	1073767533
 345 0028 4D640040 		.word	1073767501
 346              		.cfi_endproc
 347              	.LFE9:
 348              		.size	BLE_UART_GetChar, .-BLE_UART_GetChar
 349              		.section	.text.BLE_UART_GetByte,"ax",%progbits
 350              		.align	2
 351              		.global	BLE_UART_GetByte
ARM GAS  C:\Users\User\AppData\Local\Temp\cc4Asa41.s 			page 18


 352              		.thumb
 353              		.thumb_func
 354              		.type	BLE_UART_GetByte, %function
 355              	BLE_UART_GetByte:
 356              	.LFB10:
 613:.\Generated_Source\PSoC5/BLE_UART.c **** 
 614:.\Generated_Source\PSoC5/BLE_UART.c **** 
 615:.\Generated_Source\PSoC5/BLE_UART.c ****     /*******************************************************************************
 616:.\Generated_Source\PSoC5/BLE_UART.c ****     * Function Name: BLE_UART_GetByte
 617:.\Generated_Source\PSoC5/BLE_UART.c ****     ********************************************************************************
 618:.\Generated_Source\PSoC5/BLE_UART.c ****     *
 619:.\Generated_Source\PSoC5/BLE_UART.c ****     * Summary:
 620:.\Generated_Source\PSoC5/BLE_UART.c ****     *  Reads UART RX buffer immediately, returns received character and error
 621:.\Generated_Source\PSoC5/BLE_UART.c ****     *  condition.
 622:.\Generated_Source\PSoC5/BLE_UART.c ****     *
 623:.\Generated_Source\PSoC5/BLE_UART.c ****     * Parameters:
 624:.\Generated_Source\PSoC5/BLE_UART.c ****     *  None.
 625:.\Generated_Source\PSoC5/BLE_UART.c ****     *
 626:.\Generated_Source\PSoC5/BLE_UART.c ****     * Return:
 627:.\Generated_Source\PSoC5/BLE_UART.c ****     *  MSB contains status and LSB contains UART RX data. If the MSB is nonzero,
 628:.\Generated_Source\PSoC5/BLE_UART.c ****     *  an error has occurred.
 629:.\Generated_Source\PSoC5/BLE_UART.c ****     *
 630:.\Generated_Source\PSoC5/BLE_UART.c ****     * Reentrant:
 631:.\Generated_Source\PSoC5/BLE_UART.c ****     *  No.
 632:.\Generated_Source\PSoC5/BLE_UART.c ****     *
 633:.\Generated_Source\PSoC5/BLE_UART.c ****     *******************************************************************************/
 634:.\Generated_Source\PSoC5/BLE_UART.c ****     uint16 BLE_UART_GetByte(void) 
 635:.\Generated_Source\PSoC5/BLE_UART.c ****     {
 357              		.loc 1 635 0
 358              		.cfi_startproc
 359              		@ args = 0, pretend = 0, frame = 0
 360              		@ frame_needed = 0, uses_anonymous_args = 0
 361 0000 10B5     		push	{r4, lr}
 362              		.cfi_def_cfa_offset 8
 363              		.cfi_offset 4, -8
 364              		.cfi_offset 14, -4
 636:.\Generated_Source\PSoC5/BLE_UART.c ****         
 637:.\Generated_Source\PSoC5/BLE_UART.c ****     #if (BLE_UART_RX_INTERRUPT_ENABLED)
 638:.\Generated_Source\PSoC5/BLE_UART.c ****         uint16 locErrorStatus;
 639:.\Generated_Source\PSoC5/BLE_UART.c ****         /* Protect variables that could change on interrupt */
 640:.\Generated_Source\PSoC5/BLE_UART.c ****         BLE_UART_DisableRxInt();
 641:.\Generated_Source\PSoC5/BLE_UART.c ****         locErrorStatus = (uint16)BLE_UART_errorStatus;
 642:.\Generated_Source\PSoC5/BLE_UART.c ****         BLE_UART_errorStatus = 0u;
 643:.\Generated_Source\PSoC5/BLE_UART.c ****         BLE_UART_EnableRxInt();
 644:.\Generated_Source\PSoC5/BLE_UART.c ****         return ( (uint16)(locErrorStatus << 8u) | BLE_UART_ReadRxData() );
 645:.\Generated_Source\PSoC5/BLE_UART.c ****     #else
 646:.\Generated_Source\PSoC5/BLE_UART.c ****         return ( ((uint16)BLE_UART_ReadRxStatus() << 8u) | BLE_UART_ReadRxData() );
 365              		.loc 1 646 0
 366 0002 FFF7FEFF 		bl	BLE_UART_ReadRxStatus
 367              	.LVL23:
 368 0006 0402     		lsls	r4, r0, #8
 369 0008 FFF7FEFF 		bl	BLE_UART_ReadRxData
 370              	.LVL24:
 371 000c 2043     		orrs	r0, r0, r4
 647:.\Generated_Source\PSoC5/BLE_UART.c ****     #endif /* BLE_UART_RX_INTERRUPT_ENABLED */
 648:.\Generated_Source\PSoC5/BLE_UART.c ****         
 649:.\Generated_Source\PSoC5/BLE_UART.c ****     }
ARM GAS  C:\Users\User\AppData\Local\Temp\cc4Asa41.s 			page 19


 372              		.loc 1 649 0
 373 000e 80B2     		uxth	r0, r0
 374 0010 10BD     		pop	{r4, pc}
 375              		.cfi_endproc
 376              	.LFE10:
 377              		.size	BLE_UART_GetByte, .-BLE_UART_GetByte
 378 0012 00BF     		.section	.text.BLE_UART_GetRxBufferSize,"ax",%progbits
 379              		.align	2
 380              		.global	BLE_UART_GetRxBufferSize
 381              		.thumb
 382              		.thumb_func
 383              		.type	BLE_UART_GetRxBufferSize, %function
 384              	BLE_UART_GetRxBufferSize:
 385              	.LFB11:
 650:.\Generated_Source\PSoC5/BLE_UART.c **** 
 651:.\Generated_Source\PSoC5/BLE_UART.c **** 
 652:.\Generated_Source\PSoC5/BLE_UART.c ****     /*******************************************************************************
 653:.\Generated_Source\PSoC5/BLE_UART.c ****     * Function Name: BLE_UART_GetRxBufferSize
 654:.\Generated_Source\PSoC5/BLE_UART.c ****     ********************************************************************************
 655:.\Generated_Source\PSoC5/BLE_UART.c ****     *
 656:.\Generated_Source\PSoC5/BLE_UART.c ****     * Summary:
 657:.\Generated_Source\PSoC5/BLE_UART.c ****     *  Returns the number of received bytes available in the RX buffer.
 658:.\Generated_Source\PSoC5/BLE_UART.c ****     *  * RX software buffer is disabled (RX Buffer Size parameter is equal to 4): 
 659:.\Generated_Source\PSoC5/BLE_UART.c ****     *    returns 0 for empty RX FIFO or 1 for not empty RX FIFO.
 660:.\Generated_Source\PSoC5/BLE_UART.c ****     *  * RX software buffer is enabled: returns the number of bytes available in 
 661:.\Generated_Source\PSoC5/BLE_UART.c ****     *    the RX software buffer. Bytes available in the RX FIFO do not take to 
 662:.\Generated_Source\PSoC5/BLE_UART.c ****     *    account.
 663:.\Generated_Source\PSoC5/BLE_UART.c ****     *
 664:.\Generated_Source\PSoC5/BLE_UART.c ****     * Parameters:
 665:.\Generated_Source\PSoC5/BLE_UART.c ****     *  None.
 666:.\Generated_Source\PSoC5/BLE_UART.c ****     *
 667:.\Generated_Source\PSoC5/BLE_UART.c ****     * Return:
 668:.\Generated_Source\PSoC5/BLE_UART.c ****     *  uint8: Number of bytes in the RX buffer. 
 669:.\Generated_Source\PSoC5/BLE_UART.c ****     *    Return value type depends on RX Buffer Size parameter.
 670:.\Generated_Source\PSoC5/BLE_UART.c ****     *
 671:.\Generated_Source\PSoC5/BLE_UART.c ****     * Global Variables:
 672:.\Generated_Source\PSoC5/BLE_UART.c ****     *  BLE_UART_rxBufferWrite - used to calculate left bytes.
 673:.\Generated_Source\PSoC5/BLE_UART.c ****     *  BLE_UART_rxBufferRead - used to calculate left bytes.
 674:.\Generated_Source\PSoC5/BLE_UART.c ****     *  BLE_UART_rxBufferLoopDetect - checked to decide left bytes amount.
 675:.\Generated_Source\PSoC5/BLE_UART.c ****     *
 676:.\Generated_Source\PSoC5/BLE_UART.c ****     * Reentrant:
 677:.\Generated_Source\PSoC5/BLE_UART.c ****     *  No.
 678:.\Generated_Source\PSoC5/BLE_UART.c ****     *
 679:.\Generated_Source\PSoC5/BLE_UART.c ****     * Theory:
 680:.\Generated_Source\PSoC5/BLE_UART.c ****     *  Allows the user to find out how full the RX Buffer is.
 681:.\Generated_Source\PSoC5/BLE_UART.c ****     *
 682:.\Generated_Source\PSoC5/BLE_UART.c ****     *******************************************************************************/
 683:.\Generated_Source\PSoC5/BLE_UART.c ****     uint8 BLE_UART_GetRxBufferSize(void)
 684:.\Generated_Source\PSoC5/BLE_UART.c ****                                                             
 685:.\Generated_Source\PSoC5/BLE_UART.c ****     {
 386              		.loc 1 685 0
 387              		.cfi_startproc
 388              		@ args = 0, pretend = 0, frame = 0
 389              		@ frame_needed = 0, uses_anonymous_args = 0
 390              		@ link register save eliminated.
 686:.\Generated_Source\PSoC5/BLE_UART.c ****         uint8 size;
 687:.\Generated_Source\PSoC5/BLE_UART.c **** 
ARM GAS  C:\Users\User\AppData\Local\Temp\cc4Asa41.s 			page 20


 688:.\Generated_Source\PSoC5/BLE_UART.c ****     #if (BLE_UART_RX_INTERRUPT_ENABLED)
 689:.\Generated_Source\PSoC5/BLE_UART.c **** 
 690:.\Generated_Source\PSoC5/BLE_UART.c ****         /* Protect variables that could change on interrupt */
 691:.\Generated_Source\PSoC5/BLE_UART.c ****         BLE_UART_DisableRxInt();
 692:.\Generated_Source\PSoC5/BLE_UART.c **** 
 693:.\Generated_Source\PSoC5/BLE_UART.c ****         if(BLE_UART_rxBufferRead == BLE_UART_rxBufferWrite)
 694:.\Generated_Source\PSoC5/BLE_UART.c ****         {
 695:.\Generated_Source\PSoC5/BLE_UART.c ****             if(BLE_UART_rxBufferLoopDetect != 0u)
 696:.\Generated_Source\PSoC5/BLE_UART.c ****             {
 697:.\Generated_Source\PSoC5/BLE_UART.c ****                 size = BLE_UART_RX_BUFFER_SIZE;
 698:.\Generated_Source\PSoC5/BLE_UART.c ****             }
 699:.\Generated_Source\PSoC5/BLE_UART.c ****             else
 700:.\Generated_Source\PSoC5/BLE_UART.c ****             {
 701:.\Generated_Source\PSoC5/BLE_UART.c ****                 size = 0u;
 702:.\Generated_Source\PSoC5/BLE_UART.c ****             }
 703:.\Generated_Source\PSoC5/BLE_UART.c ****         }
 704:.\Generated_Source\PSoC5/BLE_UART.c ****         else if(BLE_UART_rxBufferRead < BLE_UART_rxBufferWrite)
 705:.\Generated_Source\PSoC5/BLE_UART.c ****         {
 706:.\Generated_Source\PSoC5/BLE_UART.c ****             size = (BLE_UART_rxBufferWrite - BLE_UART_rxBufferRead);
 707:.\Generated_Source\PSoC5/BLE_UART.c ****         }
 708:.\Generated_Source\PSoC5/BLE_UART.c ****         else
 709:.\Generated_Source\PSoC5/BLE_UART.c ****         {
 710:.\Generated_Source\PSoC5/BLE_UART.c ****             size = (BLE_UART_RX_BUFFER_SIZE - BLE_UART_rxBufferRead) + BLE_UART_rxBufferWrite;
 711:.\Generated_Source\PSoC5/BLE_UART.c ****         }
 712:.\Generated_Source\PSoC5/BLE_UART.c **** 
 713:.\Generated_Source\PSoC5/BLE_UART.c ****         BLE_UART_EnableRxInt();
 714:.\Generated_Source\PSoC5/BLE_UART.c **** 
 715:.\Generated_Source\PSoC5/BLE_UART.c ****     #else
 716:.\Generated_Source\PSoC5/BLE_UART.c **** 
 717:.\Generated_Source\PSoC5/BLE_UART.c ****         /* We can only know if there is data in the fifo. */
 718:.\Generated_Source\PSoC5/BLE_UART.c ****         size = ((BLE_UART_RXSTATUS_REG & BLE_UART_RX_STS_FIFO_NOTEMPTY) != 0u) ? 1u : 0u;
 391              		.loc 1 718 0
 392 0000 044B     		ldr	r3, .L39
 393 0002 1B78     		ldrb	r3, [r3]	@ zero_extendqisi2
 394 0004 13F0200F 		tst	r3, #32
 395 0008 01D0     		beq	.L38
 396 000a 0120     		movs	r0, #1
 397 000c 7047     		bx	lr
 398              	.L38:
 399 000e 0020     		movs	r0, #0
 400              	.LVL25:
 719:.\Generated_Source\PSoC5/BLE_UART.c **** 
 720:.\Generated_Source\PSoC5/BLE_UART.c ****     #endif /* (BLE_UART_RX_INTERRUPT_ENABLED) */
 721:.\Generated_Source\PSoC5/BLE_UART.c **** 
 722:.\Generated_Source\PSoC5/BLE_UART.c ****         return(size);
 723:.\Generated_Source\PSoC5/BLE_UART.c ****     }
 401              		.loc 1 723 0
 402 0010 7047     		bx	lr
 403              	.L40:
 404 0012 00BF     		.align	2
 405              	.L39:
 406 0014 6D640040 		.word	1073767533
 407              		.cfi_endproc
 408              	.LFE11:
 409              		.size	BLE_UART_GetRxBufferSize, .-BLE_UART_GetRxBufferSize
 410              		.section	.text.BLE_UART_ClearRxBuffer,"ax",%progbits
 411              		.align	2
ARM GAS  C:\Users\User\AppData\Local\Temp\cc4Asa41.s 			page 21


 412              		.global	BLE_UART_ClearRxBuffer
 413              		.thumb
 414              		.thumb_func
 415              		.type	BLE_UART_ClearRxBuffer, %function
 416              	BLE_UART_ClearRxBuffer:
 417              	.LFB12:
 724:.\Generated_Source\PSoC5/BLE_UART.c **** 
 725:.\Generated_Source\PSoC5/BLE_UART.c **** 
 726:.\Generated_Source\PSoC5/BLE_UART.c ****     /*******************************************************************************
 727:.\Generated_Source\PSoC5/BLE_UART.c ****     * Function Name: BLE_UART_ClearRxBuffer
 728:.\Generated_Source\PSoC5/BLE_UART.c ****     ********************************************************************************
 729:.\Generated_Source\PSoC5/BLE_UART.c ****     *
 730:.\Generated_Source\PSoC5/BLE_UART.c ****     * Summary:
 731:.\Generated_Source\PSoC5/BLE_UART.c ****     *  Clears the receiver memory buffer and hardware RX FIFO of all received data.
 732:.\Generated_Source\PSoC5/BLE_UART.c ****     *
 733:.\Generated_Source\PSoC5/BLE_UART.c ****     * Parameters:
 734:.\Generated_Source\PSoC5/BLE_UART.c ****     *  None.
 735:.\Generated_Source\PSoC5/BLE_UART.c ****     *
 736:.\Generated_Source\PSoC5/BLE_UART.c ****     * Return:
 737:.\Generated_Source\PSoC5/BLE_UART.c ****     *  None.
 738:.\Generated_Source\PSoC5/BLE_UART.c ****     *
 739:.\Generated_Source\PSoC5/BLE_UART.c ****     * Global Variables:
 740:.\Generated_Source\PSoC5/BLE_UART.c ****     *  BLE_UART_rxBufferWrite - cleared to zero.
 741:.\Generated_Source\PSoC5/BLE_UART.c ****     *  BLE_UART_rxBufferRead - cleared to zero.
 742:.\Generated_Source\PSoC5/BLE_UART.c ****     *  BLE_UART_rxBufferLoopDetect - cleared to zero.
 743:.\Generated_Source\PSoC5/BLE_UART.c ****     *  BLE_UART_rxBufferOverflow - cleared to zero.
 744:.\Generated_Source\PSoC5/BLE_UART.c ****     *
 745:.\Generated_Source\PSoC5/BLE_UART.c ****     * Reentrant:
 746:.\Generated_Source\PSoC5/BLE_UART.c ****     *  No.
 747:.\Generated_Source\PSoC5/BLE_UART.c ****     *
 748:.\Generated_Source\PSoC5/BLE_UART.c ****     * Theory:
 749:.\Generated_Source\PSoC5/BLE_UART.c ****     *  Setting the pointers to zero makes the system believe there is no data to
 750:.\Generated_Source\PSoC5/BLE_UART.c ****     *  read and writing will resume at address 0 overwriting any data that may
 751:.\Generated_Source\PSoC5/BLE_UART.c ****     *  have remained in the RAM.
 752:.\Generated_Source\PSoC5/BLE_UART.c ****     *
 753:.\Generated_Source\PSoC5/BLE_UART.c ****     * Side Effects:
 754:.\Generated_Source\PSoC5/BLE_UART.c ****     *  Any received data not read from the RAM or FIFO buffer will be lost.
 755:.\Generated_Source\PSoC5/BLE_UART.c ****     *
 756:.\Generated_Source\PSoC5/BLE_UART.c ****     *******************************************************************************/
 757:.\Generated_Source\PSoC5/BLE_UART.c ****     void BLE_UART_ClearRxBuffer(void) 
 758:.\Generated_Source\PSoC5/BLE_UART.c ****     {
 418              		.loc 1 758 0
 419              		.cfi_startproc
 420              		@ args = 0, pretend = 0, frame = 0
 421              		@ frame_needed = 0, uses_anonymous_args = 0
 422 0000 08B5     		push	{r3, lr}
 423              		.cfi_def_cfa_offset 8
 424              		.cfi_offset 3, -8
 425              		.cfi_offset 14, -4
 759:.\Generated_Source\PSoC5/BLE_UART.c ****         uint8 enableInterrupts;
 760:.\Generated_Source\PSoC5/BLE_UART.c **** 
 761:.\Generated_Source\PSoC5/BLE_UART.c ****         /* Clear the HW FIFO */
 762:.\Generated_Source\PSoC5/BLE_UART.c ****         enableInterrupts = CyEnterCriticalSection();
 426              		.loc 1 762 0
 427 0002 FFF7FEFF 		bl	CyEnterCriticalSection
 428              	.LVL26:
 763:.\Generated_Source\PSoC5/BLE_UART.c ****         BLE_UART_RXDATA_AUX_CTL_REG |= (uint8)  BLE_UART_RX_FIFO_CLR;
ARM GAS  C:\Users\User\AppData\Local\Temp\cc4Asa41.s 			page 22


 429              		.loc 1 763 0
 430 0006 064B     		ldr	r3, .L43
 431 0008 1A78     		ldrb	r2, [r3]	@ zero_extendqisi2
 432 000a 42F00102 		orr	r2, r2, #1
 433 000e 1A70     		strb	r2, [r3]
 764:.\Generated_Source\PSoC5/BLE_UART.c ****         BLE_UART_RXDATA_AUX_CTL_REG &= (uint8) ~BLE_UART_RX_FIFO_CLR;
 434              		.loc 1 764 0
 435 0010 1A78     		ldrb	r2, [r3]	@ zero_extendqisi2
 436 0012 02F0FE02 		and	r2, r2, #254
 437 0016 1A70     		strb	r2, [r3]
 765:.\Generated_Source\PSoC5/BLE_UART.c ****         CyExitCriticalSection(enableInterrupts);
 438              		.loc 1 765 0
 439 0018 FFF7FEFF 		bl	CyExitCriticalSection
 440              	.LVL27:
 441 001c 08BD     		pop	{r3, pc}
 442              	.L44:
 443 001e 00BF     		.align	2
 444              	.L43:
 445 0020 9D640040 		.word	1073767581
 446              		.cfi_endproc
 447              	.LFE12:
 448              		.size	BLE_UART_ClearRxBuffer, .-BLE_UART_ClearRxBuffer
 449              		.section	.text.BLE_UART_SetRxAddressMode,"ax",%progbits
 450              		.align	2
 451              		.global	BLE_UART_SetRxAddressMode
 452              		.thumb
 453              		.thumb_func
 454              		.type	BLE_UART_SetRxAddressMode, %function
 455              	BLE_UART_SetRxAddressMode:
 456              	.LFB13:
 766:.\Generated_Source\PSoC5/BLE_UART.c **** 
 767:.\Generated_Source\PSoC5/BLE_UART.c ****     #if (BLE_UART_RX_INTERRUPT_ENABLED)
 768:.\Generated_Source\PSoC5/BLE_UART.c **** 
 769:.\Generated_Source\PSoC5/BLE_UART.c ****         /* Protect variables that could change on interrupt. */
 770:.\Generated_Source\PSoC5/BLE_UART.c ****         BLE_UART_DisableRxInt();
 771:.\Generated_Source\PSoC5/BLE_UART.c **** 
 772:.\Generated_Source\PSoC5/BLE_UART.c ****         BLE_UART_rxBufferRead = 0u;
 773:.\Generated_Source\PSoC5/BLE_UART.c ****         BLE_UART_rxBufferWrite = 0u;
 774:.\Generated_Source\PSoC5/BLE_UART.c ****         BLE_UART_rxBufferLoopDetect = 0u;
 775:.\Generated_Source\PSoC5/BLE_UART.c ****         BLE_UART_rxBufferOverflow = 0u;
 776:.\Generated_Source\PSoC5/BLE_UART.c **** 
 777:.\Generated_Source\PSoC5/BLE_UART.c ****         BLE_UART_EnableRxInt();
 778:.\Generated_Source\PSoC5/BLE_UART.c **** 
 779:.\Generated_Source\PSoC5/BLE_UART.c ****     #endif /* (BLE_UART_RX_INTERRUPT_ENABLED) */
 780:.\Generated_Source\PSoC5/BLE_UART.c **** 
 781:.\Generated_Source\PSoC5/BLE_UART.c ****     }
 782:.\Generated_Source\PSoC5/BLE_UART.c **** 
 783:.\Generated_Source\PSoC5/BLE_UART.c **** 
 784:.\Generated_Source\PSoC5/BLE_UART.c ****     /*******************************************************************************
 785:.\Generated_Source\PSoC5/BLE_UART.c ****     * Function Name: BLE_UART_SetRxAddressMode
 786:.\Generated_Source\PSoC5/BLE_UART.c ****     ********************************************************************************
 787:.\Generated_Source\PSoC5/BLE_UART.c ****     *
 788:.\Generated_Source\PSoC5/BLE_UART.c ****     * Summary:
 789:.\Generated_Source\PSoC5/BLE_UART.c ****     *  Sets the software controlled Addressing mode used by the RX portion of the
 790:.\Generated_Source\PSoC5/BLE_UART.c ****     *  UART.
 791:.\Generated_Source\PSoC5/BLE_UART.c ****     *
 792:.\Generated_Source\PSoC5/BLE_UART.c ****     * Parameters:
ARM GAS  C:\Users\User\AppData\Local\Temp\cc4Asa41.s 			page 23


 793:.\Generated_Source\PSoC5/BLE_UART.c ****     *  addressMode: Enumerated value indicating the mode of RX addressing
 794:.\Generated_Source\PSoC5/BLE_UART.c ****     *  BLE_UART__B_UART__AM_SW_BYTE_BYTE -  Software Byte-by-Byte address
 795:.\Generated_Source\PSoC5/BLE_UART.c ****     *                                               detection
 796:.\Generated_Source\PSoC5/BLE_UART.c ****     *  BLE_UART__B_UART__AM_SW_DETECT_TO_BUFFER - Software Detect to Buffer
 797:.\Generated_Source\PSoC5/BLE_UART.c ****     *                                               address detection
 798:.\Generated_Source\PSoC5/BLE_UART.c ****     *  BLE_UART__B_UART__AM_HW_BYTE_BY_BYTE - Hardware Byte-by-Byte address
 799:.\Generated_Source\PSoC5/BLE_UART.c ****     *                                               detection
 800:.\Generated_Source\PSoC5/BLE_UART.c ****     *  BLE_UART__B_UART__AM_HW_DETECT_TO_BUFFER - Hardware Detect to Buffer
 801:.\Generated_Source\PSoC5/BLE_UART.c ****     *                                               address detection
 802:.\Generated_Source\PSoC5/BLE_UART.c ****     *  BLE_UART__B_UART__AM_NONE - No address detection
 803:.\Generated_Source\PSoC5/BLE_UART.c ****     *
 804:.\Generated_Source\PSoC5/BLE_UART.c ****     * Return:
 805:.\Generated_Source\PSoC5/BLE_UART.c ****     *  None.
 806:.\Generated_Source\PSoC5/BLE_UART.c ****     *
 807:.\Generated_Source\PSoC5/BLE_UART.c ****     * Global Variables:
 808:.\Generated_Source\PSoC5/BLE_UART.c ****     *  BLE_UART_rxAddressMode - the parameter stored in this variable for
 809:.\Generated_Source\PSoC5/BLE_UART.c ****     *   the farther usage in RX ISR.
 810:.\Generated_Source\PSoC5/BLE_UART.c ****     *  BLE_UART_rxAddressDetected - set to initial state (0).
 811:.\Generated_Source\PSoC5/BLE_UART.c ****     *
 812:.\Generated_Source\PSoC5/BLE_UART.c ****     *******************************************************************************/
 813:.\Generated_Source\PSoC5/BLE_UART.c ****     void BLE_UART_SetRxAddressMode(uint8 addressMode)
 814:.\Generated_Source\PSoC5/BLE_UART.c ****                                                         
 815:.\Generated_Source\PSoC5/BLE_UART.c ****     {
 457              		.loc 1 815 0
 458              		.cfi_startproc
 459              		@ args = 0, pretend = 0, frame = 0
 460              		@ frame_needed = 0, uses_anonymous_args = 0
 461              		@ link register save eliminated.
 462              	.LVL28:
 463 0000 7047     		bx	lr
 464              		.cfi_endproc
 465              	.LFE13:
 466              		.size	BLE_UART_SetRxAddressMode, .-BLE_UART_SetRxAddressMode
 467 0002 00BF     		.section	.text.BLE_UART_SetRxAddress1,"ax",%progbits
 468              		.align	2
 469              		.global	BLE_UART_SetRxAddress1
 470              		.thumb
 471              		.thumb_func
 472              		.type	BLE_UART_SetRxAddress1, %function
 473              	BLE_UART_SetRxAddress1:
 474              	.LFB14:
 816:.\Generated_Source\PSoC5/BLE_UART.c ****         #if(BLE_UART_RXHW_ADDRESS_ENABLED)
 817:.\Generated_Source\PSoC5/BLE_UART.c ****             #if(BLE_UART_CONTROL_REG_REMOVED)
 818:.\Generated_Source\PSoC5/BLE_UART.c ****                 if(0u != addressMode)
 819:.\Generated_Source\PSoC5/BLE_UART.c ****                 {
 820:.\Generated_Source\PSoC5/BLE_UART.c ****                     /* Suppress compiler warning */
 821:.\Generated_Source\PSoC5/BLE_UART.c ****                 }
 822:.\Generated_Source\PSoC5/BLE_UART.c ****             #else /* BLE_UART_CONTROL_REG_REMOVED */
 823:.\Generated_Source\PSoC5/BLE_UART.c ****                 uint8 tmpCtrl;
 824:.\Generated_Source\PSoC5/BLE_UART.c ****                 tmpCtrl = BLE_UART_CONTROL_REG & (uint8)~BLE_UART_CTRL_RXADDR_MODE_MASK;
 825:.\Generated_Source\PSoC5/BLE_UART.c ****                 tmpCtrl |= (uint8)(addressMode << BLE_UART_CTRL_RXADDR_MODE0_SHIFT);
 826:.\Generated_Source\PSoC5/BLE_UART.c ****                 BLE_UART_CONTROL_REG = tmpCtrl;
 827:.\Generated_Source\PSoC5/BLE_UART.c **** 
 828:.\Generated_Source\PSoC5/BLE_UART.c ****                 #if(BLE_UART_RX_INTERRUPT_ENABLED && \
 829:.\Generated_Source\PSoC5/BLE_UART.c ****                    (BLE_UART_RXBUFFERSIZE > BLE_UART_FIFO_LENGTH) )
 830:.\Generated_Source\PSoC5/BLE_UART.c ****                     BLE_UART_rxAddressMode = addressMode;
 831:.\Generated_Source\PSoC5/BLE_UART.c ****                     BLE_UART_rxAddressDetected = 0u;
ARM GAS  C:\Users\User\AppData\Local\Temp\cc4Asa41.s 			page 24


 832:.\Generated_Source\PSoC5/BLE_UART.c ****                 #endif /* End BLE_UART_RXBUFFERSIZE > BLE_UART_FIFO_LENGTH*/
 833:.\Generated_Source\PSoC5/BLE_UART.c ****             #endif /* End BLE_UART_CONTROL_REG_REMOVED */
 834:.\Generated_Source\PSoC5/BLE_UART.c ****         #else /* BLE_UART_RXHW_ADDRESS_ENABLED */
 835:.\Generated_Source\PSoC5/BLE_UART.c ****             if(0u != addressMode)
 836:.\Generated_Source\PSoC5/BLE_UART.c ****             {
 837:.\Generated_Source\PSoC5/BLE_UART.c ****                 /* Suppress compiler warning */
 838:.\Generated_Source\PSoC5/BLE_UART.c ****             }
 839:.\Generated_Source\PSoC5/BLE_UART.c ****         #endif /* End BLE_UART_RXHW_ADDRESS_ENABLED */
 840:.\Generated_Source\PSoC5/BLE_UART.c ****     }
 841:.\Generated_Source\PSoC5/BLE_UART.c **** 
 842:.\Generated_Source\PSoC5/BLE_UART.c **** 
 843:.\Generated_Source\PSoC5/BLE_UART.c ****     /*******************************************************************************
 844:.\Generated_Source\PSoC5/BLE_UART.c ****     * Function Name: BLE_UART_SetRxAddress1
 845:.\Generated_Source\PSoC5/BLE_UART.c ****     ********************************************************************************
 846:.\Generated_Source\PSoC5/BLE_UART.c ****     *
 847:.\Generated_Source\PSoC5/BLE_UART.c ****     * Summary:
 848:.\Generated_Source\PSoC5/BLE_UART.c ****     *  Sets the first of two hardware-detectable receiver addresses.
 849:.\Generated_Source\PSoC5/BLE_UART.c ****     *
 850:.\Generated_Source\PSoC5/BLE_UART.c ****     * Parameters:
 851:.\Generated_Source\PSoC5/BLE_UART.c ****     *  address: Address #1 for hardware address detection.
 852:.\Generated_Source\PSoC5/BLE_UART.c ****     *
 853:.\Generated_Source\PSoC5/BLE_UART.c ****     * Return:
 854:.\Generated_Source\PSoC5/BLE_UART.c ****     *  None.
 855:.\Generated_Source\PSoC5/BLE_UART.c ****     *
 856:.\Generated_Source\PSoC5/BLE_UART.c ****     *******************************************************************************/
 857:.\Generated_Source\PSoC5/BLE_UART.c ****     void BLE_UART_SetRxAddress1(uint8 address) 
 858:.\Generated_Source\PSoC5/BLE_UART.c ****     {
 475              		.loc 1 858 0
 476              		.cfi_startproc
 477              		@ args = 0, pretend = 0, frame = 0
 478              		@ frame_needed = 0, uses_anonymous_args = 0
 479              		@ link register save eliminated.
 480              	.LVL29:
 859:.\Generated_Source\PSoC5/BLE_UART.c ****         BLE_UART_RXADDRESS1_REG = address;
 481              		.loc 1 859 0
 482 0000 014B     		ldr	r3, .L47
 483 0002 1870     		strb	r0, [r3]
 484 0004 7047     		bx	lr
 485              	.L48:
 486 0006 00BF     		.align	2
 487              	.L47:
 488 0008 2D640040 		.word	1073767469
 489              		.cfi_endproc
 490              	.LFE14:
 491              		.size	BLE_UART_SetRxAddress1, .-BLE_UART_SetRxAddress1
 492              		.section	.text.BLE_UART_SetRxAddress2,"ax",%progbits
 493              		.align	2
 494              		.global	BLE_UART_SetRxAddress2
 495              		.thumb
 496              		.thumb_func
 497              		.type	BLE_UART_SetRxAddress2, %function
 498              	BLE_UART_SetRxAddress2:
 499              	.LFB15:
 860:.\Generated_Source\PSoC5/BLE_UART.c ****     }
 861:.\Generated_Source\PSoC5/BLE_UART.c **** 
 862:.\Generated_Source\PSoC5/BLE_UART.c **** 
 863:.\Generated_Source\PSoC5/BLE_UART.c ****     /*******************************************************************************
ARM GAS  C:\Users\User\AppData\Local\Temp\cc4Asa41.s 			page 25


 864:.\Generated_Source\PSoC5/BLE_UART.c ****     * Function Name: BLE_UART_SetRxAddress2
 865:.\Generated_Source\PSoC5/BLE_UART.c ****     ********************************************************************************
 866:.\Generated_Source\PSoC5/BLE_UART.c ****     *
 867:.\Generated_Source\PSoC5/BLE_UART.c ****     * Summary:
 868:.\Generated_Source\PSoC5/BLE_UART.c ****     *  Sets the second of two hardware-detectable receiver addresses.
 869:.\Generated_Source\PSoC5/BLE_UART.c ****     *
 870:.\Generated_Source\PSoC5/BLE_UART.c ****     * Parameters:
 871:.\Generated_Source\PSoC5/BLE_UART.c ****     *  address: Address #2 for hardware address detection.
 872:.\Generated_Source\PSoC5/BLE_UART.c ****     *
 873:.\Generated_Source\PSoC5/BLE_UART.c ****     * Return:
 874:.\Generated_Source\PSoC5/BLE_UART.c ****     *  None.
 875:.\Generated_Source\PSoC5/BLE_UART.c ****     *
 876:.\Generated_Source\PSoC5/BLE_UART.c ****     *******************************************************************************/
 877:.\Generated_Source\PSoC5/BLE_UART.c ****     void BLE_UART_SetRxAddress2(uint8 address) 
 878:.\Generated_Source\PSoC5/BLE_UART.c ****     {
 500              		.loc 1 878 0
 501              		.cfi_startproc
 502              		@ args = 0, pretend = 0, frame = 0
 503              		@ frame_needed = 0, uses_anonymous_args = 0
 504              		@ link register save eliminated.
 505              	.LVL30:
 879:.\Generated_Source\PSoC5/BLE_UART.c ****         BLE_UART_RXADDRESS2_REG = address;
 506              		.loc 1 879 0
 507 0000 014B     		ldr	r3, .L50
 508 0002 1870     		strb	r0, [r3]
 509 0004 7047     		bx	lr
 510              	.L51:
 511 0006 00BF     		.align	2
 512              	.L50:
 513 0008 3D640040 		.word	1073767485
 514              		.cfi_endproc
 515              	.LFE15:
 516              		.size	BLE_UART_SetRxAddress2, .-BLE_UART_SetRxAddress2
 517              		.global	BLE_UART_initVar
 518              		.bss
 519              		.set	.LANCHOR0,. + 0
 520              		.type	BLE_UART_initVar, %object
 521              		.size	BLE_UART_initVar, 1
 522              	BLE_UART_initVar:
 523 0000 00       		.space	1
 524              		.text
 525              	.Letext0:
 526              		.file 2 ".\\Generated_Source\\PSoC5\\cytypes.h"
 527              		.file 3 ".\\Generated_Source\\PSoC5\\BLE_UART_IntClock.h"
 528              		.file 4 ".\\Generated_Source\\PSoC5\\CyLib.h"