ARM GAS  C:\Users\User\AppData\Local\Temp\ccEEk8W1.s 			page 1


   1              		.syntax unified
   2              		.cpu cortex-m3
   3              		.fpu softvfp
   4              		.eabi_attribute 20, 1
   5              		.eabi_attribute 21, 1
   6              		.eabi_attribute 23, 3
   7              		.eabi_attribute 24, 1
   8              		.eabi_attribute 25, 1
   9              		.eabi_attribute 26, 1
  10              		.eabi_attribute 30, 1
  11              		.eabi_attribute 34, 1
  12              		.eabi_attribute 18, 4
  13              		.thumb
  14              		.file	"BLE_Rx_isr.c"
  15              		.text
  16              	.Ltext0:
  17              		.cfi_sections	.debug_frame
  18              		.section	.text.BLE_Rx_isr_Interrupt,"ax",%progbits
  19              		.align	2
  20              		.global	BLE_Rx_isr_Interrupt
  21              		.thumb
  22              		.thumb_func
  23              		.type	BLE_Rx_isr_Interrupt, %function
  24              	BLE_Rx_isr_Interrupt:
  25              	.LFB3:
  26              		.file 1 ".\\Generated_Source\\PSoC5\\BLE_Rx_isr.c"
   1:.\Generated_Source\PSoC5/BLE_Rx_isr.c **** /*******************************************************************************
   2:.\Generated_Source\PSoC5/BLE_Rx_isr.c **** * File Name: BLE_Rx_isr.c  
   3:.\Generated_Source\PSoC5/BLE_Rx_isr.c **** * Version 1.70
   4:.\Generated_Source\PSoC5/BLE_Rx_isr.c **** *
   5:.\Generated_Source\PSoC5/BLE_Rx_isr.c **** *  Description:
   6:.\Generated_Source\PSoC5/BLE_Rx_isr.c **** *   API for controlling the state of an interrupt.
   7:.\Generated_Source\PSoC5/BLE_Rx_isr.c **** *
   8:.\Generated_Source\PSoC5/BLE_Rx_isr.c **** *
   9:.\Generated_Source\PSoC5/BLE_Rx_isr.c **** *  Note:
  10:.\Generated_Source\PSoC5/BLE_Rx_isr.c **** *
  11:.\Generated_Source\PSoC5/BLE_Rx_isr.c **** ********************************************************************************
  12:.\Generated_Source\PSoC5/BLE_Rx_isr.c **** * Copyright 2008-2015, Cypress Semiconductor Corporation.  All rights reserved.
  13:.\Generated_Source\PSoC5/BLE_Rx_isr.c **** * You may use this file only in accordance with the license, terms, conditions, 
  14:.\Generated_Source\PSoC5/BLE_Rx_isr.c **** * disclaimers, and limitations in the end user license agreement accompanying 
  15:.\Generated_Source\PSoC5/BLE_Rx_isr.c **** * the software package with which this file was provided.
  16:.\Generated_Source\PSoC5/BLE_Rx_isr.c **** *******************************************************************************/
  17:.\Generated_Source\PSoC5/BLE_Rx_isr.c **** 
  18:.\Generated_Source\PSoC5/BLE_Rx_isr.c **** 
  19:.\Generated_Source\PSoC5/BLE_Rx_isr.c **** #include <cydevice_trm.h>
  20:.\Generated_Source\PSoC5/BLE_Rx_isr.c **** #include <CyLib.h>
  21:.\Generated_Source\PSoC5/BLE_Rx_isr.c **** #include <BLE_Rx_isr.h>
  22:.\Generated_Source\PSoC5/BLE_Rx_isr.c **** #include "cyapicallbacks.h"
  23:.\Generated_Source\PSoC5/BLE_Rx_isr.c **** 
  24:.\Generated_Source\PSoC5/BLE_Rx_isr.c **** #if !defined(BLE_Rx_isr__REMOVED) /* Check for removal by optimization */
  25:.\Generated_Source\PSoC5/BLE_Rx_isr.c **** 
  26:.\Generated_Source\PSoC5/BLE_Rx_isr.c **** /*******************************************************************************
  27:.\Generated_Source\PSoC5/BLE_Rx_isr.c **** *  Place your includes, defines and code here 
  28:.\Generated_Source\PSoC5/BLE_Rx_isr.c **** ********************************************************************************/
  29:.\Generated_Source\PSoC5/BLE_Rx_isr.c **** /* `#START BLE_Rx_isr_intc` */
  30:.\Generated_Source\PSoC5/BLE_Rx_isr.c **** 
  31:.\Generated_Source\PSoC5/BLE_Rx_isr.c **** /* `#END` */
ARM GAS  C:\Users\User\AppData\Local\Temp\ccEEk8W1.s 			page 2


  32:.\Generated_Source\PSoC5/BLE_Rx_isr.c **** 
  33:.\Generated_Source\PSoC5/BLE_Rx_isr.c **** #ifndef CYINT_IRQ_BASE
  34:.\Generated_Source\PSoC5/BLE_Rx_isr.c **** #define CYINT_IRQ_BASE      16
  35:.\Generated_Source\PSoC5/BLE_Rx_isr.c **** #endif /* CYINT_IRQ_BASE */
  36:.\Generated_Source\PSoC5/BLE_Rx_isr.c **** #ifndef CYINT_VECT_TABLE
  37:.\Generated_Source\PSoC5/BLE_Rx_isr.c **** #define CYINT_VECT_TABLE    ((cyisraddress **) CYREG_NVIC_VECT_OFFSET)
  38:.\Generated_Source\PSoC5/BLE_Rx_isr.c **** #endif /* CYINT_VECT_TABLE */
  39:.\Generated_Source\PSoC5/BLE_Rx_isr.c **** 
  40:.\Generated_Source\PSoC5/BLE_Rx_isr.c **** /* Declared in startup, used to set unused interrupts to. */
  41:.\Generated_Source\PSoC5/BLE_Rx_isr.c **** CY_ISR_PROTO(IntDefaultHandler);
  42:.\Generated_Source\PSoC5/BLE_Rx_isr.c **** 
  43:.\Generated_Source\PSoC5/BLE_Rx_isr.c **** 
  44:.\Generated_Source\PSoC5/BLE_Rx_isr.c **** /*******************************************************************************
  45:.\Generated_Source\PSoC5/BLE_Rx_isr.c **** * Function Name: BLE_Rx_isr_Start
  46:.\Generated_Source\PSoC5/BLE_Rx_isr.c **** ********************************************************************************
  47:.\Generated_Source\PSoC5/BLE_Rx_isr.c **** *
  48:.\Generated_Source\PSoC5/BLE_Rx_isr.c **** * Summary:
  49:.\Generated_Source\PSoC5/BLE_Rx_isr.c **** *  Set up the interrupt and enable it. This function disables the interrupt, 
  50:.\Generated_Source\PSoC5/BLE_Rx_isr.c **** *  sets the default interrupt vector, sets the priority from the value in the
  51:.\Generated_Source\PSoC5/BLE_Rx_isr.c **** *  Design Wide Resources Interrupt Editor, then enables the interrupt to the 
  52:.\Generated_Source\PSoC5/BLE_Rx_isr.c **** *  interrupt controller.
  53:.\Generated_Source\PSoC5/BLE_Rx_isr.c **** *
  54:.\Generated_Source\PSoC5/BLE_Rx_isr.c **** * Parameters:  
  55:.\Generated_Source\PSoC5/BLE_Rx_isr.c **** *   None
  56:.\Generated_Source\PSoC5/BLE_Rx_isr.c **** *
  57:.\Generated_Source\PSoC5/BLE_Rx_isr.c **** * Return:
  58:.\Generated_Source\PSoC5/BLE_Rx_isr.c **** *   None
  59:.\Generated_Source\PSoC5/BLE_Rx_isr.c **** *
  60:.\Generated_Source\PSoC5/BLE_Rx_isr.c **** *******************************************************************************/
  61:.\Generated_Source\PSoC5/BLE_Rx_isr.c **** void BLE_Rx_isr_Start(void)
  62:.\Generated_Source\PSoC5/BLE_Rx_isr.c **** {
  63:.\Generated_Source\PSoC5/BLE_Rx_isr.c ****     /* For all we know the interrupt is active. */
  64:.\Generated_Source\PSoC5/BLE_Rx_isr.c ****     BLE_Rx_isr_Disable();
  65:.\Generated_Source\PSoC5/BLE_Rx_isr.c **** 
  66:.\Generated_Source\PSoC5/BLE_Rx_isr.c ****     /* Set the ISR to point to the BLE_Rx_isr Interrupt. */
  67:.\Generated_Source\PSoC5/BLE_Rx_isr.c ****     BLE_Rx_isr_SetVector(&BLE_Rx_isr_Interrupt);
  68:.\Generated_Source\PSoC5/BLE_Rx_isr.c **** 
  69:.\Generated_Source\PSoC5/BLE_Rx_isr.c ****     /* Set the priority. */
  70:.\Generated_Source\PSoC5/BLE_Rx_isr.c ****     BLE_Rx_isr_SetPriority((uint8)BLE_Rx_isr_INTC_PRIOR_NUMBER);
  71:.\Generated_Source\PSoC5/BLE_Rx_isr.c **** 
  72:.\Generated_Source\PSoC5/BLE_Rx_isr.c ****     /* Enable it. */
  73:.\Generated_Source\PSoC5/BLE_Rx_isr.c ****     BLE_Rx_isr_Enable();
  74:.\Generated_Source\PSoC5/BLE_Rx_isr.c **** }
  75:.\Generated_Source\PSoC5/BLE_Rx_isr.c **** 
  76:.\Generated_Source\PSoC5/BLE_Rx_isr.c **** 
  77:.\Generated_Source\PSoC5/BLE_Rx_isr.c **** /*******************************************************************************
  78:.\Generated_Source\PSoC5/BLE_Rx_isr.c **** * Function Name: BLE_Rx_isr_StartEx
  79:.\Generated_Source\PSoC5/BLE_Rx_isr.c **** ********************************************************************************
  80:.\Generated_Source\PSoC5/BLE_Rx_isr.c **** *
  81:.\Generated_Source\PSoC5/BLE_Rx_isr.c **** * Summary:
  82:.\Generated_Source\PSoC5/BLE_Rx_isr.c **** *  Sets up the interrupt and enables it. This function disables the interrupt,
  83:.\Generated_Source\PSoC5/BLE_Rx_isr.c **** *  sets the interrupt vector based on the address passed in, sets the priority 
  84:.\Generated_Source\PSoC5/BLE_Rx_isr.c **** *  from the value in the Design Wide Resources Interrupt Editor, then enables 
  85:.\Generated_Source\PSoC5/BLE_Rx_isr.c **** *  the interrupt to the interrupt controller.
  86:.\Generated_Source\PSoC5/BLE_Rx_isr.c **** *  
  87:.\Generated_Source\PSoC5/BLE_Rx_isr.c **** *  When defining ISR functions, the CY_ISR and CY_ISR_PROTO macros should be 
  88:.\Generated_Source\PSoC5/BLE_Rx_isr.c **** *  used to provide consistent definition across compilers:
ARM GAS  C:\Users\User\AppData\Local\Temp\ccEEk8W1.s 			page 3


  89:.\Generated_Source\PSoC5/BLE_Rx_isr.c **** *  
  90:.\Generated_Source\PSoC5/BLE_Rx_isr.c **** *  Function definition example:
  91:.\Generated_Source\PSoC5/BLE_Rx_isr.c **** *   CY_ISR(MyISR)
  92:.\Generated_Source\PSoC5/BLE_Rx_isr.c **** *   {
  93:.\Generated_Source\PSoC5/BLE_Rx_isr.c **** *   }
  94:.\Generated_Source\PSoC5/BLE_Rx_isr.c **** *   Function prototype example:
  95:.\Generated_Source\PSoC5/BLE_Rx_isr.c **** *   CY_ISR_PROTO(MyISR);
  96:.\Generated_Source\PSoC5/BLE_Rx_isr.c **** *
  97:.\Generated_Source\PSoC5/BLE_Rx_isr.c **** * Parameters:  
  98:.\Generated_Source\PSoC5/BLE_Rx_isr.c **** *   address: Address of the ISR to set in the interrupt vector table.
  99:.\Generated_Source\PSoC5/BLE_Rx_isr.c **** *
 100:.\Generated_Source\PSoC5/BLE_Rx_isr.c **** * Return:
 101:.\Generated_Source\PSoC5/BLE_Rx_isr.c **** *   None
 102:.\Generated_Source\PSoC5/BLE_Rx_isr.c **** *
 103:.\Generated_Source\PSoC5/BLE_Rx_isr.c **** *******************************************************************************/
 104:.\Generated_Source\PSoC5/BLE_Rx_isr.c **** void BLE_Rx_isr_StartEx(cyisraddress address)
 105:.\Generated_Source\PSoC5/BLE_Rx_isr.c **** {
 106:.\Generated_Source\PSoC5/BLE_Rx_isr.c ****     /* For all we know the interrupt is active. */
 107:.\Generated_Source\PSoC5/BLE_Rx_isr.c ****     BLE_Rx_isr_Disable();
 108:.\Generated_Source\PSoC5/BLE_Rx_isr.c **** 
 109:.\Generated_Source\PSoC5/BLE_Rx_isr.c ****     /* Set the ISR to point to the BLE_Rx_isr Interrupt. */
 110:.\Generated_Source\PSoC5/BLE_Rx_isr.c ****     BLE_Rx_isr_SetVector(address);
 111:.\Generated_Source\PSoC5/BLE_Rx_isr.c **** 
 112:.\Generated_Source\PSoC5/BLE_Rx_isr.c ****     /* Set the priority. */
 113:.\Generated_Source\PSoC5/BLE_Rx_isr.c ****     BLE_Rx_isr_SetPriority((uint8)BLE_Rx_isr_INTC_PRIOR_NUMBER);
 114:.\Generated_Source\PSoC5/BLE_Rx_isr.c **** 
 115:.\Generated_Source\PSoC5/BLE_Rx_isr.c ****     /* Enable it. */
 116:.\Generated_Source\PSoC5/BLE_Rx_isr.c ****     BLE_Rx_isr_Enable();
 117:.\Generated_Source\PSoC5/BLE_Rx_isr.c **** }
 118:.\Generated_Source\PSoC5/BLE_Rx_isr.c **** 
 119:.\Generated_Source\PSoC5/BLE_Rx_isr.c **** 
 120:.\Generated_Source\PSoC5/BLE_Rx_isr.c **** /*******************************************************************************
 121:.\Generated_Source\PSoC5/BLE_Rx_isr.c **** * Function Name: BLE_Rx_isr_Stop
 122:.\Generated_Source\PSoC5/BLE_Rx_isr.c **** ********************************************************************************
 123:.\Generated_Source\PSoC5/BLE_Rx_isr.c **** *
 124:.\Generated_Source\PSoC5/BLE_Rx_isr.c **** * Summary:
 125:.\Generated_Source\PSoC5/BLE_Rx_isr.c **** *   Disables and removes the interrupt.
 126:.\Generated_Source\PSoC5/BLE_Rx_isr.c **** *
 127:.\Generated_Source\PSoC5/BLE_Rx_isr.c **** * Parameters:  
 128:.\Generated_Source\PSoC5/BLE_Rx_isr.c **** *   None
 129:.\Generated_Source\PSoC5/BLE_Rx_isr.c **** *
 130:.\Generated_Source\PSoC5/BLE_Rx_isr.c **** * Return:
 131:.\Generated_Source\PSoC5/BLE_Rx_isr.c **** *   None
 132:.\Generated_Source\PSoC5/BLE_Rx_isr.c **** *
 133:.\Generated_Source\PSoC5/BLE_Rx_isr.c **** *******************************************************************************/
 134:.\Generated_Source\PSoC5/BLE_Rx_isr.c **** void BLE_Rx_isr_Stop(void)
 135:.\Generated_Source\PSoC5/BLE_Rx_isr.c **** {
 136:.\Generated_Source\PSoC5/BLE_Rx_isr.c ****     /* Disable this interrupt. */
 137:.\Generated_Source\PSoC5/BLE_Rx_isr.c ****     BLE_Rx_isr_Disable();
 138:.\Generated_Source\PSoC5/BLE_Rx_isr.c **** 
 139:.\Generated_Source\PSoC5/BLE_Rx_isr.c ****     /* Set the ISR to point to the passive one. */
 140:.\Generated_Source\PSoC5/BLE_Rx_isr.c ****     BLE_Rx_isr_SetVector(&IntDefaultHandler);
 141:.\Generated_Source\PSoC5/BLE_Rx_isr.c **** }
 142:.\Generated_Source\PSoC5/BLE_Rx_isr.c **** 
 143:.\Generated_Source\PSoC5/BLE_Rx_isr.c **** 
 144:.\Generated_Source\PSoC5/BLE_Rx_isr.c **** /*******************************************************************************
 145:.\Generated_Source\PSoC5/BLE_Rx_isr.c **** * Function Name: BLE_Rx_isr_Interrupt
ARM GAS  C:\Users\User\AppData\Local\Temp\ccEEk8W1.s 			page 4


 146:.\Generated_Source\PSoC5/BLE_Rx_isr.c **** ********************************************************************************
 147:.\Generated_Source\PSoC5/BLE_Rx_isr.c **** *
 148:.\Generated_Source\PSoC5/BLE_Rx_isr.c **** * Summary:
 149:.\Generated_Source\PSoC5/BLE_Rx_isr.c **** *   The default Interrupt Service Routine for BLE_Rx_isr.
 150:.\Generated_Source\PSoC5/BLE_Rx_isr.c **** *
 151:.\Generated_Source\PSoC5/BLE_Rx_isr.c **** *   Add custom code between the coments to keep the next version of this file
 152:.\Generated_Source\PSoC5/BLE_Rx_isr.c **** *   from over writting your code.
 153:.\Generated_Source\PSoC5/BLE_Rx_isr.c **** *
 154:.\Generated_Source\PSoC5/BLE_Rx_isr.c **** * Parameters:  
 155:.\Generated_Source\PSoC5/BLE_Rx_isr.c **** *
 156:.\Generated_Source\PSoC5/BLE_Rx_isr.c **** * Return:
 157:.\Generated_Source\PSoC5/BLE_Rx_isr.c **** *   None
 158:.\Generated_Source\PSoC5/BLE_Rx_isr.c **** *
 159:.\Generated_Source\PSoC5/BLE_Rx_isr.c **** *******************************************************************************/
 160:.\Generated_Source\PSoC5/BLE_Rx_isr.c **** CY_ISR(BLE_Rx_isr_Interrupt)
 161:.\Generated_Source\PSoC5/BLE_Rx_isr.c **** {
  27              		.loc 1 161 0
  28              		.cfi_startproc
  29              		@ args = 0, pretend = 0, frame = 0
  30              		@ frame_needed = 0, uses_anonymous_args = 0
  31              		@ link register save eliminated.
  32 0000 7047     		bx	lr
  33              		.cfi_endproc
  34              	.LFE3:
  35              		.size	BLE_Rx_isr_Interrupt, .-BLE_Rx_isr_Interrupt
  36 0002 00BF     		.section	.text.BLE_Rx_isr_SetVector,"ax",%progbits
  37              		.align	2
  38              		.global	BLE_Rx_isr_SetVector
  39              		.thumb
  40              		.thumb_func
  41              		.type	BLE_Rx_isr_SetVector, %function
  42              	BLE_Rx_isr_SetVector:
  43              	.LFB4:
 162:.\Generated_Source\PSoC5/BLE_Rx_isr.c ****     #ifdef BLE_Rx_isr_INTERRUPT_INTERRUPT_CALLBACK
 163:.\Generated_Source\PSoC5/BLE_Rx_isr.c ****         BLE_Rx_isr_Interrupt_InterruptCallback();
 164:.\Generated_Source\PSoC5/BLE_Rx_isr.c ****     #endif /* BLE_Rx_isr_INTERRUPT_INTERRUPT_CALLBACK */ 
 165:.\Generated_Source\PSoC5/BLE_Rx_isr.c **** 
 166:.\Generated_Source\PSoC5/BLE_Rx_isr.c ****     /*  Place your Interrupt code here. */
 167:.\Generated_Source\PSoC5/BLE_Rx_isr.c ****     /* `#START BLE_Rx_isr_Interrupt` */
 168:.\Generated_Source\PSoC5/BLE_Rx_isr.c **** 
 169:.\Generated_Source\PSoC5/BLE_Rx_isr.c ****     /* `#END` */
 170:.\Generated_Source\PSoC5/BLE_Rx_isr.c **** }
 171:.\Generated_Source\PSoC5/BLE_Rx_isr.c **** 
 172:.\Generated_Source\PSoC5/BLE_Rx_isr.c **** 
 173:.\Generated_Source\PSoC5/BLE_Rx_isr.c **** /*******************************************************************************
 174:.\Generated_Source\PSoC5/BLE_Rx_isr.c **** * Function Name: BLE_Rx_isr_SetVector
 175:.\Generated_Source\PSoC5/BLE_Rx_isr.c **** ********************************************************************************
 176:.\Generated_Source\PSoC5/BLE_Rx_isr.c **** *
 177:.\Generated_Source\PSoC5/BLE_Rx_isr.c **** * Summary:
 178:.\Generated_Source\PSoC5/BLE_Rx_isr.c **** *   Change the ISR vector for the Interrupt. Note calling BLE_Rx_isr_Start
 179:.\Generated_Source\PSoC5/BLE_Rx_isr.c **** *   will override any effect this method would have had. To set the vector 
 180:.\Generated_Source\PSoC5/BLE_Rx_isr.c **** *   before the component has been started use BLE_Rx_isr_StartEx instead.
 181:.\Generated_Source\PSoC5/BLE_Rx_isr.c **** * 
 182:.\Generated_Source\PSoC5/BLE_Rx_isr.c **** *   When defining ISR functions, the CY_ISR and CY_ISR_PROTO macros should be 
 183:.\Generated_Source\PSoC5/BLE_Rx_isr.c **** *   used to provide consistent definition across compilers:
 184:.\Generated_Source\PSoC5/BLE_Rx_isr.c **** *
 185:.\Generated_Source\PSoC5/BLE_Rx_isr.c **** *   Function definition example:
ARM GAS  C:\Users\User\AppData\Local\Temp\ccEEk8W1.s 			page 5


 186:.\Generated_Source\PSoC5/BLE_Rx_isr.c **** *   CY_ISR(MyISR)
 187:.\Generated_Source\PSoC5/BLE_Rx_isr.c **** *   {
 188:.\Generated_Source\PSoC5/BLE_Rx_isr.c **** *   }
 189:.\Generated_Source\PSoC5/BLE_Rx_isr.c **** *
 190:.\Generated_Source\PSoC5/BLE_Rx_isr.c **** *   Function prototype example:
 191:.\Generated_Source\PSoC5/BLE_Rx_isr.c **** *     CY_ISR_PROTO(MyISR);
 192:.\Generated_Source\PSoC5/BLE_Rx_isr.c **** *
 193:.\Generated_Source\PSoC5/BLE_Rx_isr.c **** * Parameters:
 194:.\Generated_Source\PSoC5/BLE_Rx_isr.c **** *   address: Address of the ISR to set in the interrupt vector table.
 195:.\Generated_Source\PSoC5/BLE_Rx_isr.c **** *
 196:.\Generated_Source\PSoC5/BLE_Rx_isr.c **** * Return:
 197:.\Generated_Source\PSoC5/BLE_Rx_isr.c **** *   None
 198:.\Generated_Source\PSoC5/BLE_Rx_isr.c **** *
 199:.\Generated_Source\PSoC5/BLE_Rx_isr.c **** *******************************************************************************/
 200:.\Generated_Source\PSoC5/BLE_Rx_isr.c **** void BLE_Rx_isr_SetVector(cyisraddress address)
 201:.\Generated_Source\PSoC5/BLE_Rx_isr.c **** {
  44              		.loc 1 201 0
  45              		.cfi_startproc
  46              		@ args = 0, pretend = 0, frame = 0
  47              		@ frame_needed = 0, uses_anonymous_args = 0
  48              		@ link register save eliminated.
  49              	.LVL0:
 202:.\Generated_Source\PSoC5/BLE_Rx_isr.c ****     cyisraddress * ramVectorTable;
 203:.\Generated_Source\PSoC5/BLE_Rx_isr.c **** 
 204:.\Generated_Source\PSoC5/BLE_Rx_isr.c ****     ramVectorTable = (cyisraddress *) *CYINT_VECT_TABLE;
  50              		.loc 1 204 0
  51 0000 014B     		ldr	r3, .L3
  52 0002 1B68     		ldr	r3, [r3]
  53              	.LVL1:
 205:.\Generated_Source\PSoC5/BLE_Rx_isr.c **** 
 206:.\Generated_Source\PSoC5/BLE_Rx_isr.c ****     ramVectorTable[CYINT_IRQ_BASE + (uint32)BLE_Rx_isr__INTC_NUMBER] = address;
  54              		.loc 1 206 0
  55 0004 1864     		str	r0, [r3, #64]
  56 0006 7047     		bx	lr
  57              	.L4:
  58              		.align	2
  59              	.L3:
  60 0008 08ED00E0 		.word	-536810232
  61              		.cfi_endproc
  62              	.LFE4:
  63              		.size	BLE_Rx_isr_SetVector, .-BLE_Rx_isr_SetVector
  64              		.section	.text.BLE_Rx_isr_GetVector,"ax",%progbits
  65              		.align	2
  66              		.global	BLE_Rx_isr_GetVector
  67              		.thumb
  68              		.thumb_func
  69              		.type	BLE_Rx_isr_GetVector, %function
  70              	BLE_Rx_isr_GetVector:
  71              	.LFB5:
 207:.\Generated_Source\PSoC5/BLE_Rx_isr.c **** }
 208:.\Generated_Source\PSoC5/BLE_Rx_isr.c **** 
 209:.\Generated_Source\PSoC5/BLE_Rx_isr.c **** 
 210:.\Generated_Source\PSoC5/BLE_Rx_isr.c **** /*******************************************************************************
 211:.\Generated_Source\PSoC5/BLE_Rx_isr.c **** * Function Name: BLE_Rx_isr_GetVector
 212:.\Generated_Source\PSoC5/BLE_Rx_isr.c **** ********************************************************************************
 213:.\Generated_Source\PSoC5/BLE_Rx_isr.c **** *
 214:.\Generated_Source\PSoC5/BLE_Rx_isr.c **** * Summary:
ARM GAS  C:\Users\User\AppData\Local\Temp\ccEEk8W1.s 			page 6


 215:.\Generated_Source\PSoC5/BLE_Rx_isr.c **** *   Gets the "address" of the current ISR vector for the Interrupt.
 216:.\Generated_Source\PSoC5/BLE_Rx_isr.c **** *
 217:.\Generated_Source\PSoC5/BLE_Rx_isr.c **** * Parameters:
 218:.\Generated_Source\PSoC5/BLE_Rx_isr.c **** *   None
 219:.\Generated_Source\PSoC5/BLE_Rx_isr.c **** *
 220:.\Generated_Source\PSoC5/BLE_Rx_isr.c **** * Return:
 221:.\Generated_Source\PSoC5/BLE_Rx_isr.c **** *   Address of the ISR in the interrupt vector table.
 222:.\Generated_Source\PSoC5/BLE_Rx_isr.c **** *
 223:.\Generated_Source\PSoC5/BLE_Rx_isr.c **** *******************************************************************************/
 224:.\Generated_Source\PSoC5/BLE_Rx_isr.c **** cyisraddress BLE_Rx_isr_GetVector(void)
 225:.\Generated_Source\PSoC5/BLE_Rx_isr.c **** {
  72              		.loc 1 225 0
  73              		.cfi_startproc
  74              		@ args = 0, pretend = 0, frame = 0
  75              		@ frame_needed = 0, uses_anonymous_args = 0
  76              		@ link register save eliminated.
 226:.\Generated_Source\PSoC5/BLE_Rx_isr.c ****     cyisraddress * ramVectorTable;
 227:.\Generated_Source\PSoC5/BLE_Rx_isr.c **** 
 228:.\Generated_Source\PSoC5/BLE_Rx_isr.c ****     ramVectorTable = (cyisraddress *) *CYINT_VECT_TABLE;
  77              		.loc 1 228 0
  78 0000 014B     		ldr	r3, .L6
  79 0002 1B68     		ldr	r3, [r3]
  80              	.LVL2:
 229:.\Generated_Source\PSoC5/BLE_Rx_isr.c **** 
 230:.\Generated_Source\PSoC5/BLE_Rx_isr.c ****     return ramVectorTable[CYINT_IRQ_BASE + (uint32)BLE_Rx_isr__INTC_NUMBER];
 231:.\Generated_Source\PSoC5/BLE_Rx_isr.c **** }
  81              		.loc 1 231 0
  82 0004 186C     		ldr	r0, [r3, #64]
  83 0006 7047     		bx	lr
  84              	.L7:
  85              		.align	2
  86              	.L6:
  87 0008 08ED00E0 		.word	-536810232
  88              		.cfi_endproc
  89              	.LFE5:
  90              		.size	BLE_Rx_isr_GetVector, .-BLE_Rx_isr_GetVector
  91              		.section	.text.BLE_Rx_isr_SetPriority,"ax",%progbits
  92              		.align	2
  93              		.global	BLE_Rx_isr_SetPriority
  94              		.thumb
  95              		.thumb_func
  96              		.type	BLE_Rx_isr_SetPriority, %function
  97              	BLE_Rx_isr_SetPriority:
  98              	.LFB6:
 232:.\Generated_Source\PSoC5/BLE_Rx_isr.c **** 
 233:.\Generated_Source\PSoC5/BLE_Rx_isr.c **** 
 234:.\Generated_Source\PSoC5/BLE_Rx_isr.c **** /*******************************************************************************
 235:.\Generated_Source\PSoC5/BLE_Rx_isr.c **** * Function Name: BLE_Rx_isr_SetPriority
 236:.\Generated_Source\PSoC5/BLE_Rx_isr.c **** ********************************************************************************
 237:.\Generated_Source\PSoC5/BLE_Rx_isr.c **** *
 238:.\Generated_Source\PSoC5/BLE_Rx_isr.c **** * Summary:
 239:.\Generated_Source\PSoC5/BLE_Rx_isr.c **** *   Sets the Priority of the Interrupt. 
 240:.\Generated_Source\PSoC5/BLE_Rx_isr.c **** *
 241:.\Generated_Source\PSoC5/BLE_Rx_isr.c **** *   Note calling BLE_Rx_isr_Start or BLE_Rx_isr_StartEx will 
 242:.\Generated_Source\PSoC5/BLE_Rx_isr.c **** *   override any effect this API would have had. This API should only be called
 243:.\Generated_Source\PSoC5/BLE_Rx_isr.c **** *   after BLE_Rx_isr_Start or BLE_Rx_isr_StartEx has been called. 
 244:.\Generated_Source\PSoC5/BLE_Rx_isr.c **** *   To set the initial priority for the component, use the Design-Wide Resources
ARM GAS  C:\Users\User\AppData\Local\Temp\ccEEk8W1.s 			page 7


 245:.\Generated_Source\PSoC5/BLE_Rx_isr.c **** *   Interrupt Editor.
 246:.\Generated_Source\PSoC5/BLE_Rx_isr.c **** *
 247:.\Generated_Source\PSoC5/BLE_Rx_isr.c **** *   Note This API has no effect on Non-maskable interrupt NMI).
 248:.\Generated_Source\PSoC5/BLE_Rx_isr.c **** *
 249:.\Generated_Source\PSoC5/BLE_Rx_isr.c **** * Parameters:
 250:.\Generated_Source\PSoC5/BLE_Rx_isr.c **** *   priority: Priority of the interrupt, 0 being the highest priority
 251:.\Generated_Source\PSoC5/BLE_Rx_isr.c **** *             PSoC 3 and PSoC 5LP: Priority is from 0 to 7.
 252:.\Generated_Source\PSoC5/BLE_Rx_isr.c **** *             PSoC 4: Priority is from 0 to 3.
 253:.\Generated_Source\PSoC5/BLE_Rx_isr.c **** *
 254:.\Generated_Source\PSoC5/BLE_Rx_isr.c **** * Return:
 255:.\Generated_Source\PSoC5/BLE_Rx_isr.c **** *   None
 256:.\Generated_Source\PSoC5/BLE_Rx_isr.c **** *
 257:.\Generated_Source\PSoC5/BLE_Rx_isr.c **** *******************************************************************************/
 258:.\Generated_Source\PSoC5/BLE_Rx_isr.c **** void BLE_Rx_isr_SetPriority(uint8 priority)
 259:.\Generated_Source\PSoC5/BLE_Rx_isr.c **** {
  99              		.loc 1 259 0
 100              		.cfi_startproc
 101              		@ args = 0, pretend = 0, frame = 0
 102              		@ frame_needed = 0, uses_anonymous_args = 0
 103              		@ link register save eliminated.
 104              	.LVL3:
 260:.\Generated_Source\PSoC5/BLE_Rx_isr.c ****     *BLE_Rx_isr_INTC_PRIOR = priority << 5;
 105              		.loc 1 260 0
 106 0000 4001     		lsls	r0, r0, #5
 107              	.LVL4:
 108 0002 C0B2     		uxtb	r0, r0
 109 0004 014B     		ldr	r3, .L9
 110 0006 1870     		strb	r0, [r3]
 111 0008 7047     		bx	lr
 112              	.L10:
 113 000a 00BF     		.align	2
 114              	.L9:
 115 000c 00E400E0 		.word	-536812544
 116              		.cfi_endproc
 117              	.LFE6:
 118              		.size	BLE_Rx_isr_SetPriority, .-BLE_Rx_isr_SetPriority
 119              		.section	.text.BLE_Rx_isr_GetPriority,"ax",%progbits
 120              		.align	2
 121              		.global	BLE_Rx_isr_GetPriority
 122              		.thumb
 123              		.thumb_func
 124              		.type	BLE_Rx_isr_GetPriority, %function
 125              	BLE_Rx_isr_GetPriority:
 126              	.LFB7:
 261:.\Generated_Source\PSoC5/BLE_Rx_isr.c **** }
 262:.\Generated_Source\PSoC5/BLE_Rx_isr.c **** 
 263:.\Generated_Source\PSoC5/BLE_Rx_isr.c **** 
 264:.\Generated_Source\PSoC5/BLE_Rx_isr.c **** /*******************************************************************************
 265:.\Generated_Source\PSoC5/BLE_Rx_isr.c **** * Function Name: BLE_Rx_isr_GetPriority
 266:.\Generated_Source\PSoC5/BLE_Rx_isr.c **** ********************************************************************************
 267:.\Generated_Source\PSoC5/BLE_Rx_isr.c **** *
 268:.\Generated_Source\PSoC5/BLE_Rx_isr.c **** * Summary:
 269:.\Generated_Source\PSoC5/BLE_Rx_isr.c **** *   Gets the Priority of the Interrupt.
 270:.\Generated_Source\PSoC5/BLE_Rx_isr.c **** *
 271:.\Generated_Source\PSoC5/BLE_Rx_isr.c **** * Parameters:
 272:.\Generated_Source\PSoC5/BLE_Rx_isr.c **** *   None
 273:.\Generated_Source\PSoC5/BLE_Rx_isr.c **** *
ARM GAS  C:\Users\User\AppData\Local\Temp\ccEEk8W1.s 			page 8


 274:.\Generated_Source\PSoC5/BLE_Rx_isr.c **** * Return:
 275:.\Generated_Source\PSoC5/BLE_Rx_isr.c **** *   Priority of the interrupt, 0 being the highest priority
 276:.\Generated_Source\PSoC5/BLE_Rx_isr.c **** *    PSoC 3 and PSoC 5LP: Priority is from 0 to 7.
 277:.\Generated_Source\PSoC5/BLE_Rx_isr.c **** *    PSoC 4: Priority is from 0 to 3.
 278:.\Generated_Source\PSoC5/BLE_Rx_isr.c **** *
 279:.\Generated_Source\PSoC5/BLE_Rx_isr.c **** *******************************************************************************/
 280:.\Generated_Source\PSoC5/BLE_Rx_isr.c **** uint8 BLE_Rx_isr_GetPriority(void)
 281:.\Generated_Source\PSoC5/BLE_Rx_isr.c **** {
 127              		.loc 1 281 0
 128              		.cfi_startproc
 129              		@ args = 0, pretend = 0, frame = 0
 130              		@ frame_needed = 0, uses_anonymous_args = 0
 131              		@ link register save eliminated.
 282:.\Generated_Source\PSoC5/BLE_Rx_isr.c ****     uint8 priority;
 283:.\Generated_Source\PSoC5/BLE_Rx_isr.c **** 
 284:.\Generated_Source\PSoC5/BLE_Rx_isr.c **** 
 285:.\Generated_Source\PSoC5/BLE_Rx_isr.c ****     priority = *BLE_Rx_isr_INTC_PRIOR >> 5;
 132              		.loc 1 285 0
 133 0000 014B     		ldr	r3, .L12
 134 0002 1878     		ldrb	r0, [r3]	@ zero_extendqisi2
 135              	.LVL5:
 286:.\Generated_Source\PSoC5/BLE_Rx_isr.c **** 
 287:.\Generated_Source\PSoC5/BLE_Rx_isr.c ****     return priority;
 288:.\Generated_Source\PSoC5/BLE_Rx_isr.c **** }
 136              		.loc 1 288 0
 137 0004 4009     		lsrs	r0, r0, #5
 138              	.LVL6:
 139 0006 7047     		bx	lr
 140              	.L13:
 141              		.align	2
 142              	.L12:
 143 0008 00E400E0 		.word	-536812544
 144              		.cfi_endproc
 145              	.LFE7:
 146              		.size	BLE_Rx_isr_GetPriority, .-BLE_Rx_isr_GetPriority
 147              		.section	.text.BLE_Rx_isr_Enable,"ax",%progbits
 148              		.align	2
 149              		.global	BLE_Rx_isr_Enable
 150              		.thumb
 151              		.thumb_func
 152              		.type	BLE_Rx_isr_Enable, %function
 153              	BLE_Rx_isr_Enable:
 154              	.LFB8:
 289:.\Generated_Source\PSoC5/BLE_Rx_isr.c **** 
 290:.\Generated_Source\PSoC5/BLE_Rx_isr.c **** 
 291:.\Generated_Source\PSoC5/BLE_Rx_isr.c **** /*******************************************************************************
 292:.\Generated_Source\PSoC5/BLE_Rx_isr.c **** * Function Name: BLE_Rx_isr_Enable
 293:.\Generated_Source\PSoC5/BLE_Rx_isr.c **** ********************************************************************************
 294:.\Generated_Source\PSoC5/BLE_Rx_isr.c **** *
 295:.\Generated_Source\PSoC5/BLE_Rx_isr.c **** * Summary:
 296:.\Generated_Source\PSoC5/BLE_Rx_isr.c **** *   Enables the interrupt to the interrupt controller. Do not call this function
 297:.\Generated_Source\PSoC5/BLE_Rx_isr.c **** *   unless ISR_Start() has been called or the functionality of the ISR_Start() 
 298:.\Generated_Source\PSoC5/BLE_Rx_isr.c **** *   function, which sets the vector and the priority, has been called.
 299:.\Generated_Source\PSoC5/BLE_Rx_isr.c **** *
 300:.\Generated_Source\PSoC5/BLE_Rx_isr.c **** * Parameters:
 301:.\Generated_Source\PSoC5/BLE_Rx_isr.c **** *   None
 302:.\Generated_Source\PSoC5/BLE_Rx_isr.c **** *
ARM GAS  C:\Users\User\AppData\Local\Temp\ccEEk8W1.s 			page 9


 303:.\Generated_Source\PSoC5/BLE_Rx_isr.c **** * Return:
 304:.\Generated_Source\PSoC5/BLE_Rx_isr.c **** *   None
 305:.\Generated_Source\PSoC5/BLE_Rx_isr.c **** *
 306:.\Generated_Source\PSoC5/BLE_Rx_isr.c **** *******************************************************************************/
 307:.\Generated_Source\PSoC5/BLE_Rx_isr.c **** void BLE_Rx_isr_Enable(void)
 308:.\Generated_Source\PSoC5/BLE_Rx_isr.c **** {
 155              		.loc 1 308 0
 156              		.cfi_startproc
 157              		@ args = 0, pretend = 0, frame = 0
 158              		@ frame_needed = 0, uses_anonymous_args = 0
 159              		@ link register save eliminated.
 309:.\Generated_Source\PSoC5/BLE_Rx_isr.c ****     /* Enable the general interrupt. */
 310:.\Generated_Source\PSoC5/BLE_Rx_isr.c ****     *BLE_Rx_isr_INTC_SET_EN = BLE_Rx_isr__INTC_MASK;
 160              		.loc 1 310 0
 161 0000 0122     		movs	r2, #1
 162 0002 014B     		ldr	r3, .L15
 163 0004 1A60     		str	r2, [r3]
 164 0006 7047     		bx	lr
 165              	.L16:
 166              		.align	2
 167              	.L15:
 168 0008 00E100E0 		.word	-536813312
 169              		.cfi_endproc
 170              	.LFE8:
 171              		.size	BLE_Rx_isr_Enable, .-BLE_Rx_isr_Enable
 172              		.section	.text.BLE_Rx_isr_GetState,"ax",%progbits
 173              		.align	2
 174              		.global	BLE_Rx_isr_GetState
 175              		.thumb
 176              		.thumb_func
 177              		.type	BLE_Rx_isr_GetState, %function
 178              	BLE_Rx_isr_GetState:
 179              	.LFB9:
 311:.\Generated_Source\PSoC5/BLE_Rx_isr.c **** }
 312:.\Generated_Source\PSoC5/BLE_Rx_isr.c **** 
 313:.\Generated_Source\PSoC5/BLE_Rx_isr.c **** 
 314:.\Generated_Source\PSoC5/BLE_Rx_isr.c **** /*******************************************************************************
 315:.\Generated_Source\PSoC5/BLE_Rx_isr.c **** * Function Name: BLE_Rx_isr_GetState
 316:.\Generated_Source\PSoC5/BLE_Rx_isr.c **** ********************************************************************************
 317:.\Generated_Source\PSoC5/BLE_Rx_isr.c **** *
 318:.\Generated_Source\PSoC5/BLE_Rx_isr.c **** * Summary:
 319:.\Generated_Source\PSoC5/BLE_Rx_isr.c **** *   Gets the state (enabled, disabled) of the Interrupt.
 320:.\Generated_Source\PSoC5/BLE_Rx_isr.c **** *
 321:.\Generated_Source\PSoC5/BLE_Rx_isr.c **** * Parameters:
 322:.\Generated_Source\PSoC5/BLE_Rx_isr.c **** *   None
 323:.\Generated_Source\PSoC5/BLE_Rx_isr.c **** *
 324:.\Generated_Source\PSoC5/BLE_Rx_isr.c **** * Return:
 325:.\Generated_Source\PSoC5/BLE_Rx_isr.c **** *   1 if enabled, 0 if disabled.
 326:.\Generated_Source\PSoC5/BLE_Rx_isr.c **** *
 327:.\Generated_Source\PSoC5/BLE_Rx_isr.c **** *******************************************************************************/
 328:.\Generated_Source\PSoC5/BLE_Rx_isr.c **** uint8 BLE_Rx_isr_GetState(void)
 329:.\Generated_Source\PSoC5/BLE_Rx_isr.c **** {
 180              		.loc 1 329 0
 181              		.cfi_startproc
 182              		@ args = 0, pretend = 0, frame = 0
 183              		@ frame_needed = 0, uses_anonymous_args = 0
 184              		@ link register save eliminated.
ARM GAS  C:\Users\User\AppData\Local\Temp\ccEEk8W1.s 			page 10


 330:.\Generated_Source\PSoC5/BLE_Rx_isr.c ****     /* Get the state of the general interrupt. */
 331:.\Generated_Source\PSoC5/BLE_Rx_isr.c ****     return ((*BLE_Rx_isr_INTC_SET_EN & (uint32)BLE_Rx_isr__INTC_MASK) != 0u) ? 1u:0u;
 185              		.loc 1 331 0
 186 0000 024B     		ldr	r3, .L18
 187 0002 1868     		ldr	r0, [r3]
 332:.\Generated_Source\PSoC5/BLE_Rx_isr.c **** }
 188              		.loc 1 332 0
 189 0004 00F00100 		and	r0, r0, #1
 190 0008 7047     		bx	lr
 191              	.L19:
 192 000a 00BF     		.align	2
 193              	.L18:
 194 000c 00E100E0 		.word	-536813312
 195              		.cfi_endproc
 196              	.LFE9:
 197              		.size	BLE_Rx_isr_GetState, .-BLE_Rx_isr_GetState
 198              		.section	.text.BLE_Rx_isr_Disable,"ax",%progbits
 199              		.align	2
 200              		.global	BLE_Rx_isr_Disable
 201              		.thumb
 202              		.thumb_func
 203              		.type	BLE_Rx_isr_Disable, %function
 204              	BLE_Rx_isr_Disable:
 205              	.LFB10:
 333:.\Generated_Source\PSoC5/BLE_Rx_isr.c **** 
 334:.\Generated_Source\PSoC5/BLE_Rx_isr.c **** 
 335:.\Generated_Source\PSoC5/BLE_Rx_isr.c **** /*******************************************************************************
 336:.\Generated_Source\PSoC5/BLE_Rx_isr.c **** * Function Name: BLE_Rx_isr_Disable
 337:.\Generated_Source\PSoC5/BLE_Rx_isr.c **** ********************************************************************************
 338:.\Generated_Source\PSoC5/BLE_Rx_isr.c **** *
 339:.\Generated_Source\PSoC5/BLE_Rx_isr.c **** * Summary:
 340:.\Generated_Source\PSoC5/BLE_Rx_isr.c **** *   Disables the Interrupt in the interrupt controller.
 341:.\Generated_Source\PSoC5/BLE_Rx_isr.c **** *
 342:.\Generated_Source\PSoC5/BLE_Rx_isr.c **** * Parameters:
 343:.\Generated_Source\PSoC5/BLE_Rx_isr.c **** *   None
 344:.\Generated_Source\PSoC5/BLE_Rx_isr.c **** *
 345:.\Generated_Source\PSoC5/BLE_Rx_isr.c **** * Return:
 346:.\Generated_Source\PSoC5/BLE_Rx_isr.c **** *   None
 347:.\Generated_Source\PSoC5/BLE_Rx_isr.c **** *
 348:.\Generated_Source\PSoC5/BLE_Rx_isr.c **** *******************************************************************************/
 349:.\Generated_Source\PSoC5/BLE_Rx_isr.c **** void BLE_Rx_isr_Disable(void)
 350:.\Generated_Source\PSoC5/BLE_Rx_isr.c **** {
 206              		.loc 1 350 0
 207              		.cfi_startproc
 208              		@ args = 0, pretend = 0, frame = 0
 209              		@ frame_needed = 0, uses_anonymous_args = 0
 210              		@ link register save eliminated.
 351:.\Generated_Source\PSoC5/BLE_Rx_isr.c ****     /* Disable the general interrupt. */
 352:.\Generated_Source\PSoC5/BLE_Rx_isr.c ****     *BLE_Rx_isr_INTC_CLR_EN = BLE_Rx_isr__INTC_MASK;
 211              		.loc 1 352 0
 212 0000 0122     		movs	r2, #1
 213 0002 014B     		ldr	r3, .L21
 214 0004 1A60     		str	r2, [r3]
 215 0006 7047     		bx	lr
 216              	.L22:
 217              		.align	2
 218              	.L21:
ARM GAS  C:\Users\User\AppData\Local\Temp\ccEEk8W1.s 			page 11


 219 0008 80E100E0 		.word	-536813184
 220              		.cfi_endproc
 221              	.LFE10:
 222              		.size	BLE_Rx_isr_Disable, .-BLE_Rx_isr_Disable
 223              		.section	.text.BLE_Rx_isr_Start,"ax",%progbits
 224              		.align	2
 225              		.global	BLE_Rx_isr_Start
 226              		.thumb
 227              		.thumb_func
 228              		.type	BLE_Rx_isr_Start, %function
 229              	BLE_Rx_isr_Start:
 230              	.LFB0:
  62:.\Generated_Source\PSoC5/BLE_Rx_isr.c ****     /* For all we know the interrupt is active. */
 231              		.loc 1 62 0
 232              		.cfi_startproc
 233              		@ args = 0, pretend = 0, frame = 0
 234              		@ frame_needed = 0, uses_anonymous_args = 0
 235 0000 08B5     		push	{r3, lr}
 236              		.cfi_def_cfa_offset 8
 237              		.cfi_offset 3, -8
 238              		.cfi_offset 14, -4
  64:.\Generated_Source\PSoC5/BLE_Rx_isr.c **** 
 239              		.loc 1 64 0
 240 0002 FFF7FEFF 		bl	BLE_Rx_isr_Disable
 241              	.LVL7:
  67:.\Generated_Source\PSoC5/BLE_Rx_isr.c **** 
 242              		.loc 1 67 0
 243 0006 0448     		ldr	r0, .L25
 244 0008 FFF7FEFF 		bl	BLE_Rx_isr_SetVector
 245              	.LVL8:
  70:.\Generated_Source\PSoC5/BLE_Rx_isr.c **** 
 246              		.loc 1 70 0
 247 000c 0720     		movs	r0, #7
 248 000e FFF7FEFF 		bl	BLE_Rx_isr_SetPriority
 249              	.LVL9:
  73:.\Generated_Source\PSoC5/BLE_Rx_isr.c **** }
 250              		.loc 1 73 0
 251 0012 FFF7FEFF 		bl	BLE_Rx_isr_Enable
 252              	.LVL10:
 253 0016 08BD     		pop	{r3, pc}
 254              	.L26:
 255              		.align	2
 256              	.L25:
 257 0018 00000000 		.word	BLE_Rx_isr_Interrupt
 258              		.cfi_endproc
 259              	.LFE0:
 260              		.size	BLE_Rx_isr_Start, .-BLE_Rx_isr_Start
 261              		.section	.text.BLE_Rx_isr_StartEx,"ax",%progbits
 262              		.align	2
 263              		.global	BLE_Rx_isr_StartEx
 264              		.thumb
 265              		.thumb_func
 266              		.type	BLE_Rx_isr_StartEx, %function
 267              	BLE_Rx_isr_StartEx:
 268              	.LFB1:
 105:.\Generated_Source\PSoC5/BLE_Rx_isr.c ****     /* For all we know the interrupt is active. */
 269              		.loc 1 105 0
ARM GAS  C:\Users\User\AppData\Local\Temp\ccEEk8W1.s 			page 12


 270              		.cfi_startproc
 271              		@ args = 0, pretend = 0, frame = 0
 272              		@ frame_needed = 0, uses_anonymous_args = 0
 273              	.LVL11:
 274 0000 10B5     		push	{r4, lr}
 275              		.cfi_def_cfa_offset 8
 276              		.cfi_offset 4, -8
 277              		.cfi_offset 14, -4
 278 0002 0446     		mov	r4, r0
 107:.\Generated_Source\PSoC5/BLE_Rx_isr.c **** 
 279              		.loc 1 107 0
 280 0004 FFF7FEFF 		bl	BLE_Rx_isr_Disable
 281              	.LVL12:
 110:.\Generated_Source\PSoC5/BLE_Rx_isr.c **** 
 282              		.loc 1 110 0
 283 0008 2046     		mov	r0, r4
 284 000a FFF7FEFF 		bl	BLE_Rx_isr_SetVector
 285              	.LVL13:
 113:.\Generated_Source\PSoC5/BLE_Rx_isr.c **** 
 286              		.loc 1 113 0
 287 000e 0720     		movs	r0, #7
 288 0010 FFF7FEFF 		bl	BLE_Rx_isr_SetPriority
 289              	.LVL14:
 116:.\Generated_Source\PSoC5/BLE_Rx_isr.c **** }
 290              		.loc 1 116 0
 291 0014 FFF7FEFF 		bl	BLE_Rx_isr_Enable
 292              	.LVL15:
 293 0018 10BD     		pop	{r4, pc}
 294              		.cfi_endproc
 295              	.LFE1:
 296              		.size	BLE_Rx_isr_StartEx, .-BLE_Rx_isr_StartEx
 297 001a 00BF     		.section	.text.BLE_Rx_isr_Stop,"ax",%progbits
 298              		.align	2
 299              		.global	BLE_Rx_isr_Stop
 300              		.thumb
 301              		.thumb_func
 302              		.type	BLE_Rx_isr_Stop, %function
 303              	BLE_Rx_isr_Stop:
 304              	.LFB2:
 135:.\Generated_Source\PSoC5/BLE_Rx_isr.c ****     /* Disable this interrupt. */
 305              		.loc 1 135 0
 306              		.cfi_startproc
 307              		@ args = 0, pretend = 0, frame = 0
 308              		@ frame_needed = 0, uses_anonymous_args = 0
 309 0000 08B5     		push	{r3, lr}
 310              		.cfi_def_cfa_offset 8
 311              		.cfi_offset 3, -8
 312              		.cfi_offset 14, -4
 137:.\Generated_Source\PSoC5/BLE_Rx_isr.c **** 
 313              		.loc 1 137 0
 314 0002 FFF7FEFF 		bl	BLE_Rx_isr_Disable
 315              	.LVL16:
 140:.\Generated_Source\PSoC5/BLE_Rx_isr.c **** }
 316              		.loc 1 140 0
 317 0006 0248     		ldr	r0, .L31
 318 0008 FFF7FEFF 		bl	BLE_Rx_isr_SetVector
 319              	.LVL17:
ARM GAS  C:\Users\User\AppData\Local\Temp\ccEEk8W1.s 			page 13


 320 000c 08BD     		pop	{r3, pc}
 321              	.L32:
 322 000e 00BF     		.align	2
 323              	.L31:
 324 0010 00000000 		.word	IntDefaultHandler
 325              		.cfi_endproc
 326              	.LFE2:
 327              		.size	BLE_Rx_isr_Stop, .-BLE_Rx_isr_Stop
 328              		.section	.text.BLE_Rx_isr_SetPending,"ax",%progbits
 329              		.align	2
 330              		.global	BLE_Rx_isr_SetPending
 331              		.thumb
 332              		.thumb_func
 333              		.type	BLE_Rx_isr_SetPending, %function
 334              	BLE_Rx_isr_SetPending:
 335              	.LFB11:
 353:.\Generated_Source\PSoC5/BLE_Rx_isr.c **** }
 354:.\Generated_Source\PSoC5/BLE_Rx_isr.c **** 
 355:.\Generated_Source\PSoC5/BLE_Rx_isr.c **** 
 356:.\Generated_Source\PSoC5/BLE_Rx_isr.c **** /*******************************************************************************
 357:.\Generated_Source\PSoC5/BLE_Rx_isr.c **** * Function Name: BLE_Rx_isr_SetPending
 358:.\Generated_Source\PSoC5/BLE_Rx_isr.c **** ********************************************************************************
 359:.\Generated_Source\PSoC5/BLE_Rx_isr.c **** *
 360:.\Generated_Source\PSoC5/BLE_Rx_isr.c **** * Summary:
 361:.\Generated_Source\PSoC5/BLE_Rx_isr.c **** *   Causes the Interrupt to enter the pending state, a software method of
 362:.\Generated_Source\PSoC5/BLE_Rx_isr.c **** *   generating the interrupt.
 363:.\Generated_Source\PSoC5/BLE_Rx_isr.c **** *
 364:.\Generated_Source\PSoC5/BLE_Rx_isr.c **** * Parameters:
 365:.\Generated_Source\PSoC5/BLE_Rx_isr.c **** *   None
 366:.\Generated_Source\PSoC5/BLE_Rx_isr.c **** *
 367:.\Generated_Source\PSoC5/BLE_Rx_isr.c **** * Return:
 368:.\Generated_Source\PSoC5/BLE_Rx_isr.c **** *   None
 369:.\Generated_Source\PSoC5/BLE_Rx_isr.c **** *
 370:.\Generated_Source\PSoC5/BLE_Rx_isr.c **** * Side Effects:
 371:.\Generated_Source\PSoC5/BLE_Rx_isr.c **** *   If interrupts are enabled and the interrupt is set up properly, the ISR is
 372:.\Generated_Source\PSoC5/BLE_Rx_isr.c **** *   entered (depending on the priority of this interrupt and other pending 
 373:.\Generated_Source\PSoC5/BLE_Rx_isr.c **** *   interrupts).
 374:.\Generated_Source\PSoC5/BLE_Rx_isr.c **** *
 375:.\Generated_Source\PSoC5/BLE_Rx_isr.c **** *******************************************************************************/
 376:.\Generated_Source\PSoC5/BLE_Rx_isr.c **** void BLE_Rx_isr_SetPending(void)
 377:.\Generated_Source\PSoC5/BLE_Rx_isr.c **** {
 336              		.loc 1 377 0
 337              		.cfi_startproc
 338              		@ args = 0, pretend = 0, frame = 0
 339              		@ frame_needed = 0, uses_anonymous_args = 0
 340              		@ link register save eliminated.
 378:.\Generated_Source\PSoC5/BLE_Rx_isr.c ****     *BLE_Rx_isr_INTC_SET_PD = BLE_Rx_isr__INTC_MASK;
 341              		.loc 1 378 0
 342 0000 0122     		movs	r2, #1
 343 0002 014B     		ldr	r3, .L34
 344 0004 1A60     		str	r2, [r3]
 345 0006 7047     		bx	lr
 346              	.L35:
 347              		.align	2
 348              	.L34:
 349 0008 00E200E0 		.word	-536813056
 350              		.cfi_endproc
ARM GAS  C:\Users\User\AppData\Local\Temp\ccEEk8W1.s 			page 14


 351              	.LFE11:
 352              		.size	BLE_Rx_isr_SetPending, .-BLE_Rx_isr_SetPending
 353              		.section	.text.BLE_Rx_isr_ClearPending,"ax",%progbits
 354              		.align	2
 355              		.global	BLE_Rx_isr_ClearPending
 356              		.thumb
 357              		.thumb_func
 358              		.type	BLE_Rx_isr_ClearPending, %function
 359              	BLE_Rx_isr_ClearPending:
 360              	.LFB12:
 379:.\Generated_Source\PSoC5/BLE_Rx_isr.c **** }
 380:.\Generated_Source\PSoC5/BLE_Rx_isr.c **** 
 381:.\Generated_Source\PSoC5/BLE_Rx_isr.c **** 
 382:.\Generated_Source\PSoC5/BLE_Rx_isr.c **** /*******************************************************************************
 383:.\Generated_Source\PSoC5/BLE_Rx_isr.c **** * Function Name: BLE_Rx_isr_ClearPending
 384:.\Generated_Source\PSoC5/BLE_Rx_isr.c **** ********************************************************************************
 385:.\Generated_Source\PSoC5/BLE_Rx_isr.c **** *
 386:.\Generated_Source\PSoC5/BLE_Rx_isr.c **** * Summary:
 387:.\Generated_Source\PSoC5/BLE_Rx_isr.c **** *   Clears a pending interrupt in the interrupt controller.
 388:.\Generated_Source\PSoC5/BLE_Rx_isr.c **** *
 389:.\Generated_Source\PSoC5/BLE_Rx_isr.c **** *   Note Some interrupt sources are clear-on-read and require the block 
 390:.\Generated_Source\PSoC5/BLE_Rx_isr.c **** *   interrupt/status register to be read/cleared with the appropriate block API 
 391:.\Generated_Source\PSoC5/BLE_Rx_isr.c **** *   (GPIO, UART, and so on). Otherwise the ISR will continue to remain in 
 392:.\Generated_Source\PSoC5/BLE_Rx_isr.c **** *   pending state even though the interrupt itself is cleared using this API.
 393:.\Generated_Source\PSoC5/BLE_Rx_isr.c **** *
 394:.\Generated_Source\PSoC5/BLE_Rx_isr.c **** * Parameters:
 395:.\Generated_Source\PSoC5/BLE_Rx_isr.c **** *   None
 396:.\Generated_Source\PSoC5/BLE_Rx_isr.c **** *
 397:.\Generated_Source\PSoC5/BLE_Rx_isr.c **** * Return:
 398:.\Generated_Source\PSoC5/BLE_Rx_isr.c **** *   None
 399:.\Generated_Source\PSoC5/BLE_Rx_isr.c **** *
 400:.\Generated_Source\PSoC5/BLE_Rx_isr.c **** *******************************************************************************/
 401:.\Generated_Source\PSoC5/BLE_Rx_isr.c **** void BLE_Rx_isr_ClearPending(void)
 402:.\Generated_Source\PSoC5/BLE_Rx_isr.c **** {
 361              		.loc 1 402 0
 362              		.cfi_startproc
 363              		@ args = 0, pretend = 0, frame = 0
 364              		@ frame_needed = 0, uses_anonymous_args = 0
 365              		@ link register save eliminated.
 403:.\Generated_Source\PSoC5/BLE_Rx_isr.c ****     *BLE_Rx_isr_INTC_CLR_PD = BLE_Rx_isr__INTC_MASK;
 366              		.loc 1 403 0
 367 0000 0122     		movs	r2, #1
 368 0002 014B     		ldr	r3, .L37
 369 0004 1A60     		str	r2, [r3]
 370 0006 7047     		bx	lr
 371              	.L38:
 372              		.align	2
 373              	.L37:
 374 0008 80E200E0 		.word	-536812928
 375              		.cfi_endproc
 376              	.LFE12:
 377              		.size	BLE_Rx_isr_ClearPending, .-BLE_Rx_isr_ClearPending
 378              		.text
 379              	.Letext0:
 380              		.file 2 "Generated_Source\\PSoC5/cytypes.h"