ARM GAS  C:\Users\User\AppData\Local\Temp\ccKq1MFx.s 			page 1


   1              		.syntax unified
   2              		.cpu cortex-m3
   3              		.fpu softvfp
   4              		.eabi_attribute 20, 1
   5              		.eabi_attribute 21, 1
   6              		.eabi_attribute 23, 3
   7              		.eabi_attribute 24, 1
   8              		.eabi_attribute 25, 1
   9              		.eabi_attribute 26, 1
  10              		.eabi_attribute 30, 1
  11              		.eabi_attribute 34, 1
  12              		.eabi_attribute 18, 4
  13              		.thumb
  14              		.file	"game_manager.c"
  15              		.text
  16              	.Ltext0:
  17              		.cfi_sections	.debug_frame
  18              		.global	__aeabi_fsub
  19              		.global	__aeabi_fmul
  20              		.global	__aeabi_fdiv
  21              		.global	__aeabi_f2iz
  22              		.section	.text.obj_pos,"ax",%progbits
  23              		.align	2
  24              		.thumb
  25              		.thumb_func
  26              		.type	obj_pos, %function
  27              	obj_pos:
  28              	.LFB1:
  29              		.file 1 ".\\game_manager.c"
   1:.\game_manager.c **** /* ========================================
   2:.\game_manager.c ****  *
   3:.\game_manager.c ****  * Copyright YOUR COMPANY, THE YEAR
   4:.\game_manager.c ****  * All Rights Reserved
   5:.\game_manager.c ****  * UNPUBLISHED, LICENSED SOFTWARE.
   6:.\game_manager.c ****  *
   7:.\game_manager.c ****  * CONFIDENTIAL AND PROPRIETARY INFORMATION
   8:.\game_manager.c ****  * WHICH IS THE PROPERTY OF your company.
   9:.\game_manager.c ****  *
  10:.\game_manager.c ****  * ========================================
  11:.\game_manager.c **** */
  12:.\game_manager.c **** 
  13:.\game_manager.c **** #include <game_manager.h>
  14:.\game_manager.c **** #include <FS.h>
  15:.\game_manager.c **** #include <stdlib.h>
  16:.\game_manager.c **** 
  17:.\game_manager.c **** static struct Note notes[1000];
  18:.\game_manager.c **** static float barlines[1000];
  19:.\game_manager.c **** 
  20:.\game_manager.c **** struct GameState new_game(char *song_name) {
  21:.\game_manager.c ****     int n_notes = 0;
  22:.\game_manager.c ****     float tempo = 0;
  23:.\game_manager.c ****     float duration = 0;
  24:.\game_manager.c ****     // Parse the notes from a chart file
  25:.\game_manager.c ****     FS_FILE *chart_file = FS_FOpen(song_name, "r");
  26:.\game_manager.c ****     if (chart_file) {
  27:.\game_manager.c ****         int buffer_len;
  28:.\game_manager.c ****         int float_len = 0;
ARM GAS  C:\Users\User\AppData\Local\Temp\ccKq1MFx.s 			page 2


  29:.\game_manager.c ****         char buffer[512], curr_float[10];
  30:.\game_manager.c ****         uint8 parse_mode = 0;
  31:.\game_manager.c ****         while ((buffer_len = FS_Read(chart_file, buffer, sizeof(buffer)))) {
  32:.\game_manager.c ****             for (int i = 0; i < buffer_len; i++) {
  33:.\game_manager.c ****                 switch (parse_mode) {
  34:.\game_manager.c ****                     case 2: // Track
  35:.\game_manager.c ****                         notes[n_notes].track = buffer[i] - '0';
  36:.\game_manager.c ****                         notes[n_notes].played = 0;
  37:.\game_manager.c ****                     case 3: // Whitespace
  38:.\game_manager.c ****                         parse_mode++;
  39:.\game_manager.c ****                         break;
  40:.\game_manager.c ****                     case 4: // Note time
  41:.\game_manager.c ****                     case 0: // Tempo
  42:.\game_manager.c ****                     case 1: // Song duration
  43:.\game_manager.c ****                         if (buffer[i] == '\n') {
  44:.\game_manager.c ****                             if (parse_mode == 4) {
  45:.\game_manager.c ****                                 notes[n_notes++].time = atof(curr_float);
  46:.\game_manager.c ****                                 parse_mode -= 3;
  47:.\game_manager.c ****                             } else if (parse_mode == 0) {
  48:.\game_manager.c ****                                 tempo = atof(curr_float);
  49:.\game_manager.c ****                             } else if (parse_mode == 1)
  50:.\game_manager.c ****                                 duration = atof(curr_float);
  51:.\game_manager.c ****                             parse_mode++;
  52:.\game_manager.c ****                             // Reset the float buffer
  53:.\game_manager.c ****                             float_len = 0;
  54:.\game_manager.c ****                             for (int j = 0; j < 10; j++)
  55:.\game_manager.c ****                                 curr_float[j] = 0;
  56:.\game_manager.c ****                         } else {
  57:.\game_manager.c ****                             curr_float[float_len++] = buffer[i];
  58:.\game_manager.c ****                         }
  59:.\game_manager.c ****                 }
  60:.\game_manager.c ****             }
  61:.\game_manager.c ****         }
  62:.\game_manager.c ****     }
  63:.\game_manager.c ****     
  64:.\game_manager.c ****     // TODO: Generate barlines too
  65:.\game_manager.c ****     
  66:.\game_manager.c ****     return (struct GameState) {
  67:.\game_manager.c ****         .song = (struct Song) { .tempo = tempo, .duration = duration },
  68:.\game_manager.c ****         .time = 0,
  69:.\game_manager.c ****         .score = 0,
  70:.\game_manager.c ****         .n_notes = n_notes,
  71:.\game_manager.c ****         .notes = notes,
  72:.\game_manager.c ****         .notes_window = {0, 0},
  73:.\game_manager.c ****         .n_barlines = 0,
  74:.\game_manager.c ****         .barlines = barlines,
  75:.\game_manager.c ****         .barlines_window = {0, 0}
  76:.\game_manager.c ****     };
  77:.\game_manager.c **** }
  78:.\game_manager.c **** 
  79:.\game_manager.c **** static int obj_pos(struct GameState *state, float obj_time) {
  30              		.loc 1 79 0
  31              		.cfi_startproc
  32              		@ args = 0, pretend = 0, frame = 0
  33              		@ frame_needed = 0, uses_anonymous_args = 0
  34              	.LVL0:
  35 0000 10B5     		push	{r4, lr}
ARM GAS  C:\Users\User\AppData\Local\Temp\ccKq1MFx.s 			page 3


  36              		.cfi_def_cfa_offset 8
  37              		.cfi_offset 4, -8
  38              		.cfi_offset 14, -4
  39 0002 0446     		mov	r4, r0
  80:.\game_manager.c ****     return (int)(256 * 60 * (obj_time - state->time) / state->song.tempo) + 5;
  40              		.loc 1 80 0
  41 0004 0846     		mov	r0, r1
  42              	.LVL1:
  43 0006 A168     		ldr	r1, [r4, #8]	@ float
  44              	.LVL2:
  45 0008 FFF7FEFF 		bl	__aeabi_fsub
  46              	.LVL3:
  47 000c 0449     		ldr	r1, .L3
  48 000e FFF7FEFF 		bl	__aeabi_fmul
  49              	.LVL4:
  50 0012 2168     		ldr	r1, [r4]	@ float
  51 0014 FFF7FEFF 		bl	__aeabi_fdiv
  52              	.LVL5:
  53 0018 FFF7FEFF 		bl	__aeabi_f2iz
  54              	.LVL6:
  81:.\game_manager.c **** }
  55              		.loc 1 81 0
  56 001c 0530     		adds	r0, r0, #5
  57 001e 10BD     		pop	{r4, pc}
  58              	.LVL7:
  59              	.L4:
  60              		.align	2
  61              	.L3:
  62 0020 00007046 		.word	1181745152
  63              		.cfi_endproc
  64              	.LFE1:
  65              		.size	obj_pos, .-obj_pos
  66              		.global	__aeabi_d2f
  67              		.section	.text.new_game,"ax",%progbits
  68              		.align	2
  69              		.global	new_game
  70              		.thumb
  71              		.thumb_func
  72              		.type	new_game, %function
  73              	new_game:
  74              	.LFB0:
  20:.\game_manager.c ****     int n_notes = 0;
  75              		.loc 1 20 0
  76              		.cfi_startproc
  77              		@ args = 0, pretend = 0, frame = 536
  78              		@ frame_needed = 0, uses_anonymous_args = 0
  79              	.LVL8:
  80 0000 2DE9F04F 		push	{r4, r5, r6, r7, r8, r9, r10, fp, lr}
  81              		.cfi_def_cfa_offset 36
  82              		.cfi_offset 4, -36
  83              		.cfi_offset 5, -32
  84              		.cfi_offset 6, -28
  85              		.cfi_offset 7, -24
  86              		.cfi_offset 8, -20
  87              		.cfi_offset 9, -16
  88              		.cfi_offset 10, -12
  89              		.cfi_offset 11, -8
ARM GAS  C:\Users\User\AppData\Local\Temp\ccKq1MFx.s 			page 4


  90              		.cfi_offset 14, -4
  91 0004 ADF5077D 		sub	sp, sp, #540
  92              		.cfi_def_cfa_offset 576
  93 0008 8146     		mov	r9, r0
  94              	.LVL9:
  25:.\game_manager.c ****     if (chart_file) {
  95              		.loc 1 25 0
  96 000a 0846     		mov	r0, r1
  97              	.LVL10:
  98 000c 4849     		ldr	r1, .L24
  99              	.LVL11:
 100 000e FFF7FEFF 		bl	FS_FOpen
 101              	.LVL12:
  26:.\game_manager.c ****         int buffer_len;
 102              		.loc 1 26 0
 103 0012 0090     		str	r0, [sp]
 104 0014 0028     		cmp	r0, #0
 105 0016 5AD1     		bne	.L21
  23:.\game_manager.c ****     // Parse the notes from a chart file
 106              		.loc 1 23 0
 107 0018 4FF0000B 		mov	fp, #0
  22:.\game_manager.c ****     float duration = 0;
 108              		.loc 1 22 0
 109 001c DA46     		mov	r10, fp
  21:.\game_manager.c ****     float tempo = 0;
 110              		.loc 1 21 0
 111 001e 4FF00008 		mov	r8, #0
 112 0022 63E0     		b	.L7
 113              	.LVL13:
 114              	.L19:
 115              	.LBB2:
 116              	.LBB3:
  33:.\game_manager.c ****                     case 2: // Track
 117              		.loc 1 33 0
 118 0024 042C     		cmp	r4, #4
 119 0026 4CD8     		bhi	.L8
 120 0028 DFE804F0 		tbb	[pc, r4]
 121              	.L10:
 122 002c 12       		.byte	(.L9-.L10)/2
 123 002d 12       		.byte	(.L9-.L10)/2
 124 002e 03       		.byte	(.L11-.L10)/2
 125 002f 0F       		.byte	(.L12-.L10)/2
 126 0030 12       		.byte	(.L9-.L10)/2
 127 0031 00       		.p2align 1
 128              	.L11:
  35:.\game_manager.c ****                         notes[n_notes].played = 0;
 129              		.loc 1 35 0
 130 0032 06AB     		add	r3, sp, #24
 131 0034 5A5D     		ldrb	r2, [r3, r5]	@ zero_extendqisi2
 132 0036 3F49     		ldr	r1, .L24+4
 133 0038 4FEA4803 		lsl	r3, r8, #1
 134 003c 4344     		add	r3, r3, r8
 135 003e 9B00     		lsls	r3, r3, #2
 136 0040 C818     		adds	r0, r1, r3
 137 0042 303A     		subs	r2, r2, #48
 138 0044 CA54     		strb	r2, [r1, r3]
  36:.\game_manager.c ****                     case 3: // Whitespace
ARM GAS  C:\Users\User\AppData\Local\Temp\ccKq1MFx.s 			page 5


 139              		.loc 1 36 0
 140 0046 0023     		movs	r3, #0
 141 0048 0372     		strb	r3, [r0, #8]
 142              	.L12:
  38:.\game_manager.c ****                         break;
 143              		.loc 1 38 0
 144 004a 0134     		adds	r4, r4, #1
 145              	.LVL14:
 146 004c E4B2     		uxtb	r4, r4
 147              	.LVL15:
  39:.\game_manager.c ****                     case 4: // Note time
 148              		.loc 1 39 0
 149 004e 38E0     		b	.L8
 150              	.L9:
  43:.\game_manager.c ****                             if (parse_mode == 4) {
 151              		.loc 1 43 0
 152 0050 06AB     		add	r3, sp, #24
 153 0052 5B5D     		ldrb	r3, [r3, r5]	@ zero_extendqisi2
 154 0054 0A2B     		cmp	r3, #10
 155 0056 31D1     		bne	.L13
  44:.\game_manager.c ****                                 notes[n_notes++].time = atof(curr_float);
 156              		.loc 1 44 0
 157 0058 042C     		cmp	r4, #4
 158 005a 13D1     		bne	.L14
  45:.\game_manager.c ****                                 parse_mode -= 3;
 159              		.loc 1 45 0
 160 005c 08F10103 		add	r3, r8, #1
 161 0060 0193     		str	r3, [sp, #4]
 162              	.LVL16:
 163 0062 03A8     		add	r0, sp, #12
 164 0064 FFF7FEFF 		bl	atof
 165              	.LVL17:
 166 0068 08EB4808 		add	r8, r8, r8, lsl #1
 167 006c 4FEA8808 		lsl	r8, r8, #2
 168 0070 304F     		ldr	r7, .L24+4
 169              	.LVL18:
 170 0072 4744     		add	r7, r7, r8
 171 0074 FFF7FEFF 		bl	__aeabi_d2f
 172              	.LVL19:
 173 0078 7860     		str	r0, [r7, #4]	@ float
  46:.\game_manager.c ****                             } else if (parse_mode == 0) {
 174              		.loc 1 46 0
 175 007a 033C     		subs	r4, r4, #3
 176              	.LVL20:
 177 007c E4B2     		uxtb	r4, r4
 178              	.LVL21:
  45:.\game_manager.c ****                                 parse_mode -= 3;
 179              		.loc 1 45 0
 180 007e DDF80480 		ldr	r8, [sp, #4]
 181 0082 0FE0     		b	.L15
 182              	.LVL22:
 183              	.L14:
  47:.\game_manager.c ****                                 tempo = atof(curr_float);
 184              		.loc 1 47 0
 185 0084 34B9     		cbnz	r4, .L16
  48:.\game_manager.c ****                             } else if (parse_mode == 1)
 186              		.loc 1 48 0
ARM GAS  C:\Users\User\AppData\Local\Temp\ccKq1MFx.s 			page 6


 187 0086 03A8     		add	r0, sp, #12
 188 0088 FFF7FEFF 		bl	atof
 189              	.LVL23:
 190 008c FFF7FEFF 		bl	__aeabi_d2f
 191              	.LVL24:
 192 0090 8246     		mov	r10, r0
 193              	.LVL25:
 194 0092 07E0     		b	.L15
 195              	.LVL26:
 196              	.L16:
  49:.\game_manager.c ****                                 duration = atof(curr_float);
 197              		.loc 1 49 0
 198 0094 012C     		cmp	r4, #1
 199 0096 05D1     		bne	.L15
  50:.\game_manager.c ****                             parse_mode++;
 200              		.loc 1 50 0
 201 0098 03A8     		add	r0, sp, #12
 202 009a FFF7FEFF 		bl	atof
 203              	.LVL27:
 204 009e FFF7FEFF 		bl	__aeabi_d2f
 205              	.LVL28:
 206 00a2 8346     		mov	fp, r0
 207              	.LVL29:
 208              	.L15:
  51:.\game_manager.c ****                             // Reset the float buffer
 209              		.loc 1 51 0
 210 00a4 0134     		adds	r4, r4, #1
 211              	.LVL30:
 212 00a6 E4B2     		uxtb	r4, r4
 213              	.LVL31:
 214              	.LBB4:
  54:.\game_manager.c ****                                 curr_float[j] = 0;
 215              		.loc 1 54 0
 216 00a8 0023     		movs	r3, #0
 217 00aa 03E0     		b	.L17
 218              	.LVL32:
 219              	.L18:
  55:.\game_manager.c ****                         } else {
 220              		.loc 1 55 0 discriminator 3
 221 00ac 0021     		movs	r1, #0
 222 00ae 03AA     		add	r2, sp, #12
 223 00b0 D154     		strb	r1, [r2, r3]
  54:.\game_manager.c ****                                 curr_float[j] = 0;
 224              		.loc 1 54 0 discriminator 3
 225 00b2 0133     		adds	r3, r3, #1
 226              	.LVL33:
 227              	.L17:
  54:.\game_manager.c ****                                 curr_float[j] = 0;
 228              		.loc 1 54 0 is_stmt 0 discriminator 1
 229 00b4 092B     		cmp	r3, #9
 230 00b6 F9DD     		ble	.L18
 231              	.LBE4:
  53:.\game_manager.c ****                             for (int j = 0; j < 10; j++)
 232              		.loc 1 53 0 is_stmt 1
 233 00b8 0027     		movs	r7, #0
 234 00ba 02E0     		b	.L8
 235              	.LVL34:
ARM GAS  C:\Users\User\AppData\Local\Temp\ccKq1MFx.s 			page 7


 236              	.L13:
  57:.\game_manager.c ****                         }
 237              		.loc 1 57 0
 238 00bc 03AA     		add	r2, sp, #12
 239 00be D355     		strb	r3, [r2, r7]
 240 00c0 0137     		adds	r7, r7, #1
 241              	.LVL35:
 242              	.L8:
  32:.\game_manager.c ****                 switch (parse_mode) {
 243              		.loc 1 32 0 discriminator 2
 244 00c2 0135     		adds	r5, r5, #1
 245              	.LVL36:
 246 00c4 00E0     		b	.L20
 247              	.LVL37:
 248              	.L22:
 249              	.LBE3:
 250 00c6 0025     		movs	r5, #0
 251              	.LVL38:
 252              	.L20:
 253              	.LBB5:
  32:.\game_manager.c ****                 switch (parse_mode) {
 254              		.loc 1 32 0 is_stmt 0 discriminator 1
 255 00c8 B542     		cmp	r5, r6
 256 00ca ABDB     		blt	.L19
 257 00cc 05E0     		b	.L6
 258              	.LVL39:
 259              	.L21:
 260              	.LBE5:
 261              	.LBE2:
 262 00ce 0024     		movs	r4, #0
 263 00d0 2746     		mov	r7, r4
 264 00d2 4FF0000B 		mov	fp, #0
 265 00d6 DA46     		mov	r10, fp
 266 00d8 A046     		mov	r8, r4
 267              	.LVL40:
 268              	.L6:
 269              	.LBB6:
  31:.\game_manager.c ****             for (int i = 0; i < buffer_len; i++) {
 270              		.loc 1 31 0 is_stmt 1
 271 00da 0098     		ldr	r0, [sp]
 272 00dc 06A9     		add	r1, sp, #24
 273 00de 4FF40072 		mov	r2, #512
 274 00e2 FFF7FEFF 		bl	FS_Read
 275              	.LVL41:
 276 00e6 0646     		mov	r6, r0
 277 00e8 0028     		cmp	r0, #0
 278 00ea ECD1     		bne	.L22
 279              	.LVL42:
 280              	.L7:
 281              	.LBE6:
  66:.\game_manager.c ****         .song = (struct Song) { .tempo = tempo, .duration = duration },
 282              		.loc 1 66 0
 283 00ec C9F800A0 		str	r10, [r9]	@ float
 284 00f0 C9F804B0 		str	fp, [r9, #4]	@ float
 285 00f4 0023     		movs	r3, #0
 286 00f6 C9F80830 		str	r3, [r9, #8]	@ float
 287 00fa 0023     		movs	r3, #0
ARM GAS  C:\Users\User\AppData\Local\Temp\ccKq1MFx.s 			page 8


 288 00fc C9F80C30 		str	r3, [r9, #12]
 289 0100 C9F81080 		str	r8, [r9, #16]
 290 0104 0B4A     		ldr	r2, .L24+4
 291 0106 C9F81420 		str	r2, [r9, #20]
 292 010a C9F81830 		str	r3, [r9, #24]
 293 010e 0A4A     		ldr	r2, .L24+8
 294 0110 C9F81C20 		str	r2, [r9, #28]
 295 0114 C9F82030 		str	r3, [r9, #32]
 296 0118 C9F82430 		str	r3, [r9, #36]
 297 011c C9F82830 		str	r3, [r9, #40]
 298 0120 C9F82C30 		str	r3, [r9, #44]
  77:.\game_manager.c **** 
 299              		.loc 1 77 0
 300 0124 4846     		mov	r0, r9
 301 0126 0DF5077D 		add	sp, sp, #540
 302              		.cfi_def_cfa_offset 36
 303              	.LVL43:
 304              		@ sp needed
 305 012a BDE8F08F 		pop	{r4, r5, r6, r7, r8, r9, r10, fp, pc}
 306              	.LVL44:
 307              	.L25:
 308 012e 00BF     		.align	2
 309              	.L24:
 310 0130 00000000 		.word	.LC0
 311 0134 00000000 		.word	.LANCHOR0
 312 0138 E02E0000 		.word	.LANCHOR1+3312
 313              		.cfi_endproc
 314              	.LFE0:
 315              		.size	new_game, .-new_game
 316              		.global	__aeabi_fcmpgt
 317              		.global	__aeabi_f2d
 318              		.global	__aeabi_dadd
 319              		.section	.text.tick,"ax",%progbits
 320              		.align	2
 321              		.global	tick
 322              		.thumb
 323              		.thumb_func
 324              		.type	tick, %function
 325              	tick:
 326              	.LFB2:
  82:.\game_manager.c **** 
  83:.\game_manager.c **** void tick(struct GameState *state) {
 327              		.loc 1 83 0
 328              		.cfi_startproc
 329              		@ args = 0, pretend = 0, frame = 0
 330              		@ frame_needed = 0, uses_anonymous_args = 0
 331              	.LVL45:
 332 0000 70B5     		push	{r4, r5, r6, lr}
 333              		.cfi_def_cfa_offset 16
 334              		.cfi_offset 4, -16
 335              		.cfi_offset 5, -12
 336              		.cfi_offset 6, -8
 337              		.cfi_offset 14, -4
 338 0002 0446     		mov	r4, r0
  84:.\game_manager.c ****     if (state->time > state->song.duration) return;
 339              		.loc 1 84 0
 340 0004 8568     		ldr	r5, [r0, #8]	@ float
ARM GAS  C:\Users\User\AppData\Local\Temp\ccKq1MFx.s 			page 9


 341 0006 2846     		mov	r0, r5
 342              	.LVL46:
 343 0008 6168     		ldr	r1, [r4, #4]	@ float
 344 000a FFF7FEFF 		bl	__aeabi_fcmpgt
 345              	.LVL47:
 346 000e 0028     		cmp	r0, #0
 347 0010 4DD1     		bne	.L26
  85:.\game_manager.c ****     state->time += 0.05;
 348              		.loc 1 85 0
 349 0012 2846     		mov	r0, r5
 350 0014 FFF7FEFF 		bl	__aeabi_f2d
 351              	.LVL48:
 352 0018 25A3     		adr	r3, .L37
 353 001a D3E90023 		ldrd	r2, [r3]
 354 001e FFF7FEFF 		bl	__aeabi_dadd
 355              	.LVL49:
 356 0022 FFF7FEFF 		bl	__aeabi_d2f
 357              	.LVL50:
 358 0026 A060     		str	r0, [r4, #8]	@ float
  86:.\game_manager.c ****     // Update sliding windows
  87:.\game_manager.c ****     while (state->notes_window.r < state->n_notes) {
 359              		.loc 1 87 0
 360 0028 0CE0     		b	.L28
 361              	.L30:
 362              	.LBB7:
  88:.\game_manager.c ****         int y = obj_pos(state, state->notes[state->notes_window.r].time);
 363              		.loc 1 88 0
 364 002a 6269     		ldr	r2, [r4, #20]
 365 002c 05EB4503 		add	r3, r5, r5, lsl #1
 366 0030 9B00     		lsls	r3, r3, #2
 367 0032 1344     		add	r3, r3, r2
 368 0034 2046     		mov	r0, r4
 369 0036 5968     		ldr	r1, [r3, #4]	@ float
 370 0038 FFF7FEFF 		bl	obj_pos
 371              	.LVL51:
  89:.\game_manager.c ****         if (y < UINT8_MAX) state->notes_window.r++;
 372              		.loc 1 89 0
 373 003c FE28     		cmp	r0, #254
 374 003e 14DC     		bgt	.L29
 375              		.loc 1 89 0 is_stmt 0 discriminator 1
 376 0040 0135     		adds	r5, r5, #1
 377 0042 6562     		str	r5, [r4, #36]
 378              	.LVL52:
 379              	.L28:
 380              	.LBE7:
  87:.\game_manager.c ****         int y = obj_pos(state, state->notes[state->notes_window.r].time);
 381              		.loc 1 87 0 is_stmt 1
 382 0044 656A     		ldr	r5, [r4, #36]
 383 0046 2369     		ldr	r3, [r4, #16]
 384 0048 9D42     		cmp	r5, r3
 385 004a EEDB     		blt	.L30
 386 004c 0DE0     		b	.L29
 387              	.L32:
 388              	.LBB8:
  90:.\game_manager.c ****         else break;
  91:.\game_manager.c ****     }
  92:.\game_manager.c ****     while (state->notes_window.l < state->notes_window.r) {
ARM GAS  C:\Users\User\AppData\Local\Temp\ccKq1MFx.s 			page 10


  93:.\game_manager.c ****         int y = obj_pos(state, state->notes[state->notes_window.l].time);
 389              		.loc 1 93 0
 390 004e 6269     		ldr	r2, [r4, #20]
 391 0050 06EB4603 		add	r3, r6, r6, lsl #1
 392 0054 9B00     		lsls	r3, r3, #2
 393 0056 1344     		add	r3, r3, r2
 394 0058 2046     		mov	r0, r4
 395 005a 5968     		ldr	r1, [r3, #4]	@ float
 396 005c FFF7FEFF 		bl	obj_pos
 397              	.LVL53:
  94:.\game_manager.c ****         if (y < -10) state->notes_window.l++;
 398              		.loc 1 94 0
 399 0060 10F10A0F 		cmn	r0, #10
 400 0064 10DA     		bge	.L31
 401              		.loc 1 94 0 is_stmt 0 discriminator 1
 402 0066 0136     		adds	r6, r6, #1
 403 0068 2662     		str	r6, [r4, #32]
 404              	.LVL54:
 405              	.L29:
 406              	.LBE8:
  92:.\game_manager.c ****         int y = obj_pos(state, state->notes[state->notes_window.l].time);
 407              		.loc 1 92 0 is_stmt 1
 408 006a 266A     		ldr	r6, [r4, #32]
 409 006c B542     		cmp	r5, r6
 410 006e EEDC     		bgt	.L32
 411 0070 0AE0     		b	.L31
 412              	.L34:
 413              	.LBB9:
  95:.\game_manager.c ****         else break;
  96:.\game_manager.c ****     }
  97:.\game_manager.c ****     while (state->barlines_window.r < state->n_barlines) {
  98:.\game_manager.c ****         int y = obj_pos(state, state->barlines[state->barlines_window.r]) + 5;
 414              		.loc 1 98 0
 415 0072 E369     		ldr	r3, [r4, #28]
 416 0074 2046     		mov	r0, r4
 417 0076 53F82510 		ldr	r1, [r3, r5, lsl #2]	@ float
 418 007a FFF7FEFF 		bl	obj_pos
 419              	.LVL55:
 420 007e 0530     		adds	r0, r0, #5
 421              	.LVL56:
  99:.\game_manager.c ****         if (y < UINT8_MAX) state->barlines_window.r++;
 422              		.loc 1 99 0
 423 0080 FE28     		cmp	r0, #254
 424 0082 11DC     		bgt	.L33
 425              		.loc 1 99 0 is_stmt 0 discriminator 1
 426 0084 0135     		adds	r5, r5, #1
 427 0086 E562     		str	r5, [r4, #44]
 428              	.LVL57:
 429              	.L31:
 430              	.LBE9:
  97:.\game_manager.c ****         int y = obj_pos(state, state->barlines[state->barlines_window.r]) + 5;
 431              		.loc 1 97 0 is_stmt 1
 432 0088 E56A     		ldr	r5, [r4, #44]
 433 008a A369     		ldr	r3, [r4, #24]
 434 008c 9D42     		cmp	r5, r3
 435 008e F0DB     		blt	.L34
 436 0090 0AE0     		b	.L33
ARM GAS  C:\Users\User\AppData\Local\Temp\ccKq1MFx.s 			page 11


 437              	.L35:
 438              	.LBB10:
 100:.\game_manager.c ****         else break;
 101:.\game_manager.c ****     }
 102:.\game_manager.c ****     while (state->barlines_window.l < state->barlines_window.r) {
 103:.\game_manager.c ****         int y = obj_pos(state, state->barlines[state->barlines_window.l]) + 5;
 439              		.loc 1 103 0
 440 0092 E369     		ldr	r3, [r4, #28]
 441 0094 2046     		mov	r0, r4
 442 0096 53F82610 		ldr	r1, [r3, r6, lsl #2]	@ float
 443 009a FFF7FEFF 		bl	obj_pos
 444              	.LVL58:
 104:.\game_manager.c ****         if (y < 0) state->barlines_window.l++;
 445              		.loc 1 104 0
 446 009e 10F1050F 		cmn	r0, #5
 447 00a2 04D5     		bpl	.L26
 448              		.loc 1 104 0 is_stmt 0 discriminator 1
 449 00a4 0136     		adds	r6, r6, #1
 450 00a6 A662     		str	r6, [r4, #40]
 451              	.LVL59:
 452              	.L33:
 453              	.LBE10:
 102:.\game_manager.c ****         int y = obj_pos(state, state->barlines[state->barlines_window.l]) + 5;
 454              		.loc 1 102 0 is_stmt 1
 455 00a8 A66A     		ldr	r6, [r4, #40]
 456 00aa B542     		cmp	r5, r6
 457 00ac F1DC     		bgt	.L35
 458              	.L26:
 459 00ae 70BD     		pop	{r4, r5, r6, pc}
 460              	.LVL60:
 461              	.L38:
 462              		.align	3
 463              	.L37:
 464 00b0 9A999999 		.word	-1717986918
 465 00b4 9999A93F 		.word	1068079513
 466              		.cfi_endproc
 467              	.LFE2:
 468              		.size	tick, .-tick
 469              		.global	__aeabi_fcmplt
 470              		.section	.text.update_score,"ax",%progbits
 471              		.align	2
 472              		.global	update_score
 473              		.thumb
 474              		.thumb_func
 475              		.type	update_score, %function
 476              	update_score:
 477              	.LFB3:
 105:.\game_manager.c ****         else break;
 106:.\game_manager.c ****     }
 107:.\game_manager.c **** }
 108:.\game_manager.c **** 
 109:.\game_manager.c **** void update_score(struct GameState *state, uint8 mask) {
 478              		.loc 1 109 0
 479              		.cfi_startproc
 480              		@ args = 0, pretend = 0, frame = 8
 481              		@ frame_needed = 0, uses_anonymous_args = 0
 482              	.LVL61:
ARM GAS  C:\Users\User\AppData\Local\Temp\ccKq1MFx.s 			page 12


 483 0000 2DE9F04F 		push	{r4, r5, r6, r7, r8, r9, r10, fp, lr}
 484              		.cfi_def_cfa_offset 36
 485              		.cfi_offset 4, -36
 486              		.cfi_offset 5, -32
 487              		.cfi_offset 6, -28
 488              		.cfi_offset 7, -24
 489              		.cfi_offset 8, -20
 490              		.cfi_offset 9, -16
 491              		.cfi_offset 10, -12
 492              		.cfi_offset 11, -8
 493              		.cfi_offset 14, -4
 494 0004 83B0     		sub	sp, sp, #12
 495              		.cfi_def_cfa_offset 48
 496 0006 0546     		mov	r5, r0
 497 0008 8A46     		mov	r10, r1
 110:.\game_manager.c ****     int new_score = state->score;
 498              		.loc 1 110 0
 499 000a D0F80CB0 		ldr	fp, [r0, #12]
 500              	.LVL62:
 501              	.LBB11:
 111:.\game_manager.c ****     for (int i = 0; i < 5; i++) {
 502              		.loc 1 111 0
 503 000e 0026     		movs	r6, #0
 504 0010 4DE0     		b	.L40
 505              	.LVL63:
 506              	.L50:
 112:.\game_manager.c ****         if (mask & (1 << i)) {
 507              		.loc 1 112 0
 508 0012 4AFA06F3 		asr	r3, r10, r6
 509 0016 13F0010F 		tst	r3, #1
 510 001a 47D0     		beq	.L41
 511              	.LVL64:
 512              	.LBB12:
 513              	.LBB13:
 113:.\game_manager.c ****             uint8 hit = 0;
 114:.\game_manager.c ****             // Realistically, we only need to check up to 10 notes
 115:.\game_manager.c ****             for (int j = state->notes_window.l; j < state->notes_window.r && j < state->notes_windo
 514              		.loc 1 115 0
 515 001c D5F82080 		ldr	r8, [r5, #32]
 516              	.LVL65:
 517 0020 4446     		mov	r4, r8
 518 0022 38E0     		b	.L42
 519              	.LVL66:
 520              	.L48:
 521              	.LBB14:
 116:.\game_manager.c ****                 if (state->notes[j].track != i || state->notes[j].played)
 522              		.loc 1 116 0
 523 0024 6A69     		ldr	r2, [r5, #20]
 524 0026 04EB4403 		add	r3, r4, r4, lsl #1
 525 002a 9B00     		lsls	r3, r3, #2
 526 002c D718     		adds	r7, r2, r3
 527 002e D35C     		ldrb	r3, [r2, r3]	@ zero_extendqisi2
 528 0030 B342     		cmp	r3, r6
 529 0032 2FD1     		bne	.L43
 530              		.loc 1 116 0 is_stmt 0 discriminator 1
 531 0034 3B7A     		ldrb	r3, [r7, #8]	@ zero_extendqisi2
 532 0036 6BBB     		cbnz	r3, .L43
ARM GAS  C:\Users\User\AppData\Local\Temp\ccKq1MFx.s 			page 13


 117:.\game_manager.c ****                     continue;
 118:.\game_manager.c ****                 // Calculate the score and break if non-zero
 119:.\game_manager.c ****                 float delta = state->notes[j].time - state->time;
 533              		.loc 1 119 0 is_stmt 1
 534 0038 7868     		ldr	r0, [r7, #4]	@ float
 535 003a A968     		ldr	r1, [r5, #8]	@ float
 536 003c FFF7FEFF 		bl	__aeabi_fsub
 537              	.LVL67:
 538 0040 8146     		mov	r9, r0
 539              	.LVL68:
 120:.\game_manager.c ****                 if (delta < 0) delta = -delta;
 540              		.loc 1 120 0
 541 0042 0021     		movs	r1, #0
 542 0044 FFF7FEFF 		bl	__aeabi_fcmplt
 543              	.LVL69:
 544 0048 08B1     		cbz	r0, .L44
 545              		.loc 1 120 0 is_stmt 0 discriminator 1
 546 004a 09F10049 		add	r9, r9, #-2147483648
 547              	.LVL70:
 548              	.L44:
 121:.\game_manager.c ****                 float max_delta = 10 * 2 * state->song.tempo / 60 / 256;
 549              		.loc 1 121 0 is_stmt 1
 550 004e 2868     		ldr	r0, [r5]	@ float
 551 0050 1A49     		ldr	r1, .L55
 552 0052 FFF7FEFF 		bl	__aeabi_fmul
 553              	.LVL71:
 554 0056 1A49     		ldr	r1, .L55+4
 555 0058 FFF7FEFF 		bl	__aeabi_fdiv
 556              	.LVL72:
 557 005c 4FF06E51 		mov	r1, #998244352
 558 0060 FFF7FEFF 		bl	__aeabi_fmul
 559              	.LVL73:
 560 0064 0190     		str	r0, [sp, #4]	@ float
 561              	.LVL74:
 122:.\game_manager.c ****                 if (delta < max_delta) {
 562              		.loc 1 122 0
 563 0066 4846     		mov	r0, r9
 564              	.LVL75:
 565 0068 0199     		ldr	r1, [sp, #4]	@ float
 566 006a FFF7FEFF 		bl	__aeabi_fcmplt
 567              	.LVL76:
 568 006e 88B1     		cbz	r0, .L43
 123:.\game_manager.c ****                     new_score += (int)(100 * (1 - delta / max_delta));
 569              		.loc 1 123 0
 570 0070 4846     		mov	r0, r9
 571 0072 0199     		ldr	r1, [sp, #4]	@ float
 572 0074 FFF7FEFF 		bl	__aeabi_fdiv
 573              	.LVL77:
 574 0078 0146     		mov	r1, r0
 575 007a 4FF07E50 		mov	r0, #1065353216
 576 007e FFF7FEFF 		bl	__aeabi_fsub
 577              	.LVL78:
 578 0082 1049     		ldr	r1, .L55+8
 579 0084 FFF7FEFF 		bl	__aeabi_fmul
 580              	.LVL79:
 581 0088 FFF7FEFF 		bl	__aeabi_f2iz
 582              	.LVL80:
ARM GAS  C:\Users\User\AppData\Local\Temp\ccKq1MFx.s 			page 14


 583 008c 8344     		add	fp, fp, r0
 584              	.LVL81:
 124:.\game_manager.c ****                     state->notes[j].played = 1;
 585              		.loc 1 124 0
 586 008e 0123     		movs	r3, #1
 587 0090 3B72     		strb	r3, [r7, #8]
 588              	.LVL82:
 125:.\game_manager.c ****                     hit = 1;
 126:.\game_manager.c ****                     break;
 589              		.loc 1 126 0
 590 0092 0AE0     		b	.L47
 591              	.LVL83:
 592              	.L43:
 593              	.LBE14:
 115:.\game_manager.c ****                 if (state->notes[j].track != i || state->notes[j].played)
 594              		.loc 1 115 0 discriminator 2
 595 0094 0134     		adds	r4, r4, #1
 596              	.LVL84:
 597              	.L42:
 115:.\game_manager.c ****                 if (state->notes[j].track != i || state->notes[j].played)
 598              		.loc 1 115 0 is_stmt 0 discriminator 1
 599 0096 6B6A     		ldr	r3, [r5, #36]
 600 0098 A342     		cmp	r3, r4
 601 009a 05DD     		ble	.L51
 115:.\game_manager.c ****                 if (state->notes[j].track != i || state->notes[j].played)
 602              		.loc 1 115 0 discriminator 3
 603 009c 08F10A03 		add	r3, r8, #10
 604 00a0 A342     		cmp	r3, r4
 605 00a2 BFDC     		bgt	.L48
 606              	.LBE13:
 113:.\game_manager.c ****             // Realistically, we only need to check up to 10 notes
 607              		.loc 1 113 0 is_stmt 1
 608 00a4 0023     		movs	r3, #0
 609              	.LBB15:
 610 00a6 00E0     		b	.L47
 611              	.L51:
 612              	.LBE15:
 613 00a8 0023     		movs	r3, #0
 614              	.LVL85:
 615              	.L47:
 127:.\game_manager.c ****                 }
 128:.\game_manager.c ****             }
 129:.\game_manager.c ****             // Check that every note is hit to prevent spamming
 130:.\game_manager.c ****             if (hit == 0) return;
 616              		.loc 1 130 0
 617 00aa 23B1     		cbz	r3, .L39
 618              	.LVL86:
 619              	.L41:
 620              	.LBE12:
 111:.\game_manager.c ****         if (mask & (1 << i)) {
 621              		.loc 1 111 0 discriminator 2
 622 00ac 0136     		adds	r6, r6, #1
 623              	.LVL87:
 624              	.L40:
 111:.\game_manager.c ****         if (mask & (1 << i)) {
 625              		.loc 1 111 0 is_stmt 0 discriminator 1
 626 00ae 042E     		cmp	r6, #4
ARM GAS  C:\Users\User\AppData\Local\Temp\ccKq1MFx.s 			page 15


 627 00b0 AFDD     		ble	.L50
 628              	.LBE11:
 131:.\game_manager.c ****         }
 132:.\game_manager.c ****     }
 133:.\game_manager.c ****     state->score = new_score;
 629              		.loc 1 133 0 is_stmt 1
 630 00b2 C5F80CB0 		str	fp, [r5, #12]
 631              	.L39:
 134:.\game_manager.c **** }
 632              		.loc 1 134 0
 633 00b6 03B0     		add	sp, sp, #12
 634              		.cfi_def_cfa_offset 36
 635              		@ sp needed
 636 00b8 BDE8F08F 		pop	{r4, r5, r6, r7, r8, r9, r10, fp, pc}
 637              	.LVL88:
 638              	.L56:
 639              		.align	2
 640              	.L55:
 641 00bc 0000A041 		.word	1101004800
 642 00c0 00007042 		.word	1114636288
 643 00c4 0000C842 		.word	1120403456
 644              		.cfi_endproc
 645              	.LFE3:
 646              		.size	update_score, .-update_score
 647              		.section	.text.create_sprites,"ax",%progbits
 648              		.align	2
 649              		.global	create_sprites
 650              		.thumb
 651              		.thumb_func
 652              		.type	create_sprites, %function
 653              	create_sprites:
 654              	.LFB4:
 135:.\game_manager.c **** 
 136:.\game_manager.c **** int create_sprites(struct GameState *state, struct Sprite *sprites) {
 655              		.loc 1 136 0
 656              		.cfi_startproc
 657              		@ args = 0, pretend = 0, frame = 24
 658              		@ frame_needed = 0, uses_anonymous_args = 0
 659              	.LVL89:
 660 0000 2DE9F04F 		push	{r4, r5, r6, r7, r8, r9, r10, fp, lr}
 661              		.cfi_def_cfa_offset 36
 662              		.cfi_offset 4, -36
 663              		.cfi_offset 5, -32
 664              		.cfi_offset 6, -28
 665              		.cfi_offset 7, -24
 666              		.cfi_offset 8, -20
 667              		.cfi_offset 9, -16
 668              		.cfi_offset 10, -12
 669              		.cfi_offset 11, -8
 670              		.cfi_offset 14, -4
 671 0004 87B0     		sub	sp, sp, #28
 672              		.cfi_def_cfa_offset 64
 673 0006 0546     		mov	r5, r0
 674 0008 8B46     		mov	fp, r1
 675              	.LVL90:
 676              	.LBB16:
 137:.\game_manager.c ****     // Recall that the fretboard holds 8 beats, and tempo is in BPM
ARM GAS  C:\Users\User\AppData\Local\Temp\ccKq1MFx.s 			page 16


 138:.\game_manager.c ****     int n = 0;
 139:.\game_manager.c ****     for (int i = state->notes_window.l; i < state->notes_window.r; i++) {
 677              		.loc 1 139 0
 678 000a 076A     		ldr	r7, [r0, #32]
 679              	.LVL91:
 680              	.LBE16:
 138:.\game_manager.c ****     for (int i = state->notes_window.l; i < state->notes_window.r; i++) {
 681              		.loc 1 138 0
 682 000c 0024     		movs	r4, #0
 683              	.LBB19:
 684              		.loc 1 139 0
 685 000e 1FE0     		b	.L58
 686              	.LVL92:
 687              	.L59:
 688              	.LBB17:
 140:.\game_manager.c ****         // +5 because the target indicators are offset by +5
 141:.\game_manager.c ****         int y = obj_pos(state, state->notes[i].time);
 689              		.loc 1 141 0 discriminator 3
 690 0010 D5F814A0 		ldr	r10, [r5, #20]
 691 0014 07EB4708 		add	r8, r7, r7, lsl #1
 692 0018 4FEA8808 		lsl	r8, r8, #2
 693 001c 0AEB0809 		add	r9, r10, r8
 694 0020 2846     		mov	r0, r5
 695 0022 D9F80410 		ldr	r1, [r9, #4]	@ float
 696 0026 FFF7FEFF 		bl	obj_pos
 697              	.LVL93:
 698 002a 0246     		mov	r2, r0
 699              	.LVL94:
 142:.\game_manager.c ****         sprites[n++] = make_ellipse(state->notes[i].track, y, state->notes[i].played);
 700              		.loc 1 142 0 discriminator 3
 701 002c 631C     		adds	r3, r4, #1
 702 002e 0193     		str	r3, [sp, #4]
 703              	.LVL95:
 704 0030 0BEB0414 		add	r4, fp, r4, lsl #4
 705 0034 02AE     		add	r6, sp, #8
 706 0036 3046     		mov	r0, r6
 707              	.LVL96:
 708 0038 1AF80810 		ldrb	r1, [r10, r8]	@ zero_extendqisi2
 709 003c 99F80830 		ldrb	r3, [r9, #8]	@ zero_extendqisi2
 710              	.LVL97:
 711 0040 FFF7FEFF 		bl	make_ellipse
 712              	.LVL98:
 713 0044 96E80F00 		ldmia	r6, {r0, r1, r2, r3}
 714 0048 84E80F00 		stmia	r4, {r0, r1, r2, r3}
 715              	.LBE17:
 139:.\game_manager.c ****         // +5 because the target indicators are offset by +5
 716              		.loc 1 139 0 discriminator 3
 717 004c 0137     		adds	r7, r7, #1
 718              	.LVL99:
 719              	.LBB18:
 720              		.loc 1 142 0 discriminator 3
 721 004e 019C     		ldr	r4, [sp, #4]
 722              	.LVL100:
 723              	.L58:
 724              	.LBE18:
 139:.\game_manager.c ****         // +5 because the target indicators are offset by +5
 725              		.loc 1 139 0 discriminator 1
ARM GAS  C:\Users\User\AppData\Local\Temp\ccKq1MFx.s 			page 17


 726 0050 6B6A     		ldr	r3, [r5, #36]
 727 0052 BB42     		cmp	r3, r7
 728 0054 DCDC     		bgt	.L59
 729              	.LBE19:
 730              	.LBB20:
 143:.\game_manager.c ****     }
 144:.\game_manager.c ****     for (int i = state->barlines_window.l; i < state->barlines_window.r; i++) {
 731              		.loc 1 144 0
 732 0056 AF6A     		ldr	r7, [r5, #40]
 733              	.LVL101:
 734 0058 14E0     		b	.L60
 735              	.L61:
 736              	.LBB21:
 145:.\game_manager.c ****         // +10 because of the aforementioned offset, plus half the height of an ellipse
 146:.\game_manager.c ****         int y = obj_pos(state, state->barlines[i]) + 5;
 737              		.loc 1 146 0 discriminator 3
 738 005a EB69     		ldr	r3, [r5, #28]
 739 005c 2846     		mov	r0, r5
 740 005e 53F82710 		ldr	r1, [r3, r7, lsl #2]	@ float
 741 0062 FFF7FEFF 		bl	obj_pos
 742              	.LVL102:
 743 0066 411D     		adds	r1, r0, #5
 744              	.LVL103:
 147:.\game_manager.c ****         sprites[n++] = make_barline(y);
 745              		.loc 1 147 0 discriminator 3
 746 0068 04F10108 		add	r8, r4, #1
 747              	.LVL104:
 748 006c 0BEB0414 		add	r4, fp, r4, lsl #4
 749 0070 02AE     		add	r6, sp, #8
 750 0072 3046     		mov	r0, r6
 751 0074 FFF7FEFF 		bl	make_barline
 752              	.LVL105:
 753 0078 96E80F00 		ldmia	r6, {r0, r1, r2, r3}
 754 007c 84E80F00 		stmia	r4, {r0, r1, r2, r3}
 755              	.LBE21:
 144:.\game_manager.c ****         // +10 because of the aforementioned offset, plus half the height of an ellipse
 756              		.loc 1 144 0 discriminator 3
 757 0080 0137     		adds	r7, r7, #1
 758              	.LVL106:
 759              	.LBB22:
 760              		.loc 1 147 0 discriminator 3
 761 0082 4446     		mov	r4, r8
 762              	.LVL107:
 763              	.L60:
 764              	.LBE22:
 144:.\game_manager.c ****         // +10 because of the aforementioned offset, plus half the height of an ellipse
 765              		.loc 1 144 0 discriminator 1
 766 0084 EB6A     		ldr	r3, [r5, #44]
 767 0086 BB42     		cmp	r3, r7
 768 0088 E7DC     		bgt	.L61
 769              	.LBE20:
 148:.\game_manager.c ****     }
 149:.\game_manager.c ****     return n;
 150:.\game_manager.c **** }
 770              		.loc 1 150 0
 771 008a 2046     		mov	r0, r4
 772 008c 07B0     		add	sp, sp, #28
ARM GAS  C:\Users\User\AppData\Local\Temp\ccKq1MFx.s 			page 18


 773              		.cfi_def_cfa_offset 36
 774              		@ sp needed
 775 008e BDE8F08F 		pop	{r4, r5, r6, r7, r8, r9, r10, fp, pc}
 776              		.cfi_endproc
 777              	.LFE4:
 778              		.size	create_sprites, .-create_sprites
 779 0092 00BF     		.section	.rodata.str1.4,"aMS",%progbits,1
 780              		.align	2
 781              	.LC0:
 782 0000 7200     		.ascii	"r\000"
 783 0002 0000     		.bss
 784              		.align	2
 785              		.set	.LANCHOR0,. + 0
 786              		.set	.LANCHOR1,. + 8688
 787              		.type	notes, %object
 788              		.size	notes, 12000
 789              	notes:
 790 0000 00000000 		.space	12000
 790      00000000 
 790      00000000 
 790      00000000 
 790      00000000 
 791              		.type	barlines, %object
 792              		.size	barlines, 4000
 793              	barlines:
 794 2ee0 00000000 		.space	4000
 794      00000000 
 794      00000000 
 794      00000000 
 794      00000000 
 795              		.text
 796              	.Letext0:
 797              		.file 2 "./sprites.h"
 798              		.file 3 "./game_manager.h"
 799              		.file 4 "Generated_Source\\PSoC5/cytypes.h"
 800              		.file 5 "..\\emFile_V322c\\Code\\Include\\PSoC5/FS_Types.h"
 801              		.file 6 "c:\\program files (x86)\\cypress\\psoc creator\\3.3\\psoc creator\\import\\gnu\\arm\\4.9.
 802              		.file 7 "..\\emFile_V322c\\Code\\Include\\PSoC5/FS.h"