ARM GAS  C:\Users\User\AppData\Local\Temp\cccJzoTa.s 			page 1


   1              		.syntax unified
   2              		.cpu cortex-m3
   3              		.fpu softvfp
   4              		.eabi_attribute 20, 1
   5              		.eabi_attribute 21, 1
   6              		.eabi_attribute 23, 3
   7              		.eabi_attribute 24, 1
   8              		.eabi_attribute 25, 1
   9              		.eabi_attribute 26, 1
  10              		.eabi_attribute 30, 1
  11              		.eabi_attribute 34, 1
  12              		.eabi_attribute 18, 4
  13              		.thumb
  14              		.file	"main.c"
  15              		.text
  16              	.Ltext0:
  17              		.cfi_sections	.debug_frame
  18              		.section	.text.BLE_Rx_isr,"ax",%progbits
  19              		.align	2
  20              		.global	BLE_Rx_isr
  21              		.thumb
  22              		.thumb_func
  23              		.type	BLE_Rx_isr, %function
  24              	BLE_Rx_isr:
  25              	.LFB69:
  26              		.file 1 ".\\main.c"
   1:.\main.c      **** /* ========================================
   2:.\main.c      ****  *
   3:.\main.c      ****  * Copyright Andi Qu, 2024
   4:.\main.c      ****  * All Rights Reserved
   5:.\main.c      ****  * UNPUBLISHED, LICENSED SOFTWARE.
   6:.\main.c      ****  *
   7:.\main.c      ****  * CONFIDENTIAL AND PROPRIETARY INFORMATION
   8:.\main.c      ****  * WHICH IS THE PROPERTY OF ANDI QU.
   9:.\main.c      ****  *
  10:.\main.c      ****  * ========================================
  11:.\main.c      ****  */
  12:.\main.c      **** #include <FS.h>
  13:.\main.c      **** #include <project.h>
  14:.\main.c      **** #include <math.h>
  15:.\main.c      **** #include <game_manager.h>
  16:.\main.c      **** #include <sprites.h>
  17:.\main.c      **** 
  18:.\main.c      **** // Game data
  19:.\main.c      **** int n_sprites;
  20:.\main.c      **** uint8 indicator_countdown[5];
  21:.\main.c      **** struct Sprite sprites[1<<5];
  22:.\main.c      **** struct GameState game_state;
  23:.\main.c      **** 
  24:.\main.c      **** // Global rendering variables
  25:.\main.c      **** int n_points;
  26:.\main.c      **** struct Point points[1<<10];
  27:.\main.c      **** uint8 new_flag;
  28:.\main.c      **** int new_n_points;
  29:.\main.c      **** struct Point new_points[1<<10];
  30:.\main.c      **** 
  31:.\main.c      **** // File I/O stuff
ARM GAS  C:\Users\User\AppData\Local\Temp\cccJzoTa.s 			page 2


  32:.\main.c      **** #define N_BUFFERS 2
  33:.\main.c      **** #define BUFFER_LEN 4096
  34:.\main.c      **** FS_FILE *audio_file;
  35:.\main.c      **** int buffer_len[N_BUFFERS];
  36:.\main.c      **** int fill_buffer, play_buffer, play_idx;
  37:.\main.c      **** uint8 audio_done;
  38:.\main.c      **** uint8 buffer[N_BUFFERS][BUFFER_LEN];
  39:.\main.c      **** 
  40:.\main.c      **** // Declare custom ISRs
  41:.\main.c      **** CY_ISR_PROTO(FPS_isr);
  42:.\main.c      **** CY_ISR_PROTO(BLE_Rx_isr);
  43:.\main.c      **** CY_ISR_PROTO(Audio_isr);
  44:.\main.c      **** 
  45:.\main.c      **** /*
  46:.\main.c      ****  * Initialize the system hardware
  47:.\main.c      ****  */
  48:.\main.c      **** void hw_init() {
  49:.\main.c      ****     x_DAC_Start();
  50:.\main.c      ****     y_DAC_Start();
  51:.\main.c      ****     
  52:.\main.c      ****     LCD_Start();
  53:.\main.c      ****     LCD_ClearDisplay();
  54:.\main.c      ****     LCD_Position(0, 0);
  55:.\main.c      ****     
  56:.\main.c      ****     BLE_UART_Init();
  57:.\main.c      ****     BLE_UART_Start();
  58:.\main.c      ****     
  59:.\main.c      ****     FPS_Counter_Start();
  60:.\main.c      **** 
  61:.\main.c      ****     FPS_isr_StartEx(FPS_isr);
  62:.\main.c      ****     BLE_Rx_isr_StartEx(BLE_Rx_isr);
  63:.\main.c      ****     
  64:.\main.c      ****     FS_Init();
  65:.\main.c      **** }
  66:.\main.c      **** 
  67:.\main.c      **** /*
  68:.\main.c      ****  * Start a new game of Guitar Hero
  69:.\main.c      ****  */
  70:.\main.c      **** void game_init() {
  71:.\main.c      ****     init_sprites();
  72:.\main.c      ****     
  73:.\main.c      ****     // Set up the game frame
  74:.\main.c      ****     n_sprites = 0;
  75:.\main.c      ****     sprites[n_sprites++] = make_fretboard();
  76:.\main.c      ****     for (int i = 0; i < 5; i++) {
  77:.\main.c      ****         sprites[n_sprites++] = make_ellipse(i, 5, 0);
  78:.\main.c      ****     }
  79:.\main.c      ****     
  80:.\main.c      ****     game_state = new_game("feelgood.txt");
  81:.\main.c      ****     LCD_Position(0, 0);
  82:.\main.c      ****     LCD_PrintString("Duration: ");
  83:.\main.c      ****     LCD_PrintNumber((int)game_state.song.duration);
  84:.\main.c      **** }
  85:.\main.c      **** 
  86:.\main.c      **** /*
  87:.\main.c      ****  * Loads a song from the SD card and begins playback
  88:.\main.c      ****  */
ARM GAS  C:\Users\User\AppData\Local\Temp\cccJzoTa.s 			page 3


  89:.\main.c      **** void audio_init() {
  90:.\main.c      ****     char wav_filename[14] = "feelgood.wav";
  91:.\main.c      ****     audio_file = FS_FOpen(wav_filename, "r");
  92:.\main.c      ****     if (audio_file) {
  93:.\main.c      ****         for (int i = 0; i < N_BUFFERS; i++) {
  94:.\main.c      ****             buffer_len[i] = FS_Read(audio_file, buffer[i], BUFFER_LEN);
  95:.\main.c      ****         }
  96:.\main.c      ****         fill_buffer = 0, play_buffer = 0, play_idx = 0;
  97:.\main.c      ****         audio_done = 0;
  98:.\main.c      ****         Audio_DAC_Start();
  99:.\main.c      ****         Audio_isr_StartEx(Audio_isr);
 100:.\main.c      ****     }
 101:.\main.c      **** }
 102:.\main.c      **** 
 103:.\main.c      **** /*
 104:.\main.c      ****  * Given a list of points, draws a polygon connecting them
 105:.\main.c      ****  * on the oscilloscope using the DAC
 106:.\main.c      ****  */
 107:.\main.c      **** void draw_points() {   
 108:.\main.c      ****     for (int i = 0; i < n_points; i++) {
 109:.\main.c      ****         x_DAC_SetValue(points[i].x);
 110:.\main.c      ****         y_DAC_SetValue(points[i].y);
 111:.\main.c      ****     }
 112:.\main.c      **** }
 113:.\main.c      **** 
 114:.\main.c      **** /*
 115:.\main.c      ****  * Updates the list of points to render
 116:.\main.c      ****  */
 117:.\main.c      **** void update_render() {
 118:.\main.c      ****     // Decrement feedback counter 
 119:.\main.c      ****     for (int i = 0; i < 5; i++) {
 120:.\main.c      ****         if (indicator_countdown[i]) {
 121:.\main.c      ****             sprites[i + 1] = make_ellipse(i, 5, 1);
 122:.\main.c      ****             indicator_countdown[i]--;
 123:.\main.c      ****         } else {
 124:.\main.c      ****             sprites[i + 1] = make_ellipse(i, 5, 0);
 125:.\main.c      ****         }
 126:.\main.c      ****     }
 127:.\main.c      ****     // Update sprites
 128:.\main.c      ****     n_sprites = create_sprites(&game_state, sprites + 6) + 6;
 129:.\main.c      ****     // Convert to polyline
 130:.\main.c      ****     new_n_points = sprites_to_polyline(n_sprites, sprites, new_points);
 131:.\main.c      ****     // Convert to perspective
 132:.\main.c      ****     ortho_to_perspective(new_n_points, new_points);
 133:.\main.c      ****     // Signal that a new frame is ready
 134:.\main.c      ****     new_flag = 1;
 135:.\main.c      **** }
 136:.\main.c      **** 
 137:.\main.c      **** /*
 138:.\main.c      ****  * Run the game at 20 FPS
 139:.\main.c      ****  */
 140:.\main.c      **** CY_ISR(FPS_isr) {
 141:.\main.c      ****     tick(&game_state);
 142:.\main.c      ****     // LCD_Position(0, 0);
 143:.\main.c      ****     // LCD_PrintString("     ");
 144:.\main.c      ****     // LCD_Position(0, 0);
 145:.\main.c      ****     // LCD_PrintNumber(game_state.score);
ARM GAS  C:\Users\User\AppData\Local\Temp\cccJzoTa.s 			page 4


 146:.\main.c      ****     update_render();
 147:.\main.c      **** }
 148:.\main.c      **** 
 149:.\main.c      **** CY_ISR(BLE_Rx_isr) {
  27              		.loc 1 149 0
  28              		.cfi_startproc
  29              		@ args = 0, pretend = 0, frame = 0
  30              		@ frame_needed = 0, uses_anonymous_args = 0
  31 0000 08B5     		push	{r3, lr}
  32              		.cfi_def_cfa_offset 8
  33              		.cfi_offset 3, -8
  34              		.cfi_offset 14, -4
 150:.\main.c      ****     uint8 c = BLE_UART_GetChar();
  35              		.loc 1 150 0
  36 0002 FFF7FEFF 		bl	BLE_UART_GetChar
  37              	.LVL0:
 151:.\main.c      ****     uint8 mask = c - 0x30;
  38              		.loc 1 151 0
  39 0006 3038     		subs	r0, r0, #48
  40              	.LVL1:
  41 0008 C1B2     		uxtb	r1, r0
  42              	.LVL2:
 152:.\main.c      ****     // Reject out-of-bounds inputs
 153:.\main.c      ****     if (mask > 31) return;
  43              		.loc 1 153 0
  44 000a 1F29     		cmp	r1, #31
  45 000c 0FD8     		bhi	.L1
  46 000e 0023     		movs	r3, #0
  47 0010 08E0     		b	.L3
  48              	.LVL3:
  49              	.L5:
  50              	.LBB2:
 154:.\main.c      ****     // Fill the affected tracks for 5 frames
 155:.\main.c      ****     for (int i = 0; i < 5; i++) {
 156:.\main.c      ****         if (mask & (1 << i))
  51              		.loc 1 156 0
  52 0012 41FA03F2 		asr	r2, r1, r3
  53 0016 12F0010F 		tst	r2, #1
  54 001a 02D0     		beq	.L4
 157:.\main.c      ****             indicator_countdown[i] = 5;
  55              		.loc 1 157 0
  56 001c 0520     		movs	r0, #5
  57 001e 044A     		ldr	r2, .L7
  58 0020 D054     		strb	r0, [r2, r3]
  59              	.L4:
 155:.\main.c      ****         if (mask & (1 << i))
  60              		.loc 1 155 0 discriminator 2
  61 0022 0133     		adds	r3, r3, #1
  62              	.LVL4:
  63              	.L3:
 155:.\main.c      ****         if (mask & (1 << i))
  64              		.loc 1 155 0 is_stmt 0 discriminator 1
  65 0024 042B     		cmp	r3, #4
  66 0026 F4DD     		ble	.L5
  67              	.LBE2:
 158:.\main.c      ****     }
 159:.\main.c      ****     // Calculate scoring
ARM GAS  C:\Users\User\AppData\Local\Temp\cccJzoTa.s 			page 5


 160:.\main.c      ****     update_score(&game_state, mask);
  68              		.loc 1 160 0 is_stmt 1
  69 0028 0248     		ldr	r0, .L7+4
  70 002a FFF7FEFF 		bl	update_score
  71              	.LVL5:
  72              	.L1:
  73 002e 08BD     		pop	{r3, pc}
  74              	.L8:
  75              		.align	2
  76              	.L7:
  77 0030 00000000 		.word	indicator_countdown
  78 0034 00000000 		.word	game_state
  79              		.cfi_endproc
  80              	.LFE69:
  81              		.size	BLE_Rx_isr, .-BLE_Rx_isr
  82              		.section	.text.Audio_isr,"ax",%progbits
  83              		.align	2
  84              		.global	Audio_isr
  85              		.thumb
  86              		.thumb_func
  87              		.type	Audio_isr, %function
  88              	Audio_isr:
  89              	.LFB70:
 161:.\main.c      **** }
 162:.\main.c      **** 
 163:.\main.c      **** CY_ISR(Audio_isr) {
  90              		.loc 1 163 0
  91              		.cfi_startproc
  92              		@ args = 0, pretend = 0, frame = 0
  93              		@ frame_needed = 0, uses_anonymous_args = 0
  94 0000 38B5     		push	{r3, r4, r5, lr}
  95              		.cfi_def_cfa_offset 16
  96              		.cfi_offset 3, -16
  97              		.cfi_offset 4, -12
  98              		.cfi_offset 5, -8
  99              		.cfi_offset 14, -4
 164:.\main.c      ****     // WAV data is 8-bit unsigned PCM
 165:.\main.c      ****     Audio_DAC_SetValue(buffer[play_buffer][play_idx++]);
 100              		.loc 1 165 0
 101 0002 144D     		ldr	r5, .L13
 102 0004 2A68     		ldr	r2, [r5]
 103 0006 144C     		ldr	r4, .L13+4
 104 0008 2368     		ldr	r3, [r4]
 105 000a 591C     		adds	r1, r3, #1
 106 000c 2160     		str	r1, [r4]
 107 000e 03EB0233 		add	r3, r3, r2, lsl #12
 108 0012 124A     		ldr	r2, .L13+8
 109 0014 D05C     		ldrb	r0, [r2, r3]	@ zero_extendqisi2
 110 0016 FFF7FEFF 		bl	Audio_DAC_SetValue
 111              	.LVL6:
 166:.\main.c      ****     if (play_idx == buffer_len[play_buffer]) {
 112              		.loc 1 166 0
 113 001a 2B68     		ldr	r3, [r5]
 114 001c 104A     		ldr	r2, .L13+12
 115 001e 52F82310 		ldr	r1, [r2, r3, lsl #2]
 116 0022 2268     		ldr	r2, [r4]
 117 0024 9142     		cmp	r1, r2
ARM GAS  C:\Users\User\AppData\Local\Temp\cccJzoTa.s 			page 6


 118 0026 14D1     		bne	.L9
 167:.\main.c      ****         play_idx = 0;
 119              		.loc 1 167 0
 120 0028 0021     		movs	r1, #0
 121 002a 2160     		str	r1, [r4]
 168:.\main.c      ****         play_buffer++;
 122              		.loc 1 168 0
 123 002c 0133     		adds	r3, r3, #1
 124 002e 2B60     		str	r3, [r5]
 169:.\main.c      ****         if (play_buffer == N_BUFFERS)
 125              		.loc 1 169 0
 126 0030 022B     		cmp	r3, #2
 127 0032 01D1     		bne	.L11
 170:.\main.c      ****             play_buffer = 0;
 128              		.loc 1 170 0
 129 0034 2B46     		mov	r3, r5
 130 0036 1960     		str	r1, [r3]
 131              	.L11:
 171:.\main.c      ****         // Stop playing when we reach the end of the file
 172:.\main.c      ****         if (play_buffer == fill_buffer && audio_done) {
 132              		.loc 1 172 0
 133 0038 064B     		ldr	r3, .L13
 134 003a 1A68     		ldr	r2, [r3]
 135 003c 094B     		ldr	r3, .L13+16
 136 003e 1B68     		ldr	r3, [r3]
 137 0040 9A42     		cmp	r2, r3
 138 0042 06D1     		bne	.L9
 139              		.loc 1 172 0 is_stmt 0 discriminator 1
 140 0044 084B     		ldr	r3, .L13+20
 141 0046 1B78     		ldrb	r3, [r3]	@ zero_extendqisi2
 142 0048 1BB1     		cbz	r3, .L9
 173:.\main.c      ****             Audio_isr_Stop();
 143              		.loc 1 173 0 is_stmt 1
 144 004a FFF7FEFF 		bl	Audio_isr_Stop
 145              	.LVL7:
 174:.\main.c      ****             Audio_DAC_Stop();
 146              		.loc 1 174 0
 147 004e FFF7FEFF 		bl	Audio_DAC_Stop
 148              	.LVL8:
 149              	.L9:
 150 0052 38BD     		pop	{r3, r4, r5, pc}
 151              	.L14:
 152              		.align	2
 153              	.L13:
 154 0054 00000000 		.word	play_buffer
 155 0058 00000000 		.word	play_idx
 156 005c 00000000 		.word	buffer
 157 0060 00000000 		.word	buffer_len
 158 0064 00000000 		.word	fill_buffer
 159 0068 00000000 		.word	audio_done
 160              		.cfi_endproc
 161              	.LFE70:
 162              		.size	Audio_isr, .-Audio_isr
 163              		.section	.text.hw_init,"ax",%progbits
 164              		.align	2
 165              		.global	hw_init
 166              		.thumb
ARM GAS  C:\Users\User\AppData\Local\Temp\cccJzoTa.s 			page 7


 167              		.thumb_func
 168              		.type	hw_init, %function
 169              	hw_init:
 170              	.LFB63:
  48:.\main.c      ****     x_DAC_Start();
 171              		.loc 1 48 0
 172              		.cfi_startproc
 173              		@ args = 0, pretend = 0, frame = 0
 174              		@ frame_needed = 0, uses_anonymous_args = 0
 175 0000 08B5     		push	{r3, lr}
 176              		.cfi_def_cfa_offset 8
 177              		.cfi_offset 3, -8
 178              		.cfi_offset 14, -4
  49:.\main.c      ****     y_DAC_Start();
 179              		.loc 1 49 0
 180 0002 FFF7FEFF 		bl	x_DAC_Start
 181              	.LVL9:
  50:.\main.c      ****     
 182              		.loc 1 50 0
 183 0006 FFF7FEFF 		bl	y_DAC_Start
 184              	.LVL10:
  52:.\main.c      ****     LCD_ClearDisplay();
 185              		.loc 1 52 0
 186 000a FFF7FEFF 		bl	LCD_Start
 187              	.LVL11:
  53:.\main.c      ****     LCD_Position(0, 0);
 188              		.loc 1 53 0
 189 000e 0120     		movs	r0, #1
 190 0010 FFF7FEFF 		bl	LCD_WriteControl
 191              	.LVL12:
  54:.\main.c      ****     
 192              		.loc 1 54 0
 193 0014 0020     		movs	r0, #0
 194 0016 0146     		mov	r1, r0
 195 0018 FFF7FEFF 		bl	LCD_Position
 196              	.LVL13:
  56:.\main.c      ****     BLE_UART_Start();
 197              		.loc 1 56 0
 198 001c FFF7FEFF 		bl	BLE_UART_Init
 199              	.LVL14:
  57:.\main.c      ****     
 200              		.loc 1 57 0
 201 0020 FFF7FEFF 		bl	BLE_UART_Start
 202              	.LVL15:
  59:.\main.c      **** 
 203              		.loc 1 59 0
 204 0024 FFF7FEFF 		bl	FPS_Counter_Start
 205              	.LVL16:
  61:.\main.c      ****     BLE_Rx_isr_StartEx(BLE_Rx_isr);
 206              		.loc 1 61 0
 207 0028 0448     		ldr	r0, .L17
 208 002a FFF7FEFF 		bl	FPS_isr_StartEx
 209              	.LVL17:
  62:.\main.c      ****     
 210              		.loc 1 62 0
 211 002e 0448     		ldr	r0, .L17+4
 212 0030 FFF7FEFF 		bl	BLE_Rx_isr_StartEx
ARM GAS  C:\Users\User\AppData\Local\Temp\cccJzoTa.s 			page 8


 213              	.LVL18:
  64:.\main.c      **** }
 214              		.loc 1 64 0
 215 0034 FFF7FEFF 		bl	FS_Init
 216              	.LVL19:
 217 0038 08BD     		pop	{r3, pc}
 218              	.L18:
 219 003a 00BF     		.align	2
 220              	.L17:
 221 003c 00000000 		.word	FPS_isr
 222 0040 00000000 		.word	BLE_Rx_isr
 223              		.cfi_endproc
 224              	.LFE63:
 225              		.size	hw_init, .-hw_init
 226              		.global	__aeabi_f2iz
 227              		.section	.text.game_init,"ax",%progbits
 228              		.align	2
 229              		.global	game_init
 230              		.thumb
 231              		.thumb_func
 232              		.type	game_init, %function
 233              	game_init:
 234              	.LFB64:
  70:.\main.c      ****     init_sprites();
 235              		.loc 1 70 0
 236              		.cfi_startproc
 237              		@ args = 0, pretend = 0, frame = 64
 238              		@ frame_needed = 0, uses_anonymous_args = 0
 239 0000 70B5     		push	{r4, r5, r6, lr}
 240              		.cfi_def_cfa_offset 16
 241              		.cfi_offset 4, -16
 242              		.cfi_offset 5, -12
 243              		.cfi_offset 6, -8
 244              		.cfi_offset 14, -4
 245 0002 90B0     		sub	sp, sp, #64
 246              		.cfi_def_cfa_offset 80
  71:.\main.c      ****     
 247              		.loc 1 71 0
 248 0004 FFF7FEFF 		bl	init_sprites
 249              	.LVL20:
  75:.\main.c      ****     for (int i = 0; i < 5; i++) {
 250              		.loc 1 75 0
 251 0008 0122     		movs	r2, #1
 252 000a 204B     		ldr	r3, .L23
 253 000c 1A60     		str	r2, [r3]
 254 000e 204D     		ldr	r5, .L23+4
 255 0010 0CAC     		add	r4, sp, #48
 256 0012 2046     		mov	r0, r4
 257 0014 FFF7FEFF 		bl	make_fretboard
 258              	.LVL21:
 259 0018 94E80F00 		ldmia	r4, {r0, r1, r2, r3}
 260 001c 85E80F00 		stmia	r5, {r0, r1, r2, r3}
 261              	.LVL22:
 262              	.LBB3:
  76:.\main.c      ****         sprites[n_sprites++] = make_ellipse(i, 5, 0);
 263              		.loc 1 76 0
 264 0020 0026     		movs	r6, #0
ARM GAS  C:\Users\User\AppData\Local\Temp\cccJzoTa.s 			page 9


 265 0022 12E0     		b	.L20
 266              	.LVL23:
 267              	.L21:
  77:.\main.c      ****     }
 268              		.loc 1 77 0 discriminator 3
 269 0024 194B     		ldr	r3, .L23
 270 0026 1C68     		ldr	r4, [r3]
 271 0028 621C     		adds	r2, r4, #1
 272 002a 1A60     		str	r2, [r3]
 273 002c 184B     		ldr	r3, .L23+4
 274 002e 03EB0414 		add	r4, r3, r4, lsl #4
 275 0032 0CAD     		add	r5, sp, #48
 276 0034 2846     		mov	r0, r5
 277 0036 F1B2     		uxtb	r1, r6
 278 0038 0522     		movs	r2, #5
 279 003a 0023     		movs	r3, #0
 280 003c FFF7FEFF 		bl	make_ellipse
 281              	.LVL24:
 282 0040 95E80F00 		ldmia	r5, {r0, r1, r2, r3}
 283 0044 84E80F00 		stmia	r4, {r0, r1, r2, r3}
  76:.\main.c      ****         sprites[n_sprites++] = make_ellipse(i, 5, 0);
 284              		.loc 1 76 0 discriminator 3
 285 0048 0136     		adds	r6, r6, #1
 286              	.LVL25:
 287              	.L20:
  76:.\main.c      ****         sprites[n_sprites++] = make_ellipse(i, 5, 0);
 288              		.loc 1 76 0 is_stmt 0 discriminator 1
 289 004a 042E     		cmp	r6, #4
 290 004c EADD     		ble	.L21
 291              	.LBE3:
  80:.\main.c      ****     LCD_Position(0, 0);
 292              		.loc 1 80 0 is_stmt 1
 293 004e 114E     		ldr	r6, .L23+8
 294              	.LVL26:
 295 0050 6846     		mov	r0, sp
 296 0052 1149     		ldr	r1, .L23+12
 297 0054 FFF7FEFF 		bl	new_game
 298              	.LVL27:
 299 0058 3546     		mov	r5, r6
 300 005a 6C46     		mov	r4, sp
 301 005c 0FCC     		ldmia	r4!, {r0, r1, r2, r3}
 302 005e 0FC5     		stmia	r5!, {r0, r1, r2, r3}
 303 0060 0FCC     		ldmia	r4!, {r0, r1, r2, r3}
 304 0062 0FC5     		stmia	r5!, {r0, r1, r2, r3}
 305 0064 94E80F00 		ldmia	r4, {r0, r1, r2, r3}
 306 0068 85E80F00 		stmia	r5, {r0, r1, r2, r3}
  81:.\main.c      ****     LCD_PrintString("Duration: ");
 307              		.loc 1 81 0
 308 006c 0020     		movs	r0, #0
 309 006e 0146     		mov	r1, r0
 310 0070 FFF7FEFF 		bl	LCD_Position
 311              	.LVL28:
  82:.\main.c      ****     LCD_PrintNumber((int)game_state.song.duration);
 312              		.loc 1 82 0
 313 0074 0948     		ldr	r0, .L23+16
 314 0076 FFF7FEFF 		bl	LCD_PrintString
 315              	.LVL29:
ARM GAS  C:\Users\User\AppData\Local\Temp\cccJzoTa.s 			page 10


  83:.\main.c      **** }
 316              		.loc 1 83 0
 317 007a 7068     		ldr	r0, [r6, #4]	@ float
 318 007c FFF7FEFF 		bl	__aeabi_f2iz
 319              	.LVL30:
 320 0080 80B2     		uxth	r0, r0
 321 0082 FFF7FEFF 		bl	LCD_PrintU32Number
 322              	.LVL31:
  84:.\main.c      **** 
 323              		.loc 1 84 0
 324 0086 10B0     		add	sp, sp, #64
 325              		.cfi_def_cfa_offset 16
 326              		@ sp needed
 327 0088 70BD     		pop	{r4, r5, r6, pc}
 328              	.L24:
 329 008a 00BF     		.align	2
 330              	.L23:
 331 008c 00000000 		.word	n_sprites
 332 0090 00000000 		.word	sprites
 333 0094 00000000 		.word	game_state
 334 0098 00000000 		.word	.LC0
 335 009c 10000000 		.word	.LC1
 336              		.cfi_endproc
 337              	.LFE64:
 338              		.size	game_init, .-game_init
 339              		.section	.text.audio_init,"ax",%progbits
 340              		.align	2
 341              		.global	audio_init
 342              		.thumb
 343              		.thumb_func
 344              		.type	audio_init, %function
 345              	audio_init:
 346              	.LFB65:
  89:.\main.c      ****     char wav_filename[14] = "feelgood.wav";
 347              		.loc 1 89 0
 348              		.cfi_startproc
 349              		@ args = 0, pretend = 0, frame = 16
 350              		@ frame_needed = 0, uses_anonymous_args = 0
 351 0000 10B5     		push	{r4, lr}
 352              		.cfi_def_cfa_offset 8
 353              		.cfi_offset 4, -8
 354              		.cfi_offset 14, -4
 355 0002 84B0     		sub	sp, sp, #16
 356              		.cfi_def_cfa_offset 24
  90:.\main.c      ****     audio_file = FS_FOpen(wav_filename, "r");
 357              		.loc 1 90 0
 358 0004 184B     		ldr	r3, .L31
 359 0006 6C46     		mov	r4, sp
 360 0008 0FCB     		ldmia	r3, {r0, r1, r2, r3}
 361 000a 07C4     		stmia	r4!, {r0, r1, r2}
 362 000c 2370     		strb	r3, [r4]
 363 000e 0023     		movs	r3, #0
 364 0010 8DF80D30 		strb	r3, [sp, #13]
  91:.\main.c      ****     if (audio_file) {
 365              		.loc 1 91 0
 366 0014 6846     		mov	r0, sp
 367 0016 1549     		ldr	r1, .L31+4
ARM GAS  C:\Users\User\AppData\Local\Temp\cccJzoTa.s 			page 11


 368 0018 FFF7FEFF 		bl	FS_FOpen
 369              	.LVL32:
 370 001c 144B     		ldr	r3, .L31+8
 371 001e 1860     		str	r0, [r3]
  92:.\main.c      ****         for (int i = 0; i < N_BUFFERS; i++) {
 372              		.loc 1 92 0
 373 0020 70B9     		cbnz	r0, .L29
 374 0022 1EE0     		b	.L25
 375              	.LVL33:
 376              	.L28:
 377              	.LBB4:
  94:.\main.c      ****         }
 378              		.loc 1 94 0 discriminator 3
 379 0024 124B     		ldr	r3, .L31+8
 380 0026 1868     		ldr	r0, [r3]
 381 0028 1249     		ldr	r1, .L31+12
 382 002a 01EB0431 		add	r1, r1, r4, lsl #12
 383 002e 4FF48052 		mov	r2, #4096
 384 0032 FFF7FEFF 		bl	FS_Read
 385              	.LVL34:
 386 0036 104B     		ldr	r3, .L31+16
 387 0038 43F82400 		str	r0, [r3, r4, lsl #2]
  93:.\main.c      ****             buffer_len[i] = FS_Read(audio_file, buffer[i], BUFFER_LEN);
 388              		.loc 1 93 0 discriminator 3
 389 003c 0134     		adds	r4, r4, #1
 390              	.LVL35:
 391 003e 00E0     		b	.L26
 392              	.LVL36:
 393              	.L29:
 394              	.LBE4:
 395 0040 0024     		movs	r4, #0
 396              	.L26:
 397              	.LVL37:
 398              	.LBB5:
  93:.\main.c      ****             buffer_len[i] = FS_Read(audio_file, buffer[i], BUFFER_LEN);
 399              		.loc 1 93 0 is_stmt 0 discriminator 1
 400 0042 012C     		cmp	r4, #1
 401 0044 EEDD     		ble	.L28
 402              	.LBE5:
  96:.\main.c      ****         audio_done = 0;
 403              		.loc 1 96 0 is_stmt 1
 404 0046 0023     		movs	r3, #0
 405 0048 0C4A     		ldr	r2, .L31+20
 406 004a 1360     		str	r3, [r2]
 407 004c 0C4A     		ldr	r2, .L31+24
 408 004e 1360     		str	r3, [r2]
 409 0050 0C4A     		ldr	r2, .L31+28
 410 0052 1360     		str	r3, [r2]
  97:.\main.c      ****         Audio_DAC_Start();
 411              		.loc 1 97 0
 412 0054 0C4A     		ldr	r2, .L31+32
 413 0056 1370     		strb	r3, [r2]
  98:.\main.c      ****         Audio_isr_StartEx(Audio_isr);
 414              		.loc 1 98 0
 415 0058 FFF7FEFF 		bl	Audio_DAC_Start
 416              	.LVL38:
  99:.\main.c      ****     }
ARM GAS  C:\Users\User\AppData\Local\Temp\cccJzoTa.s 			page 12


 417              		.loc 1 99 0
 418 005c 0B48     		ldr	r0, .L31+36
 419 005e FFF7FEFF 		bl	Audio_isr_StartEx
 420              	.LVL39:
 421              	.L25:
 101:.\main.c      **** 
 422              		.loc 1 101 0
 423 0062 04B0     		add	sp, sp, #16
 424              		.cfi_def_cfa_offset 8
 425              		@ sp needed
 426 0064 10BD     		pop	{r4, pc}
 427              	.L32:
 428 0066 00BF     		.align	2
 429              	.L31:
 430 0068 00000000 		.word	.LANCHOR0
 431 006c 1C000000 		.word	.LC3
 432 0070 00000000 		.word	audio_file
 433 0074 00000000 		.word	buffer
 434 0078 00000000 		.word	buffer_len
 435 007c 00000000 		.word	fill_buffer
 436 0080 00000000 		.word	play_buffer
 437 0084 00000000 		.word	play_idx
 438 0088 00000000 		.word	audio_done
 439 008c 00000000 		.word	Audio_isr
 440              		.cfi_endproc
 441              	.LFE65:
 442              		.size	audio_init, .-audio_init
 443              		.section	.text.draw_points,"ax",%progbits
 444              		.align	2
 445              		.global	draw_points
 446              		.thumb
 447              		.thumb_func
 448              		.type	draw_points, %function
 449              	draw_points:
 450              	.LFB66:
 107:.\main.c      ****     for (int i = 0; i < n_points; i++) {
 451              		.loc 1 107 0
 452              		.cfi_startproc
 453              		@ args = 0, pretend = 0, frame = 0
 454              		@ frame_needed = 0, uses_anonymous_args = 0
 455 0000 38B5     		push	{r3, r4, r5, lr}
 456              		.cfi_def_cfa_offset 16
 457              		.cfi_offset 3, -16
 458              		.cfi_offset 4, -12
 459              		.cfi_offset 5, -8
 460              		.cfi_offset 14, -4
 461              	.LVL40:
 462              	.LBB6:
 108:.\main.c      ****         x_DAC_SetValue(points[i].x);
 463              		.loc 1 108 0
 464 0002 0024     		movs	r4, #0
 465 0004 0AE0     		b	.L34
 466              	.LVL41:
 467              	.L35:
 109:.\main.c      ****         y_DAC_SetValue(points[i].y);
 468              		.loc 1 109 0 discriminator 3
 469 0006 084D     		ldr	r5, .L37
ARM GAS  C:\Users\User\AppData\Local\Temp\cccJzoTa.s 			page 13


 470 0008 15F81400 		ldrb	r0, [r5, r4, lsl #1]	@ zero_extendqisi2
 471 000c FFF7FEFF 		bl	x_DAC_SetValue
 472              	.LVL42:
 110:.\main.c      ****     }
 473              		.loc 1 110 0 discriminator 3
 474 0010 05EB4405 		add	r5, r5, r4, lsl #1
 475 0014 6878     		ldrb	r0, [r5, #1]	@ zero_extendqisi2
 476 0016 FFF7FEFF 		bl	y_DAC_SetValue
 477              	.LVL43:
 108:.\main.c      ****         x_DAC_SetValue(points[i].x);
 478              		.loc 1 108 0 discriminator 3
 479 001a 0134     		adds	r4, r4, #1
 480              	.LVL44:
 481              	.L34:
 108:.\main.c      ****         x_DAC_SetValue(points[i].x);
 482              		.loc 1 108 0 is_stmt 0 discriminator 1
 483 001c 034B     		ldr	r3, .L37+4
 484 001e 1B68     		ldr	r3, [r3]
 485 0020 9C42     		cmp	r4, r3
 486 0022 F0DB     		blt	.L35
 487              	.LBE6:
 112:.\main.c      **** 
 488              		.loc 1 112 0 is_stmt 1
 489 0024 38BD     		pop	{r3, r4, r5, pc}
 490              	.LVL45:
 491              	.L38:
 492 0026 00BF     		.align	2
 493              	.L37:
 494 0028 00000000 		.word	points
 495 002c 00000000 		.word	n_points
 496              		.cfi_endproc
 497              	.LFE66:
 498              		.size	draw_points, .-draw_points
 499              		.section	.text.update_render,"ax",%progbits
 500              		.align	2
 501              		.global	update_render
 502              		.thumb
 503              		.thumb_func
 504              		.type	update_render, %function
 505              	update_render:
 506              	.LFB67:
 117:.\main.c      ****     // Decrement feedback counter 
 507              		.loc 1 117 0
 508              		.cfi_startproc
 509              		@ args = 0, pretend = 0, frame = 16
 510              		@ frame_needed = 0, uses_anonymous_args = 0
 511 0000 70B5     		push	{r4, r5, r6, lr}
 512              		.cfi_def_cfa_offset 16
 513              		.cfi_offset 4, -16
 514              		.cfi_offset 5, -12
 515              		.cfi_offset 6, -8
 516              		.cfi_offset 14, -4
 517 0002 84B0     		sub	sp, sp, #16
 518              		.cfi_def_cfa_offset 32
 519              	.LVL46:
 520              	.LBB7:
 119:.\main.c      ****         if (indicator_countdown[i]) {
ARM GAS  C:\Users\User\AppData\Local\Temp\cccJzoTa.s 			page 14


 521              		.loc 1 119 0
 522 0004 0024     		movs	r4, #0
 523 0006 24E0     		b	.L40
 524              	.LVL47:
 525              	.L43:
 120:.\main.c      ****             sprites[i + 1] = make_ellipse(i, 5, 1);
 526              		.loc 1 120 0
 527 0008 1F4B     		ldr	r3, .L45
 528 000a 1B5D     		ldrb	r3, [r3, r4]	@ zero_extendqisi2
 529 000c 93B1     		cbz	r3, .L41
 121:.\main.c      ****             indicator_countdown[i]--;
 530              		.loc 1 121 0
 531 000e 651C     		adds	r5, r4, #1
 532 0010 1E4B     		ldr	r3, .L45+4
 533 0012 03EB0515 		add	r5, r3, r5, lsl #4
 534 0016 6846     		mov	r0, sp
 535 0018 E1B2     		uxtb	r1, r4
 536 001a 0522     		movs	r2, #5
 537 001c 0123     		movs	r3, #1
 538 001e FFF7FEFF 		bl	make_ellipse
 539              	.LVL48:
 540 0022 9DE80F00 		ldmia	sp, {r0, r1, r2, r3}
 541 0026 85E80F00 		stmia	r5, {r0, r1, r2, r3}
 122:.\main.c      ****         } else {
 542              		.loc 1 122 0
 543 002a 174A     		ldr	r2, .L45
 544 002c 135D     		ldrb	r3, [r2, r4]	@ zero_extendqisi2
 545 002e 013B     		subs	r3, r3, #1
 546 0030 1355     		strb	r3, [r2, r4]
 547 0032 0DE0     		b	.L42
 548              	.L41:
 124:.\main.c      ****         }
 549              		.loc 1 124 0
 550 0034 651C     		adds	r5, r4, #1
 551 0036 154B     		ldr	r3, .L45+4
 552 0038 03EB0515 		add	r5, r3, r5, lsl #4
 553 003c 6846     		mov	r0, sp
 554 003e E1B2     		uxtb	r1, r4
 555 0040 0522     		movs	r2, #5
 556 0042 0023     		movs	r3, #0
 557 0044 FFF7FEFF 		bl	make_ellipse
 558              	.LVL49:
 559 0048 9DE80F00 		ldmia	sp, {r0, r1, r2, r3}
 560 004c 85E80F00 		stmia	r5, {r0, r1, r2, r3}
 561              	.L42:
 119:.\main.c      ****         if (indicator_countdown[i]) {
 562              		.loc 1 119 0 discriminator 2
 563 0050 0134     		adds	r4, r4, #1
 564              	.LVL50:
 565              	.L40:
 119:.\main.c      ****         if (indicator_countdown[i]) {
 566              		.loc 1 119 0 is_stmt 0 discriminator 1
 567 0052 042C     		cmp	r4, #4
 568 0054 D8DD     		ble	.L43
 569              	.LBE7:
 128:.\main.c      ****     // Convert to polyline
 570              		.loc 1 128 0 is_stmt 1
ARM GAS  C:\Users\User\AppData\Local\Temp\cccJzoTa.s 			page 15


 571 0056 0E4D     		ldr	r5, .L45+8
 572 0058 0E48     		ldr	r0, .L45+12
 573 005a 2946     		mov	r1, r5
 574 005c FFF7FEFF 		bl	create_sprites
 575              	.LVL51:
 576 0060 0630     		adds	r0, r0, #6
 577 0062 0D4B     		ldr	r3, .L45+16
 578 0064 1860     		str	r0, [r3]
 130:.\main.c      ****     // Convert to perspective
 579              		.loc 1 130 0
 580 0066 0D4C     		ldr	r4, .L45+20
 581              	.LVL52:
 582 0068 A5F16001 		sub	r1, r5, #96
 583 006c 2246     		mov	r2, r4
 584 006e FFF7FEFF 		bl	sprites_to_polyline
 585              	.LVL53:
 586 0072 0B4B     		ldr	r3, .L45+24
 587 0074 1860     		str	r0, [r3]
 132:.\main.c      ****     // Signal that a new frame is ready
 588              		.loc 1 132 0
 589 0076 2146     		mov	r1, r4
 590 0078 FFF7FEFF 		bl	ortho_to_perspective
 591              	.LVL54:
 134:.\main.c      **** }
 592              		.loc 1 134 0
 593 007c 0122     		movs	r2, #1
 594 007e 094B     		ldr	r3, .L45+28
 595 0080 1A70     		strb	r2, [r3]
 135:.\main.c      **** 
 596              		.loc 1 135 0
 597 0082 04B0     		add	sp, sp, #16
 598              		.cfi_def_cfa_offset 16
 599              		@ sp needed
 600 0084 70BD     		pop	{r4, r5, r6, pc}
 601              	.L46:
 602 0086 00BF     		.align	2
 603              	.L45:
 604 0088 00000000 		.word	indicator_countdown
 605 008c 00000000 		.word	sprites
 606 0090 60000000 		.word	sprites+96
 607 0094 00000000 		.word	game_state
 608 0098 00000000 		.word	n_sprites
 609 009c 00000000 		.word	new_points
 610 00a0 00000000 		.word	new_n_points
 611 00a4 00000000 		.word	new_flag
 612              		.cfi_endproc
 613              	.LFE67:
 614              		.size	update_render, .-update_render
 615              		.section	.text.FPS_isr,"ax",%progbits
 616              		.align	2
 617              		.global	FPS_isr
 618              		.thumb
 619              		.thumb_func
 620              		.type	FPS_isr, %function
 621              	FPS_isr:
 622              	.LFB68:
 140:.\main.c      ****     tick(&game_state);
ARM GAS  C:\Users\User\AppData\Local\Temp\cccJzoTa.s 			page 16


 623              		.loc 1 140 0
 624              		.cfi_startproc
 625              		@ args = 0, pretend = 0, frame = 0
 626              		@ frame_needed = 0, uses_anonymous_args = 0
 627 0000 08B5     		push	{r3, lr}
 628              		.cfi_def_cfa_offset 8
 629              		.cfi_offset 3, -8
 630              		.cfi_offset 14, -4
 141:.\main.c      ****     // LCD_Position(0, 0);
 631              		.loc 1 141 0
 632 0002 0348     		ldr	r0, .L49
 633 0004 FFF7FEFF 		bl	tick
 634              	.LVL55:
 146:.\main.c      **** }
 635              		.loc 1 146 0
 636 0008 FFF7FEFF 		bl	update_render
 637              	.LVL56:
 638 000c 08BD     		pop	{r3, pc}
 639              	.L50:
 640 000e 00BF     		.align	2
 641              	.L49:
 642 0010 00000000 		.word	game_state
 643              		.cfi_endproc
 644              	.LFE68:
 645              		.size	FPS_isr, .-FPS_isr
 646              		.section	.text.main,"ax",%progbits
 647              		.align	2
 648              		.global	main
 649              		.thumb
 650              		.thumb_func
 651              		.type	main, %function
 652              	main:
 653              	.LFB71:
 175:.\main.c      ****         }
 176:.\main.c      ****     }
 177:.\main.c      **** }
 178:.\main.c      **** 
 179:.\main.c      **** int main() {
 654              		.loc 1 179 0
 655              		.cfi_startproc
 656              		@ args = 0, pretend = 0, frame = 0
 657              		@ frame_needed = 0, uses_anonymous_args = 0
 658 0000 10B5     		push	{r4, lr}
 659              		.cfi_def_cfa_offset 8
 660              		.cfi_offset 4, -8
 661              		.cfi_offset 14, -4
 180:.\main.c      ****     CyGlobalIntEnable; /* Enable global interrupts. */
 662              		.loc 1 180 0
 663              	@ 180 ".\main.c" 1
 664 0002 62B6     		CPSIE   i
 665              	@ 0 "" 2
 181:.\main.c      **** 
 182:.\main.c      ****     hw_init();
 666              		.loc 1 182 0
 667              		.thumb
 668 0004 FFF7FEFF 		bl	hw_init
 669              	.LVL57:
ARM GAS  C:\Users\User\AppData\Local\Temp\cccJzoTa.s 			page 17


 183:.\main.c      ****     game_init();
 670              		.loc 1 183 0
 671 0008 FFF7FEFF 		bl	game_init
 672              	.LVL58:
 184:.\main.c      ****     audio_init();
 673              		.loc 1 184 0
 674 000c FFF7FEFF 		bl	audio_init
 675              	.LVL59:
 676              	.L57:
 185:.\main.c      **** 
 186:.\main.c      ****     for (;;) {
 187:.\main.c      ****         // "Latch" the new points
 188:.\main.c      ****         if (new_flag) {
 677              		.loc 1 188 0
 678 0010 204B     		ldr	r3, .L59
 679 0012 1B78     		ldrb	r3, [r3]	@ zero_extendqisi2
 680 0014 8BB1     		cbz	r3, .L52
 189:.\main.c      ****             n_points = new_n_points;
 681              		.loc 1 189 0
 682 0016 204B     		ldr	r3, .L59+4
 683 0018 1868     		ldr	r0, [r3]
 684 001a 204B     		ldr	r3, .L59+8
 685 001c 1860     		str	r0, [r3]
 686              	.LVL60:
 687              	.LBB8:
 190:.\main.c      ****             for (int i = 0; i < n_points; i++)
 688              		.loc 1 190 0
 689 001e 0023     		movs	r3, #0
 690 0020 06E0     		b	.L53
 691              	.LVL61:
 692              	.L54:
 191:.\main.c      ****                 points[i] = new_points[i];
 693              		.loc 1 191 0 discriminator 3
 694 0022 1F4A     		ldr	r2, .L59+12
 695 0024 32F81310 		ldrh	r1, [r2, r3, lsl #1]	@ unaligned
 696 0028 1E4A     		ldr	r2, .L59+16
 697 002a 22F81310 		strh	r1, [r2, r3, lsl #1]	@ unaligned
 190:.\main.c      ****             for (int i = 0; i < n_points; i++)
 698              		.loc 1 190 0 discriminator 3
 699 002e 0133     		adds	r3, r3, #1
 700              	.LVL62:
 701              	.L53:
 190:.\main.c      ****             for (int i = 0; i < n_points; i++)
 702              		.loc 1 190 0 is_stmt 0 discriminator 1
 703 0030 8342     		cmp	r3, r0
 704 0032 F6DB     		blt	.L54
 705              	.LBE8:
 192:.\main.c      ****             new_flag = 0;
 706              		.loc 1 192 0 is_stmt 1
 707 0034 0022     		movs	r2, #0
 708 0036 174B     		ldr	r3, .L59
 709              	.LVL63:
 710 0038 1A70     		strb	r2, [r3]
 711              	.L52:
 193:.\main.c      ****         }
 194:.\main.c      ****         
 195:.\main.c      ****         // Continuously fill the ring buffer
ARM GAS  C:\Users\User\AppData\Local\Temp\cccJzoTa.s 			page 18


 196:.\main.c      ****         if (!audio_done) {
 712              		.loc 1 196 0
 713 003a 1B4B     		ldr	r3, .L59+20
 714 003c 1B78     		ldrb	r3, [r3]	@ zero_extendqisi2
 715 003e 33BB     		cbnz	r3, .L55
 197:.\main.c      ****             if (fill_buffer != play_buffer) {
 716              		.loc 1 197 0
 717 0040 1A4B     		ldr	r3, .L59+24
 718 0042 1C68     		ldr	r4, [r3]
 719 0044 1A4B     		ldr	r3, .L59+28
 720 0046 1B68     		ldr	r3, [r3]
 721 0048 9C42     		cmp	r4, r3
 722 004a 20D0     		beq	.L55
 198:.\main.c      ****                 buffer_len[fill_buffer] = FS_Read(audio_file, buffer[fill_buffer], BUFFER_LEN);
 723              		.loc 1 198 0
 724 004c 194B     		ldr	r3, .L59+32
 725 004e 1868     		ldr	r0, [r3]
 726 0050 1949     		ldr	r1, .L59+36
 727 0052 01EB0431 		add	r1, r1, r4, lsl #12
 728 0056 4FF48052 		mov	r2, #4096
 729 005a FFF7FEFF 		bl	FS_Read
 730              	.LVL64:
 731 005e 174A     		ldr	r2, .L59+40
 732 0060 42F82400 		str	r0, [r2, r4, lsl #2]
 199:.\main.c      ****                 if (!buffer_len[fill_buffer]) {
 733              		.loc 1 199 0
 734 0064 114B     		ldr	r3, .L59+24
 735 0066 1B68     		ldr	r3, [r3]
 736 0068 52F82320 		ldr	r2, [r2, r3, lsl #2]
 737 006c 3AB9     		cbnz	r2, .L56
 200:.\main.c      ****                     audio_done = 1;
 738              		.loc 1 200 0
 739 006e 0122     		movs	r2, #1
 740 0070 0D4B     		ldr	r3, .L59+20
 741 0072 1A70     		strb	r2, [r3]
 201:.\main.c      ****                     FS_FClose(audio_file);
 742              		.loc 1 201 0
 743 0074 0F4B     		ldr	r3, .L59+32
 744 0076 1868     		ldr	r0, [r3]
 745 0078 FFF7FEFF 		bl	FS_FClose
 746              	.LVL65:
 747 007c 07E0     		b	.L55
 748              	.L56:
 202:.\main.c      ****                 } else {
 203:.\main.c      ****                     fill_buffer++;
 749              		.loc 1 203 0
 750 007e 0133     		adds	r3, r3, #1
 751 0080 0A4A     		ldr	r2, .L59+24
 752 0082 1360     		str	r3, [r2]
 204:.\main.c      ****                     if (fill_buffer == N_BUFFERS)
 753              		.loc 1 204 0
 754 0084 022B     		cmp	r3, #2
 755 0086 02D1     		bne	.L55
 205:.\main.c      ****                         fill_buffer = 0;
 756              		.loc 1 205 0
 757 0088 0022     		movs	r2, #0
 758 008a 084B     		ldr	r3, .L59+24
ARM GAS  C:\Users\User\AppData\Local\Temp\cccJzoTa.s 			page 19


 759 008c 1A60     		str	r2, [r3]
 760              	.L55:
 206:.\main.c      ****                 }
 207:.\main.c      ****             }
 208:.\main.c      ****         }
 209:.\main.c      **** 
 210:.\main.c      ****         // Render!
 211:.\main.c      ****         draw_points();
 761              		.loc 1 211 0
 762 008e FFF7FEFF 		bl	draw_points
 763              	.LVL66:
 212:.\main.c      ****     }
 764              		.loc 1 212 0
 765 0092 BDE7     		b	.L57
 766              	.L60:
 767              		.align	2
 768              	.L59:
 769 0094 00000000 		.word	new_flag
 770 0098 00000000 		.word	new_n_points
 771 009c 00000000 		.word	n_points
 772 00a0 00000000 		.word	new_points
 773 00a4 00000000 		.word	points
 774 00a8 00000000 		.word	audio_done
 775 00ac 00000000 		.word	fill_buffer
 776 00b0 00000000 		.word	play_buffer
 777 00b4 00000000 		.word	audio_file
 778 00b8 00000000 		.word	buffer
 779 00bc 00000000 		.word	buffer_len
 780              		.cfi_endproc
 781              	.LFE71:
 782              		.size	main, .-main
 783              		.comm	buffer,8192,4
 784              		.comm	audio_done,1,1
 785              		.comm	play_idx,4,4
 786              		.comm	play_buffer,4,4
 787              		.comm	fill_buffer,4,4
 788              		.comm	buffer_len,8,4
 789              		.comm	audio_file,4,4
 790              		.comm	new_points,2048,4
 791              		.comm	new_n_points,4,4
 792              		.comm	new_flag,1,1
 793              		.comm	points,2048,4
 794              		.comm	n_points,4,4
 795              		.comm	game_state,48,4
 796              		.comm	sprites,512,4
 797              		.comm	indicator_countdown,5,4
 798              		.comm	n_sprites,4,4
 799              		.section	.rodata
 800              		.align	2
 801              		.set	.LANCHOR0,. + 0
 802              	.LC2:
 803 0000 6665656C 		.ascii	"feelgood.wav\000"
 803      676F6F64 
 803      2E776176 
 803      00
 804 000d 00       		.space	1
 805 000e 0000     		.section	.rodata.str1.4,"aMS",%progbits,1
ARM GAS  C:\Users\User\AppData\Local\Temp\cccJzoTa.s 			page 20


 806              		.align	2
 807              	.LC0:
 808 0000 6665656C 		.ascii	"feelgood.txt\000"
 808      676F6F64 
 808      2E747874 
 808      00
 809 000d 000000   		.space	3
 810              	.LC1:
 811 0010 44757261 		.ascii	"Duration: \000"
 811      74696F6E 
 811      3A2000
 812 001b 00       		.space	1
 813              	.LC3:
 814 001c 7200     		.ascii	"r\000"
 815 001e 0000     		.text
 816              	.Letext0:
 817              		.file 2 "..\\emFile_V322c\\Code\\Include\\PSoC5/FS_Types.h"
 818              		.file 3 "c:\\program files (x86)\\cypress\\psoc creator\\3.3\\psoc creator\\import\\gnu\\arm\\4.9.
 819              		.file 4 "c:\\program files (x86)\\cypress\\psoc creator\\3.3\\psoc creator\\import\\gnu\\arm\\4.9.
 820              		.file 5 "Generated_Source\\PSoC5/cytypes.h"
 821              		.file 6 "./sprites.h"
 822              		.file 7 "./game_manager.h"
 823              		.file 8 "Generated_Source\\PSoC5/core_cm3.h"
 824              		.file 9 "Generated_Source\\PSoC5/Audio_DAC.h"
 825              		.file 10 "Generated_Source\\PSoC5/Audio_isr.h"
 826              		.file 11 "Generated_Source\\PSoC5/x_DAC.h"
 827              		.file 12 "Generated_Source\\PSoC5/y_DAC.h"
 828              		.file 13 "Generated_Source\\PSoC5/LCD.h"
 829              		.file 14 "Generated_Source\\PSoC5/BLE_UART.h"
 830              		.file 15 "Generated_Source\\PSoC5/FPS_Counter.h"
 831              		.file 16 "Generated_Source\\PSoC5/FPS_isr.h"
 832              		.file 17 "Generated_Source\\PSoC5/BLE_Rx_isr.h"
 833              		.file 18 "..\\emFile_V322c\\Code\\Include\\PSoC5/FS.h"