ARM GAS  C:\Users\User\AppData\Local\Temp\ccZz7ivb.s 			page 1


   1              		.syntax unified
   2              		.cpu cortex-m3
   3              		.fpu softvfp
   4              		.eabi_attribute 20, 1
   5              		.eabi_attribute 21, 1
   6              		.eabi_attribute 23, 3
   7              		.eabi_attribute 24, 1
   8              		.eabi_attribute 25, 1
   9              		.eabi_attribute 26, 1
  10              		.eabi_attribute 30, 1
  11              		.eabi_attribute 34, 1
  12              		.eabi_attribute 18, 4
  13              		.thumb
  14              		.file	"SD_FS_PM.c"
  15              		.text
  16              	.Ltext0:
  17              		.cfi_sections	.debug_frame
  18              		.section	.text.SD_FS_SaveConfig,"ax",%progbits
  19              		.align	2
  20              		.global	SD_FS_SaveConfig
  21              		.thumb
  22              		.thumb_func
  23              		.type	SD_FS_SaveConfig, %function
  24              	SD_FS_SaveConfig:
  25              	.LFB63:
  26              		.file 1 ".\\Generated_Source\\PSoC5\\SD_FS_PM.c"
   1:.\Generated_Source\PSoC5/SD_FS_PM.c **** /*******************************************************************************
   2:.\Generated_Source\PSoC5/SD_FS_PM.c **** * File Name: SD_FS_PM.c
   3:.\Generated_Source\PSoC5/SD_FS_PM.c **** * Version 1.20
   4:.\Generated_Source\PSoC5/SD_FS_PM.c **** *
   5:.\Generated_Source\PSoC5/SD_FS_PM.c **** * Description:
   6:.\Generated_Source\PSoC5/SD_FS_PM.c **** *  This file provides the API source code for Power Management of the emFile
   7:.\Generated_Source\PSoC5/SD_FS_PM.c **** *  component.
   8:.\Generated_Source\PSoC5/SD_FS_PM.c **** *
   9:.\Generated_Source\PSoC5/SD_FS_PM.c **** * Note:
  10:.\Generated_Source\PSoC5/SD_FS_PM.c **** *
  11:.\Generated_Source\PSoC5/SD_FS_PM.c **** *******************************************************************************
  12:.\Generated_Source\PSoC5/SD_FS_PM.c **** * Copyright 2011-2012, Cypress Semiconductor Corporation.  All rights reserved.
  13:.\Generated_Source\PSoC5/SD_FS_PM.c **** * You may use this file only in accordance with the license, terms, conditions,
  14:.\Generated_Source\PSoC5/SD_FS_PM.c **** * disclaimers, and limitations in the end user license agreement accompanying
  15:.\Generated_Source\PSoC5/SD_FS_PM.c **** * the software package with which this file was provided.
  16:.\Generated_Source\PSoC5/SD_FS_PM.c **** *******************************************************************************/
  17:.\Generated_Source\PSoC5/SD_FS_PM.c **** 
  18:.\Generated_Source\PSoC5/SD_FS_PM.c **** #include <project.h>
  19:.\Generated_Source\PSoC5/SD_FS_PM.c **** #include "SD_FS.h"
  20:.\Generated_Source\PSoC5/SD_FS_PM.c **** 
  21:.\Generated_Source\PSoC5/SD_FS_PM.c **** 
  22:.\Generated_Source\PSoC5/SD_FS_PM.c **** /*******************************************************************************
  23:.\Generated_Source\PSoC5/SD_FS_PM.c **** * Function Name: SD_FS_SaveConfig
  24:.\Generated_Source\PSoC5/SD_FS_PM.c **** ********************************************************************************
  25:.\Generated_Source\PSoC5/SD_FS_PM.c **** *
  26:.\Generated_Source\PSoC5/SD_FS_PM.c **** * Summary:
  27:.\Generated_Source\PSoC5/SD_FS_PM.c **** *  Saves SPI Masters configuration.
  28:.\Generated_Source\PSoC5/SD_FS_PM.c **** *
  29:.\Generated_Source\PSoC5/SD_FS_PM.c **** * Parameters:
  30:.\Generated_Source\PSoC5/SD_FS_PM.c **** *  None
  31:.\Generated_Source\PSoC5/SD_FS_PM.c **** *
ARM GAS  C:\Users\User\AppData\Local\Temp\ccZz7ivb.s 			page 2


  32:.\Generated_Source\PSoC5/SD_FS_PM.c **** * Return:
  33:.\Generated_Source\PSoC5/SD_FS_PM.c **** *  None
  34:.\Generated_Source\PSoC5/SD_FS_PM.c **** *
  35:.\Generated_Source\PSoC5/SD_FS_PM.c **** * Reentrant:
  36:.\Generated_Source\PSoC5/SD_FS_PM.c **** *  No
  37:.\Generated_Source\PSoC5/SD_FS_PM.c **** *
  38:.\Generated_Source\PSoC5/SD_FS_PM.c **** *******************************************************************************/
  39:.\Generated_Source\PSoC5/SD_FS_PM.c **** void SD_FS_SaveConfig(void) 
  40:.\Generated_Source\PSoC5/SD_FS_PM.c **** {
  27              		.loc 1 40 0
  28              		.cfi_startproc
  29              		@ args = 0, pretend = 0, frame = 0
  30              		@ frame_needed = 0, uses_anonymous_args = 0
  31 0000 08B5     		push	{r3, lr}
  32              		.cfi_def_cfa_offset 8
  33              		.cfi_offset 3, -8
  34              		.cfi_offset 14, -4
  41:.\Generated_Source\PSoC5/SD_FS_PM.c ****     #if(SD_FS_NUMBER_SD_CARDS == 4u)
  42:.\Generated_Source\PSoC5/SD_FS_PM.c ****         SD_FS_SPI0_SaveConfig();
  43:.\Generated_Source\PSoC5/SD_FS_PM.c ****         SD_FS_SPI1_SaveConfig();
  44:.\Generated_Source\PSoC5/SD_FS_PM.c ****         SD_FS_SPI2_SaveConfig();
  45:.\Generated_Source\PSoC5/SD_FS_PM.c ****         SD_FS_SPI3_SaveConfig();
  46:.\Generated_Source\PSoC5/SD_FS_PM.c ****     #elif(SD_FS_NUMBER_SD_CARDS == 3u)
  47:.\Generated_Source\PSoC5/SD_FS_PM.c ****         SD_FS_SPI0_SaveConfig();
  48:.\Generated_Source\PSoC5/SD_FS_PM.c ****         SD_FS_SPI1_SaveConfig();
  49:.\Generated_Source\PSoC5/SD_FS_PM.c ****         SD_FS_SPI2_SaveConfig();
  50:.\Generated_Source\PSoC5/SD_FS_PM.c ****     #elif(SD_FS_NUMBER_SD_CARDS == 2u)
  51:.\Generated_Source\PSoC5/SD_FS_PM.c ****         SD_FS_SPI0_SaveConfig();
  52:.\Generated_Source\PSoC5/SD_FS_PM.c ****         SD_FS_SPI1_SaveConfig();
  53:.\Generated_Source\PSoC5/SD_FS_PM.c ****     #else
  54:.\Generated_Source\PSoC5/SD_FS_PM.c ****         SD_FS_SPI0_SaveConfig();
  35              		.loc 1 54 0
  36 0002 FFF7FEFF 		bl	SD_FS_SPI0_SaveConfig
  37              	.LVL0:
  38 0006 08BD     		pop	{r3, pc}
  39              		.cfi_endproc
  40              	.LFE63:
  41              		.size	SD_FS_SaveConfig, .-SD_FS_SaveConfig
  42              		.section	.text.SD_FS_RestoreConfig,"ax",%progbits
  43              		.align	2
  44              		.global	SD_FS_RestoreConfig
  45              		.thumb
  46              		.thumb_func
  47              		.type	SD_FS_RestoreConfig, %function
  48              	SD_FS_RestoreConfig:
  49              	.LFB64:
  55:.\Generated_Source\PSoC5/SD_FS_PM.c ****     #endif /* (SD_FS_NUMBER_SD_CARDS == 4u) */
  56:.\Generated_Source\PSoC5/SD_FS_PM.c **** }
  57:.\Generated_Source\PSoC5/SD_FS_PM.c **** 
  58:.\Generated_Source\PSoC5/SD_FS_PM.c **** 
  59:.\Generated_Source\PSoC5/SD_FS_PM.c **** /*******************************************************************************
  60:.\Generated_Source\PSoC5/SD_FS_PM.c **** * Function Name: SD_FS_RestoreConfig
  61:.\Generated_Source\PSoC5/SD_FS_PM.c **** ********************************************************************************
  62:.\Generated_Source\PSoC5/SD_FS_PM.c **** *
  63:.\Generated_Source\PSoC5/SD_FS_PM.c **** * Summary:
  64:.\Generated_Source\PSoC5/SD_FS_PM.c **** *  Restores SPI Masters configuration.
  65:.\Generated_Source\PSoC5/SD_FS_PM.c **** *
ARM GAS  C:\Users\User\AppData\Local\Temp\ccZz7ivb.s 			page 3


  66:.\Generated_Source\PSoC5/SD_FS_PM.c **** * Parameters:
  67:.\Generated_Source\PSoC5/SD_FS_PM.c **** *  None
  68:.\Generated_Source\PSoC5/SD_FS_PM.c **** *
  69:.\Generated_Source\PSoC5/SD_FS_PM.c **** * Return:
  70:.\Generated_Source\PSoC5/SD_FS_PM.c **** *  None
  71:.\Generated_Source\PSoC5/SD_FS_PM.c **** *
  72:.\Generated_Source\PSoC5/SD_FS_PM.c **** * Side Effects:
  73:.\Generated_Source\PSoC5/SD_FS_PM.c **** *  If this API is called without first calling SaveConfig then in the following
  74:.\Generated_Source\PSoC5/SD_FS_PM.c **** *  registers will be default values from Customizer:
  75:.\Generated_Source\PSoC5/SD_FS_PM.c **** *
  76:.\Generated_Source\PSoC5/SD_FS_PM.c **** *******************************************************************************/
  77:.\Generated_Source\PSoC5/SD_FS_PM.c **** void SD_FS_RestoreConfig(void) 
  78:.\Generated_Source\PSoC5/SD_FS_PM.c **** {
  50              		.loc 1 78 0
  51              		.cfi_startproc
  52              		@ args = 0, pretend = 0, frame = 0
  53              		@ frame_needed = 0, uses_anonymous_args = 0
  54 0000 08B5     		push	{r3, lr}
  55              		.cfi_def_cfa_offset 8
  56              		.cfi_offset 3, -8
  57              		.cfi_offset 14, -4
  79:.\Generated_Source\PSoC5/SD_FS_PM.c ****     #if(SD_FS_NUMBER_SD_CARDS == 4u)
  80:.\Generated_Source\PSoC5/SD_FS_PM.c ****         SD_FS_SPI0_RestoreConfig();
  81:.\Generated_Source\PSoC5/SD_FS_PM.c ****         SD_FS_SPI1_RestoreConfig();
  82:.\Generated_Source\PSoC5/SD_FS_PM.c ****         SD_FS_SPI2_RestoreConfig();
  83:.\Generated_Source\PSoC5/SD_FS_PM.c ****         SD_FS_SPI3_RestoreConfig();
  84:.\Generated_Source\PSoC5/SD_FS_PM.c ****     #elif(SD_FS_NUMBER_SD_CARDS == 3u)
  85:.\Generated_Source\PSoC5/SD_FS_PM.c ****         SD_FS_SPI0_SaveConfig();
  86:.\Generated_Source\PSoC5/SD_FS_PM.c ****         SD_FS_SPI1_SaveConfig();
  87:.\Generated_Source\PSoC5/SD_FS_PM.c ****         SD_FS_SPI2_SaveConfig();
  88:.\Generated_Source\PSoC5/SD_FS_PM.c ****     #elif(SD_FS_NUMBER_SD_CARDS == 2u)
  89:.\Generated_Source\PSoC5/SD_FS_PM.c ****         SD_FS_SPI0_SaveConfig();
  90:.\Generated_Source\PSoC5/SD_FS_PM.c ****         SD_FS_SPI1_SaveConfig();
  91:.\Generated_Source\PSoC5/SD_FS_PM.c ****     #else
  92:.\Generated_Source\PSoC5/SD_FS_PM.c ****         SD_FS_SPI0_SaveConfig();
  58              		.loc 1 92 0
  59 0002 FFF7FEFF 		bl	SD_FS_SPI0_SaveConfig
  60              	.LVL1:
  61 0006 08BD     		pop	{r3, pc}
  62              		.cfi_endproc
  63              	.LFE64:
  64              		.size	SD_FS_RestoreConfig, .-SD_FS_RestoreConfig
  65              		.section	.text.SD_FS_Sleep,"ax",%progbits
  66              		.align	2
  67              		.global	SD_FS_Sleep
  68              		.thumb
  69              		.thumb_func
  70              		.type	SD_FS_Sleep, %function
  71              	SD_FS_Sleep:
  72              	.LFB65:
  93:.\Generated_Source\PSoC5/SD_FS_PM.c ****     #endif /* (SD_FS_NUMBER_SD_CARDS == 4u) */
  94:.\Generated_Source\PSoC5/SD_FS_PM.c **** }
  95:.\Generated_Source\PSoC5/SD_FS_PM.c **** 
  96:.\Generated_Source\PSoC5/SD_FS_PM.c **** 
  97:.\Generated_Source\PSoC5/SD_FS_PM.c **** /*******************************************************************************
  98:.\Generated_Source\PSoC5/SD_FS_PM.c **** * Function Name: SD_FS_Sleep
  99:.\Generated_Source\PSoC5/SD_FS_PM.c **** ********************************************************************************
ARM GAS  C:\Users\User\AppData\Local\Temp\ccZz7ivb.s 			page 4


 100:.\Generated_Source\PSoC5/SD_FS_PM.c **** *
 101:.\Generated_Source\PSoC5/SD_FS_PM.c **** * Summary:
 102:.\Generated_Source\PSoC5/SD_FS_PM.c **** *  Prepare emFile to go to sleep.
 103:.\Generated_Source\PSoC5/SD_FS_PM.c **** *
 104:.\Generated_Source\PSoC5/SD_FS_PM.c **** * Parameters:
 105:.\Generated_Source\PSoC5/SD_FS_PM.c **** *  None
 106:.\Generated_Source\PSoC5/SD_FS_PM.c **** *
 107:.\Generated_Source\PSoC5/SD_FS_PM.c **** * Return:
 108:.\Generated_Source\PSoC5/SD_FS_PM.c **** *  None
 109:.\Generated_Source\PSoC5/SD_FS_PM.c **** *
 110:.\Generated_Source\PSoC5/SD_FS_PM.c **** * Reentrant:
 111:.\Generated_Source\PSoC5/SD_FS_PM.c **** *  No
 112:.\Generated_Source\PSoC5/SD_FS_PM.c **** *
 113:.\Generated_Source\PSoC5/SD_FS_PM.c **** *******************************************************************************/
 114:.\Generated_Source\PSoC5/SD_FS_PM.c **** void SD_FS_Sleep(void) 
 115:.\Generated_Source\PSoC5/SD_FS_PM.c **** {
  73              		.loc 1 115 0
  74              		.cfi_startproc
  75              		@ args = 0, pretend = 0, frame = 0
  76              		@ frame_needed = 0, uses_anonymous_args = 0
  77 0000 08B5     		push	{r3, lr}
  78              		.cfi_def_cfa_offset 8
  79              		.cfi_offset 3, -8
  80              		.cfi_offset 14, -4
 116:.\Generated_Source\PSoC5/SD_FS_PM.c ****     #if(SD_FS_NUMBER_SD_CARDS == 4u)
 117:.\Generated_Source\PSoC5/SD_FS_PM.c ****         SD_FS_SPI0_Sleep();
 118:.\Generated_Source\PSoC5/SD_FS_PM.c ****         SD_FS_SPI1_Sleep();
 119:.\Generated_Source\PSoC5/SD_FS_PM.c ****         SD_FS_SPI2_Sleep();
 120:.\Generated_Source\PSoC5/SD_FS_PM.c ****         SD_FS_SPI3_Sleep();
 121:.\Generated_Source\PSoC5/SD_FS_PM.c ****     #elif(SD_FS_NUMBER_SD_CARDS == 3u)
 122:.\Generated_Source\PSoC5/SD_FS_PM.c ****         SD_FS_SPI0_Sleep();
 123:.\Generated_Source\PSoC5/SD_FS_PM.c ****         SD_FS_SPI1_Sleep();
 124:.\Generated_Source\PSoC5/SD_FS_PM.c ****         SD_FS_SPI2_Sleep();
 125:.\Generated_Source\PSoC5/SD_FS_PM.c ****     #elif(SD_FS_NUMBER_SD_CARDS == 2u)
 126:.\Generated_Source\PSoC5/SD_FS_PM.c ****         SD_FS_SPI0_Sleep();
 127:.\Generated_Source\PSoC5/SD_FS_PM.c ****         SD_FS_SPI1_Sleep();
 128:.\Generated_Source\PSoC5/SD_FS_PM.c ****     #else
 129:.\Generated_Source\PSoC5/SD_FS_PM.c ****         SD_FS_SPI0_Sleep();
  81              		.loc 1 129 0
  82 0002 FFF7FEFF 		bl	SD_FS_SPI0_Sleep
  83              	.LVL2:
  84 0006 08BD     		pop	{r3, pc}
  85              		.cfi_endproc
  86              	.LFE65:
  87              		.size	SD_FS_Sleep, .-SD_FS_Sleep
  88              		.section	.text.SD_FS_Wakeup,"ax",%progbits
  89              		.align	2
  90              		.global	SD_FS_Wakeup
  91              		.thumb
  92              		.thumb_func
  93              		.type	SD_FS_Wakeup, %function
  94              	SD_FS_Wakeup:
  95              	.LFB66:
 130:.\Generated_Source\PSoC5/SD_FS_PM.c ****     #endif /* (SD_FS_NUMBER_SD_CARDS == 4u) */
 131:.\Generated_Source\PSoC5/SD_FS_PM.c **** }
 132:.\Generated_Source\PSoC5/SD_FS_PM.c **** 
 133:.\Generated_Source\PSoC5/SD_FS_PM.c **** 
ARM GAS  C:\Users\User\AppData\Local\Temp\ccZz7ivb.s 			page 5


 134:.\Generated_Source\PSoC5/SD_FS_PM.c **** /*******************************************************************************
 135:.\Generated_Source\PSoC5/SD_FS_PM.c **** * Function Name: SD_FS_Wakeup
 136:.\Generated_Source\PSoC5/SD_FS_PM.c **** ********************************************************************************
 137:.\Generated_Source\PSoC5/SD_FS_PM.c **** *
 138:.\Generated_Source\PSoC5/SD_FS_PM.c **** * Summary:
 139:.\Generated_Source\PSoC5/SD_FS_PM.c **** *  Prepare SPIM Components to wake up.
 140:.\Generated_Source\PSoC5/SD_FS_PM.c **** *
 141:.\Generated_Source\PSoC5/SD_FS_PM.c **** * Parameters:
 142:.\Generated_Source\PSoC5/SD_FS_PM.c **** *  None
 143:.\Generated_Source\PSoC5/SD_FS_PM.c **** *
 144:.\Generated_Source\PSoC5/SD_FS_PM.c **** * Return:
 145:.\Generated_Source\PSoC5/SD_FS_PM.c **** *  None
 146:.\Generated_Source\PSoC5/SD_FS_PM.c **** *
 147:.\Generated_Source\PSoC5/SD_FS_PM.c **** * Reentrant:
 148:.\Generated_Source\PSoC5/SD_FS_PM.c **** *  No
 149:.\Generated_Source\PSoC5/SD_FS_PM.c **** *
 150:.\Generated_Source\PSoC5/SD_FS_PM.c **** *******************************************************************************/
 151:.\Generated_Source\PSoC5/SD_FS_PM.c **** void SD_FS_Wakeup(void) 
 152:.\Generated_Source\PSoC5/SD_FS_PM.c **** {
  96              		.loc 1 152 0
  97              		.cfi_startproc
  98              		@ args = 0, pretend = 0, frame = 0
  99              		@ frame_needed = 0, uses_anonymous_args = 0
 100 0000 08B5     		push	{r3, lr}
 101              		.cfi_def_cfa_offset 8
 102              		.cfi_offset 3, -8
 103              		.cfi_offset 14, -4
 153:.\Generated_Source\PSoC5/SD_FS_PM.c ****     #if(SD_FS_NUMBER_SD_CARDS == 4u)
 154:.\Generated_Source\PSoC5/SD_FS_PM.c ****         SD_FS_SPI0_Wakeup();
 155:.\Generated_Source\PSoC5/SD_FS_PM.c ****         SD_FS_SPI1_Wakeup();
 156:.\Generated_Source\PSoC5/SD_FS_PM.c ****         SD_FS_SPI2_Wakeup();
 157:.\Generated_Source\PSoC5/SD_FS_PM.c ****         SD_FS_SPI3_Wakeup();
 158:.\Generated_Source\PSoC5/SD_FS_PM.c ****     #elif(SD_FS_NUMBER_SD_CARDS == 3u)
 159:.\Generated_Source\PSoC5/SD_FS_PM.c ****         SD_FS_SPI0_Wakeup();
 160:.\Generated_Source\PSoC5/SD_FS_PM.c ****         SD_FS_SPI1_Wakeup();
 161:.\Generated_Source\PSoC5/SD_FS_PM.c ****         SD_FS_SPI2_Wakeup();
 162:.\Generated_Source\PSoC5/SD_FS_PM.c ****     #elif(SD_FS_NUMBER_SD_CARDS == 2u)
 163:.\Generated_Source\PSoC5/SD_FS_PM.c ****         SD_FS_SPI0_Wakeup();
 164:.\Generated_Source\PSoC5/SD_FS_PM.c ****         SD_FS_SPI1_Wakeup();
 165:.\Generated_Source\PSoC5/SD_FS_PM.c ****     #else
 166:.\Generated_Source\PSoC5/SD_FS_PM.c ****         SD_FS_SPI0_Wakeup();
 104              		.loc 1 166 0
 105 0002 FFF7FEFF 		bl	SD_FS_SPI0_Wakeup
 106              	.LVL3:
 107 0006 08BD     		pop	{r3, pc}
 108              		.cfi_endproc
 109              	.LFE66:
 110              		.size	SD_FS_Wakeup, .-SD_FS_Wakeup
 111              		.text
 112              	.Letext0:
 113              		.file 2 "c:\\program files (x86)\\cypress\\psoc creator\\3.3\\psoc creator\\import\\gnu\\arm\\4.9.
 114              		.file 3 "c:\\program files (x86)\\cypress\\psoc creator\\3.3\\psoc creator\\import\\gnu\\arm\\4.9.
 115              		.file 4 "Generated_Source\\PSoC5/SD_FS_SPI0.h"
 116              		.file 5 "Generated_Source\\PSoC5/core_cm3.h"