ARM GAS  C:\Users\User\AppData\Local\Temp\ccohLGUd.s 			page 1


   1              		.syntax unified
   2              		.cpu cortex-m3
   3              		.fpu softvfp
   4              		.eabi_attribute 20, 1
   5              		.eabi_attribute 21, 1
   6              		.eabi_attribute 23, 3
   7              		.eabi_attribute 24, 1
   8              		.eabi_attribute 25, 1
   9              		.eabi_attribute 26, 1
  10              		.eabi_attribute 30, 1
  11              		.eabi_attribute 34, 1
  12              		.eabi_attribute 18, 4
  13              		.thumb
  14              		.file	"SD_FIlesystem_SPI0.c"
  15              		.text
  16              	.Ltext0:
  17              		.cfi_sections	.debug_frame
  18              		.section	.text.SD_FIlesystem_SPI0_Enable,"ax",%progbits
  19              		.align	2
  20              		.global	SD_FIlesystem_SPI0_Enable
  21              		.thumb
  22              		.thumb_func
  23              		.type	SD_FIlesystem_SPI0_Enable, %function
  24              	SD_FIlesystem_SPI0_Enable:
  25              	.LFB1:
  26              		.file 1 ".\\Generated_Source\\PSoC5\\SD_FIlesystem_SPI0.c"
   1:.\Generated_Source\PSoC5/SD_FIlesystem_SPI0.c **** /*******************************************************************************
   2:.\Generated_Source\PSoC5/SD_FIlesystem_SPI0.c **** * File Name: SD_FIlesystem_SPI0.c
   3:.\Generated_Source\PSoC5/SD_FIlesystem_SPI0.c **** * Version 2.40
   4:.\Generated_Source\PSoC5/SD_FIlesystem_SPI0.c **** *
   5:.\Generated_Source\PSoC5/SD_FIlesystem_SPI0.c **** * Description:
   6:.\Generated_Source\PSoC5/SD_FIlesystem_SPI0.c **** *  This file provides all API functionality of the SPI Master component.
   7:.\Generated_Source\PSoC5/SD_FIlesystem_SPI0.c **** *
   8:.\Generated_Source\PSoC5/SD_FIlesystem_SPI0.c **** * Note:
   9:.\Generated_Source\PSoC5/SD_FIlesystem_SPI0.c **** *  None.
  10:.\Generated_Source\PSoC5/SD_FIlesystem_SPI0.c **** *
  11:.\Generated_Source\PSoC5/SD_FIlesystem_SPI0.c **** ********************************************************************************
  12:.\Generated_Source\PSoC5/SD_FIlesystem_SPI0.c **** * Copyright 2008-2012, Cypress Semiconductor Corporation.  All rights reserved.
  13:.\Generated_Source\PSoC5/SD_FIlesystem_SPI0.c **** * You may use this file only in accordance with the license, terms, conditions,
  14:.\Generated_Source\PSoC5/SD_FIlesystem_SPI0.c **** * disclaimers, and limitations in the end user license agreement accompanying
  15:.\Generated_Source\PSoC5/SD_FIlesystem_SPI0.c **** * the software package with which this file was provided.
  16:.\Generated_Source\PSoC5/SD_FIlesystem_SPI0.c **** *******************************************************************************/
  17:.\Generated_Source\PSoC5/SD_FIlesystem_SPI0.c **** 
  18:.\Generated_Source\PSoC5/SD_FIlesystem_SPI0.c **** #include "SD_FIlesystem_SPI0_PVT.h"
  19:.\Generated_Source\PSoC5/SD_FIlesystem_SPI0.c **** 
  20:.\Generated_Source\PSoC5/SD_FIlesystem_SPI0.c **** #if(SD_FIlesystem_SPI0_TX_SOFTWARE_BUF_ENABLED)
  21:.\Generated_Source\PSoC5/SD_FIlesystem_SPI0.c ****     volatile uint8 SD_FIlesystem_SPI0_txBuffer[SD_FIlesystem_SPI0_TX_BUFFER_SIZE] = {0u};
  22:.\Generated_Source\PSoC5/SD_FIlesystem_SPI0.c ****     volatile uint8 SD_FIlesystem_SPI0_txBufferFull;
  23:.\Generated_Source\PSoC5/SD_FIlesystem_SPI0.c ****     volatile uint8 SD_FIlesystem_SPI0_txBufferRead;
  24:.\Generated_Source\PSoC5/SD_FIlesystem_SPI0.c ****     volatile uint8 SD_FIlesystem_SPI0_txBufferWrite;
  25:.\Generated_Source\PSoC5/SD_FIlesystem_SPI0.c **** #endif /* (SD_FIlesystem_SPI0_TX_SOFTWARE_BUF_ENABLED) */
  26:.\Generated_Source\PSoC5/SD_FIlesystem_SPI0.c **** 
  27:.\Generated_Source\PSoC5/SD_FIlesystem_SPI0.c **** #if(SD_FIlesystem_SPI0_RX_SOFTWARE_BUF_ENABLED)
  28:.\Generated_Source\PSoC5/SD_FIlesystem_SPI0.c ****     volatile uint8 SD_FIlesystem_SPI0_rxBuffer[SD_FIlesystem_SPI0_RX_BUFFER_SIZE] = {0u};
  29:.\Generated_Source\PSoC5/SD_FIlesystem_SPI0.c ****     volatile uint8 SD_FIlesystem_SPI0_rxBufferFull;
  30:.\Generated_Source\PSoC5/SD_FIlesystem_SPI0.c ****     volatile uint8 SD_FIlesystem_SPI0_rxBufferRead;
  31:.\Generated_Source\PSoC5/SD_FIlesystem_SPI0.c ****     volatile uint8 SD_FIlesystem_SPI0_rxBufferWrite;
ARM GAS  C:\Users\User\AppData\Local\Temp\ccohLGUd.s 			page 2


  32:.\Generated_Source\PSoC5/SD_FIlesystem_SPI0.c **** #endif /* (SD_FIlesystem_SPI0_RX_SOFTWARE_BUF_ENABLED) */
  33:.\Generated_Source\PSoC5/SD_FIlesystem_SPI0.c **** 
  34:.\Generated_Source\PSoC5/SD_FIlesystem_SPI0.c **** uint8 SD_FIlesystem_SPI0_initVar = 0u;
  35:.\Generated_Source\PSoC5/SD_FIlesystem_SPI0.c **** 
  36:.\Generated_Source\PSoC5/SD_FIlesystem_SPI0.c **** volatile uint8 SD_FIlesystem_SPI0_swStatusTx;
  37:.\Generated_Source\PSoC5/SD_FIlesystem_SPI0.c **** volatile uint8 SD_FIlesystem_SPI0_swStatusRx;
  38:.\Generated_Source\PSoC5/SD_FIlesystem_SPI0.c **** 
  39:.\Generated_Source\PSoC5/SD_FIlesystem_SPI0.c **** 
  40:.\Generated_Source\PSoC5/SD_FIlesystem_SPI0.c **** /*******************************************************************************
  41:.\Generated_Source\PSoC5/SD_FIlesystem_SPI0.c **** * Function Name: SD_FIlesystem_SPI0_Init
  42:.\Generated_Source\PSoC5/SD_FIlesystem_SPI0.c **** ********************************************************************************
  43:.\Generated_Source\PSoC5/SD_FIlesystem_SPI0.c **** *
  44:.\Generated_Source\PSoC5/SD_FIlesystem_SPI0.c **** * Summary:
  45:.\Generated_Source\PSoC5/SD_FIlesystem_SPI0.c **** *  Inits/Restores default SPIM configuration provided with customizer.
  46:.\Generated_Source\PSoC5/SD_FIlesystem_SPI0.c **** *
  47:.\Generated_Source\PSoC5/SD_FIlesystem_SPI0.c **** * Parameters:
  48:.\Generated_Source\PSoC5/SD_FIlesystem_SPI0.c **** *  None.
  49:.\Generated_Source\PSoC5/SD_FIlesystem_SPI0.c **** *
  50:.\Generated_Source\PSoC5/SD_FIlesystem_SPI0.c **** * Return:
  51:.\Generated_Source\PSoC5/SD_FIlesystem_SPI0.c **** *  None.
  52:.\Generated_Source\PSoC5/SD_FIlesystem_SPI0.c **** *
  53:.\Generated_Source\PSoC5/SD_FIlesystem_SPI0.c **** * Side Effects:
  54:.\Generated_Source\PSoC5/SD_FIlesystem_SPI0.c **** *  When this function is called it initializes all of the necessary parameters
  55:.\Generated_Source\PSoC5/SD_FIlesystem_SPI0.c **** *  for execution. i.e. setting the initial interrupt mask, configuring the
  56:.\Generated_Source\PSoC5/SD_FIlesystem_SPI0.c **** *  interrupt service routine, configuring the bit-counter parameters and
  57:.\Generated_Source\PSoC5/SD_FIlesystem_SPI0.c **** *  clearing the FIFO and Status Register.
  58:.\Generated_Source\PSoC5/SD_FIlesystem_SPI0.c **** *
  59:.\Generated_Source\PSoC5/SD_FIlesystem_SPI0.c **** * Reentrant:
  60:.\Generated_Source\PSoC5/SD_FIlesystem_SPI0.c **** *  No.
  61:.\Generated_Source\PSoC5/SD_FIlesystem_SPI0.c **** *
  62:.\Generated_Source\PSoC5/SD_FIlesystem_SPI0.c **** *******************************************************************************/
  63:.\Generated_Source\PSoC5/SD_FIlesystem_SPI0.c **** void SD_FIlesystem_SPI0_Init(void) 
  64:.\Generated_Source\PSoC5/SD_FIlesystem_SPI0.c **** {
  65:.\Generated_Source\PSoC5/SD_FIlesystem_SPI0.c ****     /* Initialize the Bit counter */
  66:.\Generated_Source\PSoC5/SD_FIlesystem_SPI0.c ****     SD_FIlesystem_SPI0_COUNTER_PERIOD_REG = SD_FIlesystem_SPI0_BITCTR_INIT;
  67:.\Generated_Source\PSoC5/SD_FIlesystem_SPI0.c **** 
  68:.\Generated_Source\PSoC5/SD_FIlesystem_SPI0.c ****     /* Init TX ISR  */
  69:.\Generated_Source\PSoC5/SD_FIlesystem_SPI0.c ****     #if(0u != SD_FIlesystem_SPI0_INTERNAL_TX_INT_ENABLED)
  70:.\Generated_Source\PSoC5/SD_FIlesystem_SPI0.c ****         CyIntDisable         (SD_FIlesystem_SPI0_TX_ISR_NUMBER);
  71:.\Generated_Source\PSoC5/SD_FIlesystem_SPI0.c ****         CyIntSetPriority     (SD_FIlesystem_SPI0_TX_ISR_NUMBER,  SD_FIlesystem_SPI0_TX_ISR_PRIORITY
  72:.\Generated_Source\PSoC5/SD_FIlesystem_SPI0.c ****         (void) CyIntSetVector(SD_FIlesystem_SPI0_TX_ISR_NUMBER, &SD_FIlesystem_SPI0_TX_ISR);
  73:.\Generated_Source\PSoC5/SD_FIlesystem_SPI0.c ****     #endif /* (0u != SD_FIlesystem_SPI0_INTERNAL_TX_INT_ENABLED) */
  74:.\Generated_Source\PSoC5/SD_FIlesystem_SPI0.c **** 
  75:.\Generated_Source\PSoC5/SD_FIlesystem_SPI0.c ****     /* Init RX ISR  */
  76:.\Generated_Source\PSoC5/SD_FIlesystem_SPI0.c ****     #if(0u != SD_FIlesystem_SPI0_INTERNAL_RX_INT_ENABLED)
  77:.\Generated_Source\PSoC5/SD_FIlesystem_SPI0.c ****         CyIntDisable         (SD_FIlesystem_SPI0_RX_ISR_NUMBER);
  78:.\Generated_Source\PSoC5/SD_FIlesystem_SPI0.c ****         CyIntSetPriority     (SD_FIlesystem_SPI0_RX_ISR_NUMBER,  SD_FIlesystem_SPI0_RX_ISR_PRIORITY
  79:.\Generated_Source\PSoC5/SD_FIlesystem_SPI0.c ****         (void) CyIntSetVector(SD_FIlesystem_SPI0_RX_ISR_NUMBER, &SD_FIlesystem_SPI0_RX_ISR);
  80:.\Generated_Source\PSoC5/SD_FIlesystem_SPI0.c ****     #endif /* (0u != SD_FIlesystem_SPI0_INTERNAL_RX_INT_ENABLED) */
  81:.\Generated_Source\PSoC5/SD_FIlesystem_SPI0.c **** 
  82:.\Generated_Source\PSoC5/SD_FIlesystem_SPI0.c ****     /* Clear any stray data from the RX and TX FIFO */
  83:.\Generated_Source\PSoC5/SD_FIlesystem_SPI0.c ****     SD_FIlesystem_SPI0_ClearFIFO();
  84:.\Generated_Source\PSoC5/SD_FIlesystem_SPI0.c **** 
  85:.\Generated_Source\PSoC5/SD_FIlesystem_SPI0.c ****     #if(SD_FIlesystem_SPI0_RX_SOFTWARE_BUF_ENABLED)
  86:.\Generated_Source\PSoC5/SD_FIlesystem_SPI0.c ****         SD_FIlesystem_SPI0_rxBufferFull  = 0u;
  87:.\Generated_Source\PSoC5/SD_FIlesystem_SPI0.c ****         SD_FIlesystem_SPI0_rxBufferRead  = 0u;
  88:.\Generated_Source\PSoC5/SD_FIlesystem_SPI0.c ****         SD_FIlesystem_SPI0_rxBufferWrite = 0u;
ARM GAS  C:\Users\User\AppData\Local\Temp\ccohLGUd.s 			page 3


  89:.\Generated_Source\PSoC5/SD_FIlesystem_SPI0.c ****     #endif /* (SD_FIlesystem_SPI0_RX_SOFTWARE_BUF_ENABLED) */
  90:.\Generated_Source\PSoC5/SD_FIlesystem_SPI0.c **** 
  91:.\Generated_Source\PSoC5/SD_FIlesystem_SPI0.c ****     #if(SD_FIlesystem_SPI0_TX_SOFTWARE_BUF_ENABLED)
  92:.\Generated_Source\PSoC5/SD_FIlesystem_SPI0.c ****         SD_FIlesystem_SPI0_txBufferFull  = 0u;
  93:.\Generated_Source\PSoC5/SD_FIlesystem_SPI0.c ****         SD_FIlesystem_SPI0_txBufferRead  = 0u;
  94:.\Generated_Source\PSoC5/SD_FIlesystem_SPI0.c ****         SD_FIlesystem_SPI0_txBufferWrite = 0u;
  95:.\Generated_Source\PSoC5/SD_FIlesystem_SPI0.c ****     #endif /* (SD_FIlesystem_SPI0_TX_SOFTWARE_BUF_ENABLED) */
  96:.\Generated_Source\PSoC5/SD_FIlesystem_SPI0.c **** 
  97:.\Generated_Source\PSoC5/SD_FIlesystem_SPI0.c ****     (void) SD_FIlesystem_SPI0_ReadTxStatus(); /* Clear Tx status and swStatusTx */
  98:.\Generated_Source\PSoC5/SD_FIlesystem_SPI0.c ****     (void) SD_FIlesystem_SPI0_ReadRxStatus(); /* Clear Rx status and swStatusRx */
  99:.\Generated_Source\PSoC5/SD_FIlesystem_SPI0.c **** 
 100:.\Generated_Source\PSoC5/SD_FIlesystem_SPI0.c ****     /* Configure TX and RX interrupt mask */
 101:.\Generated_Source\PSoC5/SD_FIlesystem_SPI0.c ****     SD_FIlesystem_SPI0_TX_STATUS_MASK_REG = SD_FIlesystem_SPI0_TX_INIT_INTERRUPTS_MASK;
 102:.\Generated_Source\PSoC5/SD_FIlesystem_SPI0.c ****     SD_FIlesystem_SPI0_RX_STATUS_MASK_REG = SD_FIlesystem_SPI0_RX_INIT_INTERRUPTS_MASK;
 103:.\Generated_Source\PSoC5/SD_FIlesystem_SPI0.c **** }
 104:.\Generated_Source\PSoC5/SD_FIlesystem_SPI0.c **** 
 105:.\Generated_Source\PSoC5/SD_FIlesystem_SPI0.c **** 
 106:.\Generated_Source\PSoC5/SD_FIlesystem_SPI0.c **** /*******************************************************************************
 107:.\Generated_Source\PSoC5/SD_FIlesystem_SPI0.c **** * Function Name: SD_FIlesystem_SPI0_Enable
 108:.\Generated_Source\PSoC5/SD_FIlesystem_SPI0.c **** ********************************************************************************
 109:.\Generated_Source\PSoC5/SD_FIlesystem_SPI0.c **** *
 110:.\Generated_Source\PSoC5/SD_FIlesystem_SPI0.c **** * Summary:
 111:.\Generated_Source\PSoC5/SD_FIlesystem_SPI0.c **** *  Enable SPIM component.
 112:.\Generated_Source\PSoC5/SD_FIlesystem_SPI0.c **** *
 113:.\Generated_Source\PSoC5/SD_FIlesystem_SPI0.c **** * Parameters:
 114:.\Generated_Source\PSoC5/SD_FIlesystem_SPI0.c **** *  None.
 115:.\Generated_Source\PSoC5/SD_FIlesystem_SPI0.c **** *
 116:.\Generated_Source\PSoC5/SD_FIlesystem_SPI0.c **** * Return:
 117:.\Generated_Source\PSoC5/SD_FIlesystem_SPI0.c **** *  None.
 118:.\Generated_Source\PSoC5/SD_FIlesystem_SPI0.c **** *
 119:.\Generated_Source\PSoC5/SD_FIlesystem_SPI0.c **** *******************************************************************************/
 120:.\Generated_Source\PSoC5/SD_FIlesystem_SPI0.c **** void SD_FIlesystem_SPI0_Enable(void) 
 121:.\Generated_Source\PSoC5/SD_FIlesystem_SPI0.c **** {
  27              		.loc 1 121 0
  28              		.cfi_startproc
  29              		@ args = 0, pretend = 0, frame = 0
  30              		@ frame_needed = 0, uses_anonymous_args = 0
  31 0000 08B5     		push	{r3, lr}
  32              		.cfi_def_cfa_offset 8
  33              		.cfi_offset 3, -8
  34              		.cfi_offset 14, -4
 122:.\Generated_Source\PSoC5/SD_FIlesystem_SPI0.c ****     uint8 enableInterrupts;
 123:.\Generated_Source\PSoC5/SD_FIlesystem_SPI0.c **** 
 124:.\Generated_Source\PSoC5/SD_FIlesystem_SPI0.c ****     enableInterrupts = CyEnterCriticalSection();
  35              		.loc 1 124 0
  36 0002 FFF7FEFF 		bl	CyEnterCriticalSection
  37              	.LVL0:
 125:.\Generated_Source\PSoC5/SD_FIlesystem_SPI0.c ****     SD_FIlesystem_SPI0_COUNTER_CONTROL_REG |= SD_FIlesystem_SPI0_CNTR_ENABLE;
  38              		.loc 1 125 0
  39 0006 094A     		ldr	r2, .L3
  40 0008 1378     		ldrb	r3, [r2]	@ zero_extendqisi2
  41 000a 43F02003 		orr	r3, r3, #32
  42 000e 1370     		strb	r3, [r2]
 126:.\Generated_Source\PSoC5/SD_FIlesystem_SPI0.c ****     SD_FIlesystem_SPI0_TX_STATUS_ACTL_REG  |= SD_FIlesystem_SPI0_INT_ENABLE;
  43              		.loc 1 126 0
  44 0010 02F20312 		addw	r2, r2, #259
  45 0014 1378     		ldrb	r3, [r2]	@ zero_extendqisi2
ARM GAS  C:\Users\User\AppData\Local\Temp\ccohLGUd.s 			page 4


  46 0016 43F01003 		orr	r3, r3, #16
  47 001a 1370     		strb	r3, [r2]
 127:.\Generated_Source\PSoC5/SD_FIlesystem_SPI0.c ****     SD_FIlesystem_SPI0_RX_STATUS_ACTL_REG  |= SD_FIlesystem_SPI0_INT_ENABLE;
  48              		.loc 1 127 0
  49 001c 013A     		subs	r2, r2, #1
  50 001e 1378     		ldrb	r3, [r2]	@ zero_extendqisi2
  51 0020 43F01003 		orr	r3, r3, #16
  52 0024 1370     		strb	r3, [r2]
 128:.\Generated_Source\PSoC5/SD_FIlesystem_SPI0.c ****     CyExitCriticalSection(enableInterrupts);
  53              		.loc 1 128 0
  54 0026 FFF7FEFF 		bl	CyExitCriticalSection
  55              	.LVL1:
  56 002a 08BD     		pop	{r3, pc}
  57              	.L4:
  58              		.align	2
  59              	.L3:
  60 002c 94640040 		.word	1073767572
  61              		.cfi_endproc
  62              	.LFE1:
  63              		.size	SD_FIlesystem_SPI0_Enable, .-SD_FIlesystem_SPI0_Enable
  64              		.section	.text.SD_FIlesystem_SPI0_Stop,"ax",%progbits
  65              		.align	2
  66              		.global	SD_FIlesystem_SPI0_Stop
  67              		.thumb
  68              		.thumb_func
  69              		.type	SD_FIlesystem_SPI0_Stop, %function
  70              	SD_FIlesystem_SPI0_Stop:
  71              	.LFB3:
 129:.\Generated_Source\PSoC5/SD_FIlesystem_SPI0.c **** 
 130:.\Generated_Source\PSoC5/SD_FIlesystem_SPI0.c ****     #if(0u != SD_FIlesystem_SPI0_INTERNAL_CLOCK)
 131:.\Generated_Source\PSoC5/SD_FIlesystem_SPI0.c ****         SD_FIlesystem_SPI0_IntClock_Enable();
 132:.\Generated_Source\PSoC5/SD_FIlesystem_SPI0.c ****     #endif /* (0u != SD_FIlesystem_SPI0_INTERNAL_CLOCK) */
 133:.\Generated_Source\PSoC5/SD_FIlesystem_SPI0.c **** 
 134:.\Generated_Source\PSoC5/SD_FIlesystem_SPI0.c ****     SD_FIlesystem_SPI0_EnableTxInt();
 135:.\Generated_Source\PSoC5/SD_FIlesystem_SPI0.c ****     SD_FIlesystem_SPI0_EnableRxInt();
 136:.\Generated_Source\PSoC5/SD_FIlesystem_SPI0.c **** }
 137:.\Generated_Source\PSoC5/SD_FIlesystem_SPI0.c **** 
 138:.\Generated_Source\PSoC5/SD_FIlesystem_SPI0.c **** 
 139:.\Generated_Source\PSoC5/SD_FIlesystem_SPI0.c **** /*******************************************************************************
 140:.\Generated_Source\PSoC5/SD_FIlesystem_SPI0.c **** * Function Name: SD_FIlesystem_SPI0_Start
 141:.\Generated_Source\PSoC5/SD_FIlesystem_SPI0.c **** ********************************************************************************
 142:.\Generated_Source\PSoC5/SD_FIlesystem_SPI0.c **** *
 143:.\Generated_Source\PSoC5/SD_FIlesystem_SPI0.c **** * Summary:
 144:.\Generated_Source\PSoC5/SD_FIlesystem_SPI0.c **** *  Initialize and Enable the SPI Master component.
 145:.\Generated_Source\PSoC5/SD_FIlesystem_SPI0.c **** *
 146:.\Generated_Source\PSoC5/SD_FIlesystem_SPI0.c **** * Parameters:
 147:.\Generated_Source\PSoC5/SD_FIlesystem_SPI0.c **** *  None.
 148:.\Generated_Source\PSoC5/SD_FIlesystem_SPI0.c **** *
 149:.\Generated_Source\PSoC5/SD_FIlesystem_SPI0.c **** * Return:
 150:.\Generated_Source\PSoC5/SD_FIlesystem_SPI0.c **** *  None.
 151:.\Generated_Source\PSoC5/SD_FIlesystem_SPI0.c **** *
 152:.\Generated_Source\PSoC5/SD_FIlesystem_SPI0.c **** * Global variables:
 153:.\Generated_Source\PSoC5/SD_FIlesystem_SPI0.c **** *  SD_FIlesystem_SPI0_initVar - used to check initial configuration, modified on
 154:.\Generated_Source\PSoC5/SD_FIlesystem_SPI0.c **** *  first function call.
 155:.\Generated_Source\PSoC5/SD_FIlesystem_SPI0.c **** *
 156:.\Generated_Source\PSoC5/SD_FIlesystem_SPI0.c **** * Theory:
 157:.\Generated_Source\PSoC5/SD_FIlesystem_SPI0.c **** *  Enable the clock input to enable operation.
ARM GAS  C:\Users\User\AppData\Local\Temp\ccohLGUd.s 			page 5


 158:.\Generated_Source\PSoC5/SD_FIlesystem_SPI0.c **** *
 159:.\Generated_Source\PSoC5/SD_FIlesystem_SPI0.c **** * Reentrant:
 160:.\Generated_Source\PSoC5/SD_FIlesystem_SPI0.c **** *  No.
 161:.\Generated_Source\PSoC5/SD_FIlesystem_SPI0.c **** *
 162:.\Generated_Source\PSoC5/SD_FIlesystem_SPI0.c **** *******************************************************************************/
 163:.\Generated_Source\PSoC5/SD_FIlesystem_SPI0.c **** void SD_FIlesystem_SPI0_Start(void) 
 164:.\Generated_Source\PSoC5/SD_FIlesystem_SPI0.c **** {
 165:.\Generated_Source\PSoC5/SD_FIlesystem_SPI0.c ****     if(0u == SD_FIlesystem_SPI0_initVar)
 166:.\Generated_Source\PSoC5/SD_FIlesystem_SPI0.c ****     {
 167:.\Generated_Source\PSoC5/SD_FIlesystem_SPI0.c ****         SD_FIlesystem_SPI0_Init();
 168:.\Generated_Source\PSoC5/SD_FIlesystem_SPI0.c ****         SD_FIlesystem_SPI0_initVar = 1u;
 169:.\Generated_Source\PSoC5/SD_FIlesystem_SPI0.c ****     }
 170:.\Generated_Source\PSoC5/SD_FIlesystem_SPI0.c **** 
 171:.\Generated_Source\PSoC5/SD_FIlesystem_SPI0.c ****     SD_FIlesystem_SPI0_Enable();
 172:.\Generated_Source\PSoC5/SD_FIlesystem_SPI0.c **** }
 173:.\Generated_Source\PSoC5/SD_FIlesystem_SPI0.c **** 
 174:.\Generated_Source\PSoC5/SD_FIlesystem_SPI0.c **** 
 175:.\Generated_Source\PSoC5/SD_FIlesystem_SPI0.c **** /*******************************************************************************
 176:.\Generated_Source\PSoC5/SD_FIlesystem_SPI0.c **** * Function Name: SD_FIlesystem_SPI0_Stop
 177:.\Generated_Source\PSoC5/SD_FIlesystem_SPI0.c **** ********************************************************************************
 178:.\Generated_Source\PSoC5/SD_FIlesystem_SPI0.c **** *
 179:.\Generated_Source\PSoC5/SD_FIlesystem_SPI0.c **** * Summary:
 180:.\Generated_Source\PSoC5/SD_FIlesystem_SPI0.c **** *  Disable the SPI Master component.
 181:.\Generated_Source\PSoC5/SD_FIlesystem_SPI0.c **** *
 182:.\Generated_Source\PSoC5/SD_FIlesystem_SPI0.c **** * Parameters:
 183:.\Generated_Source\PSoC5/SD_FIlesystem_SPI0.c **** *  None.
 184:.\Generated_Source\PSoC5/SD_FIlesystem_SPI0.c **** *
 185:.\Generated_Source\PSoC5/SD_FIlesystem_SPI0.c **** * Return:
 186:.\Generated_Source\PSoC5/SD_FIlesystem_SPI0.c **** *  None.
 187:.\Generated_Source\PSoC5/SD_FIlesystem_SPI0.c **** *
 188:.\Generated_Source\PSoC5/SD_FIlesystem_SPI0.c **** * Theory:
 189:.\Generated_Source\PSoC5/SD_FIlesystem_SPI0.c **** *  Disable the clock input to enable operation.
 190:.\Generated_Source\PSoC5/SD_FIlesystem_SPI0.c **** *
 191:.\Generated_Source\PSoC5/SD_FIlesystem_SPI0.c **** *******************************************************************************/
 192:.\Generated_Source\PSoC5/SD_FIlesystem_SPI0.c **** void SD_FIlesystem_SPI0_Stop(void) 
 193:.\Generated_Source\PSoC5/SD_FIlesystem_SPI0.c **** {
  72              		.loc 1 193 0
  73              		.cfi_startproc
  74              		@ args = 0, pretend = 0, frame = 0
  75              		@ frame_needed = 0, uses_anonymous_args = 0
  76 0000 08B5     		push	{r3, lr}
  77              		.cfi_def_cfa_offset 8
  78              		.cfi_offset 3, -8
  79              		.cfi_offset 14, -4
 194:.\Generated_Source\PSoC5/SD_FIlesystem_SPI0.c ****     uint8 enableInterrupts;
 195:.\Generated_Source\PSoC5/SD_FIlesystem_SPI0.c **** 
 196:.\Generated_Source\PSoC5/SD_FIlesystem_SPI0.c ****     enableInterrupts = CyEnterCriticalSection();
  80              		.loc 1 196 0
  81 0002 FFF7FEFF 		bl	CyEnterCriticalSection
  82              	.LVL2:
 197:.\Generated_Source\PSoC5/SD_FIlesystem_SPI0.c ****     SD_FIlesystem_SPI0_TX_STATUS_ACTL_REG &= ((uint8) ~SD_FIlesystem_SPI0_INT_ENABLE);
  83              		.loc 1 197 0
  84 0006 064A     		ldr	r2, .L7
  85 0008 1378     		ldrb	r3, [r2]	@ zero_extendqisi2
  86 000a 03F0EF03 		and	r3, r3, #239
  87 000e 1370     		strb	r3, [r2]
 198:.\Generated_Source\PSoC5/SD_FIlesystem_SPI0.c ****     SD_FIlesystem_SPI0_RX_STATUS_ACTL_REG &= ((uint8) ~SD_FIlesystem_SPI0_INT_ENABLE);
ARM GAS  C:\Users\User\AppData\Local\Temp\ccohLGUd.s 			page 6


  88              		.loc 1 198 0
  89 0010 013A     		subs	r2, r2, #1
  90 0012 1378     		ldrb	r3, [r2]	@ zero_extendqisi2
  91 0014 03F0EF03 		and	r3, r3, #239
  92 0018 1370     		strb	r3, [r2]
 199:.\Generated_Source\PSoC5/SD_FIlesystem_SPI0.c ****     CyExitCriticalSection(enableInterrupts);
  93              		.loc 1 199 0
  94 001a FFF7FEFF 		bl	CyExitCriticalSection
  95              	.LVL3:
  96 001e 08BD     		pop	{r3, pc}
  97              	.L8:
  98              		.align	2
  99              	.L7:
 100 0020 97650040 		.word	1073767831
 101              		.cfi_endproc
 102              	.LFE3:
 103              		.size	SD_FIlesystem_SPI0_Stop, .-SD_FIlesystem_SPI0_Stop
 104              		.section	.text.SD_FIlesystem_SPI0_EnableTxInt,"ax",%progbits
 105              		.align	2
 106              		.global	SD_FIlesystem_SPI0_EnableTxInt
 107              		.thumb
 108              		.thumb_func
 109              		.type	SD_FIlesystem_SPI0_EnableTxInt, %function
 110              	SD_FIlesystem_SPI0_EnableTxInt:
 111              	.LFB4:
 200:.\Generated_Source\PSoC5/SD_FIlesystem_SPI0.c **** 
 201:.\Generated_Source\PSoC5/SD_FIlesystem_SPI0.c ****     #if(0u != SD_FIlesystem_SPI0_INTERNAL_CLOCK)
 202:.\Generated_Source\PSoC5/SD_FIlesystem_SPI0.c ****         SD_FIlesystem_SPI0_IntClock_Disable();
 203:.\Generated_Source\PSoC5/SD_FIlesystem_SPI0.c ****     #endif /* (0u != SD_FIlesystem_SPI0_INTERNAL_CLOCK) */
 204:.\Generated_Source\PSoC5/SD_FIlesystem_SPI0.c **** 
 205:.\Generated_Source\PSoC5/SD_FIlesystem_SPI0.c ****     SD_FIlesystem_SPI0_DisableTxInt();
 206:.\Generated_Source\PSoC5/SD_FIlesystem_SPI0.c ****     SD_FIlesystem_SPI0_DisableRxInt();
 207:.\Generated_Source\PSoC5/SD_FIlesystem_SPI0.c **** }
 208:.\Generated_Source\PSoC5/SD_FIlesystem_SPI0.c **** 
 209:.\Generated_Source\PSoC5/SD_FIlesystem_SPI0.c **** 
 210:.\Generated_Source\PSoC5/SD_FIlesystem_SPI0.c **** /*******************************************************************************
 211:.\Generated_Source\PSoC5/SD_FIlesystem_SPI0.c **** * Function Name: SD_FIlesystem_SPI0_EnableTxInt
 212:.\Generated_Source\PSoC5/SD_FIlesystem_SPI0.c **** ********************************************************************************
 213:.\Generated_Source\PSoC5/SD_FIlesystem_SPI0.c **** *
 214:.\Generated_Source\PSoC5/SD_FIlesystem_SPI0.c **** * Summary:
 215:.\Generated_Source\PSoC5/SD_FIlesystem_SPI0.c **** *  Enable internal Tx interrupt generation.
 216:.\Generated_Source\PSoC5/SD_FIlesystem_SPI0.c **** *
 217:.\Generated_Source\PSoC5/SD_FIlesystem_SPI0.c **** * Parameters:
 218:.\Generated_Source\PSoC5/SD_FIlesystem_SPI0.c **** *  None.
 219:.\Generated_Source\PSoC5/SD_FIlesystem_SPI0.c **** *
 220:.\Generated_Source\PSoC5/SD_FIlesystem_SPI0.c **** * Return:
 221:.\Generated_Source\PSoC5/SD_FIlesystem_SPI0.c **** *  None.
 222:.\Generated_Source\PSoC5/SD_FIlesystem_SPI0.c **** *
 223:.\Generated_Source\PSoC5/SD_FIlesystem_SPI0.c **** * Theory:
 224:.\Generated_Source\PSoC5/SD_FIlesystem_SPI0.c **** *  Enable the internal Tx interrupt output -or- the interrupt component itself.
 225:.\Generated_Source\PSoC5/SD_FIlesystem_SPI0.c **** *
 226:.\Generated_Source\PSoC5/SD_FIlesystem_SPI0.c **** *******************************************************************************/
 227:.\Generated_Source\PSoC5/SD_FIlesystem_SPI0.c **** void SD_FIlesystem_SPI0_EnableTxInt(void) 
 228:.\Generated_Source\PSoC5/SD_FIlesystem_SPI0.c **** {
 112              		.loc 1 228 0
 113              		.cfi_startproc
 114              		@ args = 0, pretend = 0, frame = 0
ARM GAS  C:\Users\User\AppData\Local\Temp\ccohLGUd.s 			page 7


 115              		@ frame_needed = 0, uses_anonymous_args = 0
 116              		@ link register save eliminated.
 117 0000 7047     		bx	lr
 118              		.cfi_endproc
 119              	.LFE4:
 120              		.size	SD_FIlesystem_SPI0_EnableTxInt, .-SD_FIlesystem_SPI0_EnableTxInt
 121 0002 00BF     		.section	.text.SD_FIlesystem_SPI0_EnableRxInt,"ax",%progbits
 122              		.align	2
 123              		.global	SD_FIlesystem_SPI0_EnableRxInt
 124              		.thumb
 125              		.thumb_func
 126              		.type	SD_FIlesystem_SPI0_EnableRxInt, %function
 127              	SD_FIlesystem_SPI0_EnableRxInt:
 128              	.LFB5:
 229:.\Generated_Source\PSoC5/SD_FIlesystem_SPI0.c ****     #if(0u != SD_FIlesystem_SPI0_INTERNAL_TX_INT_ENABLED)
 230:.\Generated_Source\PSoC5/SD_FIlesystem_SPI0.c ****         CyIntEnable(SD_FIlesystem_SPI0_TX_ISR_NUMBER);
 231:.\Generated_Source\PSoC5/SD_FIlesystem_SPI0.c ****     #endif /* (0u != SD_FIlesystem_SPI0_INTERNAL_TX_INT_ENABLED) */
 232:.\Generated_Source\PSoC5/SD_FIlesystem_SPI0.c **** }
 233:.\Generated_Source\PSoC5/SD_FIlesystem_SPI0.c **** 
 234:.\Generated_Source\PSoC5/SD_FIlesystem_SPI0.c **** 
 235:.\Generated_Source\PSoC5/SD_FIlesystem_SPI0.c **** /*******************************************************************************
 236:.\Generated_Source\PSoC5/SD_FIlesystem_SPI0.c **** * Function Name: SD_FIlesystem_SPI0_EnableRxInt
 237:.\Generated_Source\PSoC5/SD_FIlesystem_SPI0.c **** ********************************************************************************
 238:.\Generated_Source\PSoC5/SD_FIlesystem_SPI0.c **** *
 239:.\Generated_Source\PSoC5/SD_FIlesystem_SPI0.c **** * Summary:
 240:.\Generated_Source\PSoC5/SD_FIlesystem_SPI0.c **** *  Enable internal Rx interrupt generation.
 241:.\Generated_Source\PSoC5/SD_FIlesystem_SPI0.c **** *
 242:.\Generated_Source\PSoC5/SD_FIlesystem_SPI0.c **** * Parameters:
 243:.\Generated_Source\PSoC5/SD_FIlesystem_SPI0.c **** *  None.
 244:.\Generated_Source\PSoC5/SD_FIlesystem_SPI0.c **** *
 245:.\Generated_Source\PSoC5/SD_FIlesystem_SPI0.c **** * Return:
 246:.\Generated_Source\PSoC5/SD_FIlesystem_SPI0.c **** *  None.
 247:.\Generated_Source\PSoC5/SD_FIlesystem_SPI0.c **** *
 248:.\Generated_Source\PSoC5/SD_FIlesystem_SPI0.c **** * Theory:
 249:.\Generated_Source\PSoC5/SD_FIlesystem_SPI0.c **** *  Enable the internal Rx interrupt output -or- the interrupt component itself.
 250:.\Generated_Source\PSoC5/SD_FIlesystem_SPI0.c **** *
 251:.\Generated_Source\PSoC5/SD_FIlesystem_SPI0.c **** *******************************************************************************/
 252:.\Generated_Source\PSoC5/SD_FIlesystem_SPI0.c **** void SD_FIlesystem_SPI0_EnableRxInt(void) 
 253:.\Generated_Source\PSoC5/SD_FIlesystem_SPI0.c **** {
 129              		.loc 1 253 0
 130              		.cfi_startproc
 131              		@ args = 0, pretend = 0, frame = 0
 132              		@ frame_needed = 0, uses_anonymous_args = 0
 133              		@ link register save eliminated.
 134 0000 7047     		bx	lr
 135              		.cfi_endproc
 136              	.LFE5:
 137              		.size	SD_FIlesystem_SPI0_EnableRxInt, .-SD_FIlesystem_SPI0_EnableRxInt
 138 0002 00BF     		.section	.text.SD_FIlesystem_SPI0_DisableTxInt,"ax",%progbits
 139              		.align	2
 140              		.global	SD_FIlesystem_SPI0_DisableTxInt
 141              		.thumb
 142              		.thumb_func
 143              		.type	SD_FIlesystem_SPI0_DisableTxInt, %function
 144              	SD_FIlesystem_SPI0_DisableTxInt:
 145              	.LFB6:
 254:.\Generated_Source\PSoC5/SD_FIlesystem_SPI0.c ****     #if(0u != SD_FIlesystem_SPI0_INTERNAL_RX_INT_ENABLED)
ARM GAS  C:\Users\User\AppData\Local\Temp\ccohLGUd.s 			page 8


 255:.\Generated_Source\PSoC5/SD_FIlesystem_SPI0.c ****         CyIntEnable(SD_FIlesystem_SPI0_RX_ISR_NUMBER);
 256:.\Generated_Source\PSoC5/SD_FIlesystem_SPI0.c ****     #endif /* (0u != SD_FIlesystem_SPI0_INTERNAL_RX_INT_ENABLED) */
 257:.\Generated_Source\PSoC5/SD_FIlesystem_SPI0.c **** }
 258:.\Generated_Source\PSoC5/SD_FIlesystem_SPI0.c **** 
 259:.\Generated_Source\PSoC5/SD_FIlesystem_SPI0.c **** 
 260:.\Generated_Source\PSoC5/SD_FIlesystem_SPI0.c **** /*******************************************************************************
 261:.\Generated_Source\PSoC5/SD_FIlesystem_SPI0.c **** * Function Name: SD_FIlesystem_SPI0_DisableTxInt
 262:.\Generated_Source\PSoC5/SD_FIlesystem_SPI0.c **** ********************************************************************************
 263:.\Generated_Source\PSoC5/SD_FIlesystem_SPI0.c **** *
 264:.\Generated_Source\PSoC5/SD_FIlesystem_SPI0.c **** * Summary:
 265:.\Generated_Source\PSoC5/SD_FIlesystem_SPI0.c **** *  Disable internal Tx interrupt generation.
 266:.\Generated_Source\PSoC5/SD_FIlesystem_SPI0.c **** *
 267:.\Generated_Source\PSoC5/SD_FIlesystem_SPI0.c **** * Parameters:
 268:.\Generated_Source\PSoC5/SD_FIlesystem_SPI0.c **** *  None.
 269:.\Generated_Source\PSoC5/SD_FIlesystem_SPI0.c **** *
 270:.\Generated_Source\PSoC5/SD_FIlesystem_SPI0.c **** * Return:
 271:.\Generated_Source\PSoC5/SD_FIlesystem_SPI0.c **** *  None.
 272:.\Generated_Source\PSoC5/SD_FIlesystem_SPI0.c **** *
 273:.\Generated_Source\PSoC5/SD_FIlesystem_SPI0.c **** * Theory:
 274:.\Generated_Source\PSoC5/SD_FIlesystem_SPI0.c **** *  Disable the internal Tx interrupt output -or- the interrupt component itself.
 275:.\Generated_Source\PSoC5/SD_FIlesystem_SPI0.c **** *
 276:.\Generated_Source\PSoC5/SD_FIlesystem_SPI0.c **** *******************************************************************************/
 277:.\Generated_Source\PSoC5/SD_FIlesystem_SPI0.c **** void SD_FIlesystem_SPI0_DisableTxInt(void) 
 278:.\Generated_Source\PSoC5/SD_FIlesystem_SPI0.c **** {
 146              		.loc 1 278 0
 147              		.cfi_startproc
 148              		@ args = 0, pretend = 0, frame = 0
 149              		@ frame_needed = 0, uses_anonymous_args = 0
 150              		@ link register save eliminated.
 151 0000 7047     		bx	lr
 152              		.cfi_endproc
 153              	.LFE6:
 154              		.size	SD_FIlesystem_SPI0_DisableTxInt, .-SD_FIlesystem_SPI0_DisableTxInt
 155 0002 00BF     		.section	.text.SD_FIlesystem_SPI0_DisableRxInt,"ax",%progbits
 156              		.align	2
 157              		.global	SD_FIlesystem_SPI0_DisableRxInt
 158              		.thumb
 159              		.thumb_func
 160              		.type	SD_FIlesystem_SPI0_DisableRxInt, %function
 161              	SD_FIlesystem_SPI0_DisableRxInt:
 162              	.LFB7:
 279:.\Generated_Source\PSoC5/SD_FIlesystem_SPI0.c ****     #if(0u != SD_FIlesystem_SPI0_INTERNAL_TX_INT_ENABLED)
 280:.\Generated_Source\PSoC5/SD_FIlesystem_SPI0.c ****         CyIntDisable(SD_FIlesystem_SPI0_TX_ISR_NUMBER);
 281:.\Generated_Source\PSoC5/SD_FIlesystem_SPI0.c ****     #endif /* (0u != SD_FIlesystem_SPI0_INTERNAL_TX_INT_ENABLED) */
 282:.\Generated_Source\PSoC5/SD_FIlesystem_SPI0.c **** }
 283:.\Generated_Source\PSoC5/SD_FIlesystem_SPI0.c **** 
 284:.\Generated_Source\PSoC5/SD_FIlesystem_SPI0.c **** 
 285:.\Generated_Source\PSoC5/SD_FIlesystem_SPI0.c **** /*******************************************************************************
 286:.\Generated_Source\PSoC5/SD_FIlesystem_SPI0.c **** * Function Name: SD_FIlesystem_SPI0_DisableRxInt
 287:.\Generated_Source\PSoC5/SD_FIlesystem_SPI0.c **** ********************************************************************************
 288:.\Generated_Source\PSoC5/SD_FIlesystem_SPI0.c **** *
 289:.\Generated_Source\PSoC5/SD_FIlesystem_SPI0.c **** * Summary:
 290:.\Generated_Source\PSoC5/SD_FIlesystem_SPI0.c **** *  Disable internal Rx interrupt generation.
 291:.\Generated_Source\PSoC5/SD_FIlesystem_SPI0.c **** *
 292:.\Generated_Source\PSoC5/SD_FIlesystem_SPI0.c **** * Parameters:
 293:.\Generated_Source\PSoC5/SD_FIlesystem_SPI0.c **** *  None.
 294:.\Generated_Source\PSoC5/SD_FIlesystem_SPI0.c **** *
ARM GAS  C:\Users\User\AppData\Local\Temp\ccohLGUd.s 			page 9


 295:.\Generated_Source\PSoC5/SD_FIlesystem_SPI0.c **** * Return:
 296:.\Generated_Source\PSoC5/SD_FIlesystem_SPI0.c **** *  None.
 297:.\Generated_Source\PSoC5/SD_FIlesystem_SPI0.c **** *
 298:.\Generated_Source\PSoC5/SD_FIlesystem_SPI0.c **** * Theory:
 299:.\Generated_Source\PSoC5/SD_FIlesystem_SPI0.c **** *  Disable the internal Rx interrupt output -or- the interrupt component itself.
 300:.\Generated_Source\PSoC5/SD_FIlesystem_SPI0.c **** *
 301:.\Generated_Source\PSoC5/SD_FIlesystem_SPI0.c **** *******************************************************************************/
 302:.\Generated_Source\PSoC5/SD_FIlesystem_SPI0.c **** void SD_FIlesystem_SPI0_DisableRxInt(void) 
 303:.\Generated_Source\PSoC5/SD_FIlesystem_SPI0.c **** {
 163              		.loc 1 303 0
 164              		.cfi_startproc
 165              		@ args = 0, pretend = 0, frame = 0
 166              		@ frame_needed = 0, uses_anonymous_args = 0
 167              		@ link register save eliminated.
 168 0000 7047     		bx	lr
 169              		.cfi_endproc
 170              	.LFE7:
 171              		.size	SD_FIlesystem_SPI0_DisableRxInt, .-SD_FIlesystem_SPI0_DisableRxInt
 172 0002 00BF     		.section	.text.SD_FIlesystem_SPI0_SetTxInterruptMode,"ax",%progbits
 173              		.align	2
 174              		.global	SD_FIlesystem_SPI0_SetTxInterruptMode
 175              		.thumb
 176              		.thumb_func
 177              		.type	SD_FIlesystem_SPI0_SetTxInterruptMode, %function
 178              	SD_FIlesystem_SPI0_SetTxInterruptMode:
 179              	.LFB8:
 304:.\Generated_Source\PSoC5/SD_FIlesystem_SPI0.c ****     #if(0u != SD_FIlesystem_SPI0_INTERNAL_RX_INT_ENABLED)
 305:.\Generated_Source\PSoC5/SD_FIlesystem_SPI0.c ****         CyIntDisable(SD_FIlesystem_SPI0_RX_ISR_NUMBER);
 306:.\Generated_Source\PSoC5/SD_FIlesystem_SPI0.c ****     #endif /* (0u != SD_FIlesystem_SPI0_INTERNAL_RX_INT_ENABLED) */
 307:.\Generated_Source\PSoC5/SD_FIlesystem_SPI0.c **** }
 308:.\Generated_Source\PSoC5/SD_FIlesystem_SPI0.c **** 
 309:.\Generated_Source\PSoC5/SD_FIlesystem_SPI0.c **** 
 310:.\Generated_Source\PSoC5/SD_FIlesystem_SPI0.c **** /*******************************************************************************
 311:.\Generated_Source\PSoC5/SD_FIlesystem_SPI0.c **** * Function Name: SD_FIlesystem_SPI0_SetTxInterruptMode
 312:.\Generated_Source\PSoC5/SD_FIlesystem_SPI0.c **** ********************************************************************************
 313:.\Generated_Source\PSoC5/SD_FIlesystem_SPI0.c **** *
 314:.\Generated_Source\PSoC5/SD_FIlesystem_SPI0.c **** * Summary:
 315:.\Generated_Source\PSoC5/SD_FIlesystem_SPI0.c **** *  Configure which status bits trigger an interrupt event.
 316:.\Generated_Source\PSoC5/SD_FIlesystem_SPI0.c **** *
 317:.\Generated_Source\PSoC5/SD_FIlesystem_SPI0.c **** * Parameters:
 318:.\Generated_Source\PSoC5/SD_FIlesystem_SPI0.c **** *  intSrc: An or'd combination of the desired status bit masks (defined in the
 319:.\Generated_Source\PSoC5/SD_FIlesystem_SPI0.c **** *  header file).
 320:.\Generated_Source\PSoC5/SD_FIlesystem_SPI0.c **** *
 321:.\Generated_Source\PSoC5/SD_FIlesystem_SPI0.c **** * Return:
 322:.\Generated_Source\PSoC5/SD_FIlesystem_SPI0.c **** *  None.
 323:.\Generated_Source\PSoC5/SD_FIlesystem_SPI0.c **** *
 324:.\Generated_Source\PSoC5/SD_FIlesystem_SPI0.c **** * Theory:
 325:.\Generated_Source\PSoC5/SD_FIlesystem_SPI0.c **** *  Enables the output of specific status bits to the interrupt controller.
 326:.\Generated_Source\PSoC5/SD_FIlesystem_SPI0.c **** *
 327:.\Generated_Source\PSoC5/SD_FIlesystem_SPI0.c **** *******************************************************************************/
 328:.\Generated_Source\PSoC5/SD_FIlesystem_SPI0.c **** void SD_FIlesystem_SPI0_SetTxInterruptMode(uint8 intSrc) 
 329:.\Generated_Source\PSoC5/SD_FIlesystem_SPI0.c **** {
 180              		.loc 1 329 0
 181              		.cfi_startproc
 182              		@ args = 0, pretend = 0, frame = 0
 183              		@ frame_needed = 0, uses_anonymous_args = 0
 184              		@ link register save eliminated.
ARM GAS  C:\Users\User\AppData\Local\Temp\ccohLGUd.s 			page 10


 185              	.LVL4:
 330:.\Generated_Source\PSoC5/SD_FIlesystem_SPI0.c ****     SD_FIlesystem_SPI0_TX_STATUS_MASK_REG = intSrc;
 186              		.loc 1 330 0
 187 0000 014B     		ldr	r3, .L14
 188 0002 1870     		strb	r0, [r3]
 189 0004 7047     		bx	lr
 190              	.L15:
 191 0006 00BF     		.align	2
 192              	.L14:
 193 0008 87650040 		.word	1073767815
 194              		.cfi_endproc
 195              	.LFE8:
 196              		.size	SD_FIlesystem_SPI0_SetTxInterruptMode, .-SD_FIlesystem_SPI0_SetTxInterruptMode
 197              		.section	.text.SD_FIlesystem_SPI0_SetRxInterruptMode,"ax",%progbits
 198              		.align	2
 199              		.global	SD_FIlesystem_SPI0_SetRxInterruptMode
 200              		.thumb
 201              		.thumb_func
 202              		.type	SD_FIlesystem_SPI0_SetRxInterruptMode, %function
 203              	SD_FIlesystem_SPI0_SetRxInterruptMode:
 204              	.LFB9:
 331:.\Generated_Source\PSoC5/SD_FIlesystem_SPI0.c **** }
 332:.\Generated_Source\PSoC5/SD_FIlesystem_SPI0.c **** 
 333:.\Generated_Source\PSoC5/SD_FIlesystem_SPI0.c **** 
 334:.\Generated_Source\PSoC5/SD_FIlesystem_SPI0.c **** /*******************************************************************************
 335:.\Generated_Source\PSoC5/SD_FIlesystem_SPI0.c **** * Function Name: SD_FIlesystem_SPI0_SetRxInterruptMode
 336:.\Generated_Source\PSoC5/SD_FIlesystem_SPI0.c **** ********************************************************************************
 337:.\Generated_Source\PSoC5/SD_FIlesystem_SPI0.c **** *
 338:.\Generated_Source\PSoC5/SD_FIlesystem_SPI0.c **** * Summary:
 339:.\Generated_Source\PSoC5/SD_FIlesystem_SPI0.c **** *  Configure which status bits trigger an interrupt event.
 340:.\Generated_Source\PSoC5/SD_FIlesystem_SPI0.c **** *
 341:.\Generated_Source\PSoC5/SD_FIlesystem_SPI0.c **** * Parameters:
 342:.\Generated_Source\PSoC5/SD_FIlesystem_SPI0.c **** *  intSrc: An or'd combination of the desired status bit masks (defined in the
 343:.\Generated_Source\PSoC5/SD_FIlesystem_SPI0.c **** *  header file).
 344:.\Generated_Source\PSoC5/SD_FIlesystem_SPI0.c **** *
 345:.\Generated_Source\PSoC5/SD_FIlesystem_SPI0.c **** * Return:
 346:.\Generated_Source\PSoC5/SD_FIlesystem_SPI0.c **** *  None.
 347:.\Generated_Source\PSoC5/SD_FIlesystem_SPI0.c **** *
 348:.\Generated_Source\PSoC5/SD_FIlesystem_SPI0.c **** * Theory:
 349:.\Generated_Source\PSoC5/SD_FIlesystem_SPI0.c **** *  Enables the output of specific status bits to the interrupt controller.
 350:.\Generated_Source\PSoC5/SD_FIlesystem_SPI0.c **** *
 351:.\Generated_Source\PSoC5/SD_FIlesystem_SPI0.c **** *******************************************************************************/
 352:.\Generated_Source\PSoC5/SD_FIlesystem_SPI0.c **** void SD_FIlesystem_SPI0_SetRxInterruptMode(uint8 intSrc) 
 353:.\Generated_Source\PSoC5/SD_FIlesystem_SPI0.c **** {
 205              		.loc 1 353 0
 206              		.cfi_startproc
 207              		@ args = 0, pretend = 0, frame = 0
 208              		@ frame_needed = 0, uses_anonymous_args = 0
 209              		@ link register save eliminated.
 210              	.LVL5:
 354:.\Generated_Source\PSoC5/SD_FIlesystem_SPI0.c ****     SD_FIlesystem_SPI0_RX_STATUS_MASK_REG  = intSrc;
 211              		.loc 1 354 0
 212 0000 014B     		ldr	r3, .L17
 213 0002 1870     		strb	r0, [r3]
 214 0004 7047     		bx	lr
 215              	.L18:
 216 0006 00BF     		.align	2
ARM GAS  C:\Users\User\AppData\Local\Temp\ccohLGUd.s 			page 11


 217              	.L17:
 218 0008 86650040 		.word	1073767814
 219              		.cfi_endproc
 220              	.LFE9:
 221              		.size	SD_FIlesystem_SPI0_SetRxInterruptMode, .-SD_FIlesystem_SPI0_SetRxInterruptMode
 222              		.section	.text.SD_FIlesystem_SPI0_ReadTxStatus,"ax",%progbits
 223              		.align	2
 224              		.global	SD_FIlesystem_SPI0_ReadTxStatus
 225              		.thumb
 226              		.thumb_func
 227              		.type	SD_FIlesystem_SPI0_ReadTxStatus, %function
 228              	SD_FIlesystem_SPI0_ReadTxStatus:
 229              	.LFB10:
 355:.\Generated_Source\PSoC5/SD_FIlesystem_SPI0.c **** }
 356:.\Generated_Source\PSoC5/SD_FIlesystem_SPI0.c **** 
 357:.\Generated_Source\PSoC5/SD_FIlesystem_SPI0.c **** 
 358:.\Generated_Source\PSoC5/SD_FIlesystem_SPI0.c **** /*******************************************************************************
 359:.\Generated_Source\PSoC5/SD_FIlesystem_SPI0.c **** * Function Name: SD_FIlesystem_SPI0_ReadTxStatus
 360:.\Generated_Source\PSoC5/SD_FIlesystem_SPI0.c **** ********************************************************************************
 361:.\Generated_Source\PSoC5/SD_FIlesystem_SPI0.c **** *
 362:.\Generated_Source\PSoC5/SD_FIlesystem_SPI0.c **** * Summary:
 363:.\Generated_Source\PSoC5/SD_FIlesystem_SPI0.c **** *  Read the Tx status register for the component.
 364:.\Generated_Source\PSoC5/SD_FIlesystem_SPI0.c **** *
 365:.\Generated_Source\PSoC5/SD_FIlesystem_SPI0.c **** * Parameters:
 366:.\Generated_Source\PSoC5/SD_FIlesystem_SPI0.c **** *  None.
 367:.\Generated_Source\PSoC5/SD_FIlesystem_SPI0.c **** *
 368:.\Generated_Source\PSoC5/SD_FIlesystem_SPI0.c **** * Return:
 369:.\Generated_Source\PSoC5/SD_FIlesystem_SPI0.c **** *  Contents of the Tx status register.
 370:.\Generated_Source\PSoC5/SD_FIlesystem_SPI0.c **** *
 371:.\Generated_Source\PSoC5/SD_FIlesystem_SPI0.c **** * Global variables:
 372:.\Generated_Source\PSoC5/SD_FIlesystem_SPI0.c **** *  SD_FIlesystem_SPI0_swStatusTx - used to store in software status register,
 373:.\Generated_Source\PSoC5/SD_FIlesystem_SPI0.c **** *  modified every function call - resets to zero.
 374:.\Generated_Source\PSoC5/SD_FIlesystem_SPI0.c **** *
 375:.\Generated_Source\PSoC5/SD_FIlesystem_SPI0.c **** * Theory:
 376:.\Generated_Source\PSoC5/SD_FIlesystem_SPI0.c **** *  Allows the user and the API to read the Tx status register for error
 377:.\Generated_Source\PSoC5/SD_FIlesystem_SPI0.c **** *  detection and flow control.
 378:.\Generated_Source\PSoC5/SD_FIlesystem_SPI0.c **** *
 379:.\Generated_Source\PSoC5/SD_FIlesystem_SPI0.c **** * Side Effects:
 380:.\Generated_Source\PSoC5/SD_FIlesystem_SPI0.c **** *  Clear Tx status register of the component.
 381:.\Generated_Source\PSoC5/SD_FIlesystem_SPI0.c **** *
 382:.\Generated_Source\PSoC5/SD_FIlesystem_SPI0.c **** * Reentrant:
 383:.\Generated_Source\PSoC5/SD_FIlesystem_SPI0.c **** *  No.
 384:.\Generated_Source\PSoC5/SD_FIlesystem_SPI0.c **** *
 385:.\Generated_Source\PSoC5/SD_FIlesystem_SPI0.c **** *******************************************************************************/
 386:.\Generated_Source\PSoC5/SD_FIlesystem_SPI0.c **** uint8 SD_FIlesystem_SPI0_ReadTxStatus(void) 
 387:.\Generated_Source\PSoC5/SD_FIlesystem_SPI0.c **** {
 230              		.loc 1 387 0
 231              		.cfi_startproc
 232              		@ args = 0, pretend = 0, frame = 0
 233              		@ frame_needed = 0, uses_anonymous_args = 0
 234              		@ link register save eliminated.
 388:.\Generated_Source\PSoC5/SD_FIlesystem_SPI0.c ****     uint8 tmpStatus;
 389:.\Generated_Source\PSoC5/SD_FIlesystem_SPI0.c **** 
 390:.\Generated_Source\PSoC5/SD_FIlesystem_SPI0.c ****     #if(SD_FIlesystem_SPI0_TX_SOFTWARE_BUF_ENABLED)
 391:.\Generated_Source\PSoC5/SD_FIlesystem_SPI0.c ****         /* Disable TX interrupt to protect global veriables */
 392:.\Generated_Source\PSoC5/SD_FIlesystem_SPI0.c ****         SD_FIlesystem_SPI0_DisableTxInt();
 393:.\Generated_Source\PSoC5/SD_FIlesystem_SPI0.c **** 
ARM GAS  C:\Users\User\AppData\Local\Temp\ccohLGUd.s 			page 12


 394:.\Generated_Source\PSoC5/SD_FIlesystem_SPI0.c ****         tmpStatus = SD_FIlesystem_SPI0_GET_STATUS_TX(SD_FIlesystem_SPI0_swStatusTx);
 395:.\Generated_Source\PSoC5/SD_FIlesystem_SPI0.c ****         SD_FIlesystem_SPI0_swStatusTx = 0u;
 396:.\Generated_Source\PSoC5/SD_FIlesystem_SPI0.c **** 
 397:.\Generated_Source\PSoC5/SD_FIlesystem_SPI0.c ****         SD_FIlesystem_SPI0_EnableTxInt();
 398:.\Generated_Source\PSoC5/SD_FIlesystem_SPI0.c **** 
 399:.\Generated_Source\PSoC5/SD_FIlesystem_SPI0.c ****     #else
 400:.\Generated_Source\PSoC5/SD_FIlesystem_SPI0.c **** 
 401:.\Generated_Source\PSoC5/SD_FIlesystem_SPI0.c ****         tmpStatus = SD_FIlesystem_SPI0_TX_STATUS_REG;
 235              		.loc 1 401 0
 236 0000 014B     		ldr	r3, .L20
 237 0002 1878     		ldrb	r0, [r3]	@ zero_extendqisi2
 238              	.LVL6:
 402:.\Generated_Source\PSoC5/SD_FIlesystem_SPI0.c **** 
 403:.\Generated_Source\PSoC5/SD_FIlesystem_SPI0.c ****     #endif /* (SD_FIlesystem_SPI0_TX_SOFTWARE_BUF_ENABLED) */
 404:.\Generated_Source\PSoC5/SD_FIlesystem_SPI0.c **** 
 405:.\Generated_Source\PSoC5/SD_FIlesystem_SPI0.c ****     return(tmpStatus);
 406:.\Generated_Source\PSoC5/SD_FIlesystem_SPI0.c **** }
 239              		.loc 1 406 0
 240 0004 7047     		bx	lr
 241              	.L21:
 242 0006 00BF     		.align	2
 243              	.L20:
 244 0008 67650040 		.word	1073767783
 245              		.cfi_endproc
 246              	.LFE10:
 247              		.size	SD_FIlesystem_SPI0_ReadTxStatus, .-SD_FIlesystem_SPI0_ReadTxStatus
 248              		.section	.text.SD_FIlesystem_SPI0_ReadRxStatus,"ax",%progbits
 249              		.align	2
 250              		.global	SD_FIlesystem_SPI0_ReadRxStatus
 251              		.thumb
 252              		.thumb_func
 253              		.type	SD_FIlesystem_SPI0_ReadRxStatus, %function
 254              	SD_FIlesystem_SPI0_ReadRxStatus:
 255              	.LFB11:
 407:.\Generated_Source\PSoC5/SD_FIlesystem_SPI0.c **** 
 408:.\Generated_Source\PSoC5/SD_FIlesystem_SPI0.c **** 
 409:.\Generated_Source\PSoC5/SD_FIlesystem_SPI0.c **** /*******************************************************************************
 410:.\Generated_Source\PSoC5/SD_FIlesystem_SPI0.c **** * Function Name: SD_FIlesystem_SPI0_ReadRxStatus
 411:.\Generated_Source\PSoC5/SD_FIlesystem_SPI0.c **** ********************************************************************************
 412:.\Generated_Source\PSoC5/SD_FIlesystem_SPI0.c **** *
 413:.\Generated_Source\PSoC5/SD_FIlesystem_SPI0.c **** * Summary:
 414:.\Generated_Source\PSoC5/SD_FIlesystem_SPI0.c **** *  Read the Rx status register for the component.
 415:.\Generated_Source\PSoC5/SD_FIlesystem_SPI0.c **** *
 416:.\Generated_Source\PSoC5/SD_FIlesystem_SPI0.c **** * Parameters:
 417:.\Generated_Source\PSoC5/SD_FIlesystem_SPI0.c **** *  None.
 418:.\Generated_Source\PSoC5/SD_FIlesystem_SPI0.c **** *
 419:.\Generated_Source\PSoC5/SD_FIlesystem_SPI0.c **** * Return:
 420:.\Generated_Source\PSoC5/SD_FIlesystem_SPI0.c **** *  Contents of the Rx status register.
 421:.\Generated_Source\PSoC5/SD_FIlesystem_SPI0.c **** *
 422:.\Generated_Source\PSoC5/SD_FIlesystem_SPI0.c **** * Global variables:
 423:.\Generated_Source\PSoC5/SD_FIlesystem_SPI0.c **** *  SD_FIlesystem_SPI0_swStatusRx - used to store in software Rx status register,
 424:.\Generated_Source\PSoC5/SD_FIlesystem_SPI0.c **** *  modified every function call - resets to zero.
 425:.\Generated_Source\PSoC5/SD_FIlesystem_SPI0.c **** *
 426:.\Generated_Source\PSoC5/SD_FIlesystem_SPI0.c **** * Theory:
 427:.\Generated_Source\PSoC5/SD_FIlesystem_SPI0.c **** *  Allows the user and the API to read the Rx status register for error
 428:.\Generated_Source\PSoC5/SD_FIlesystem_SPI0.c **** *  detection and flow control.
 429:.\Generated_Source\PSoC5/SD_FIlesystem_SPI0.c **** *
ARM GAS  C:\Users\User\AppData\Local\Temp\ccohLGUd.s 			page 13


 430:.\Generated_Source\PSoC5/SD_FIlesystem_SPI0.c **** * Side Effects:
 431:.\Generated_Source\PSoC5/SD_FIlesystem_SPI0.c **** *  Clear Rx status register of the component.
 432:.\Generated_Source\PSoC5/SD_FIlesystem_SPI0.c **** *
 433:.\Generated_Source\PSoC5/SD_FIlesystem_SPI0.c **** * Reentrant:
 434:.\Generated_Source\PSoC5/SD_FIlesystem_SPI0.c **** *  No.
 435:.\Generated_Source\PSoC5/SD_FIlesystem_SPI0.c **** *
 436:.\Generated_Source\PSoC5/SD_FIlesystem_SPI0.c **** *******************************************************************************/
 437:.\Generated_Source\PSoC5/SD_FIlesystem_SPI0.c **** uint8 SD_FIlesystem_SPI0_ReadRxStatus(void) 
 438:.\Generated_Source\PSoC5/SD_FIlesystem_SPI0.c **** {
 256              		.loc 1 438 0
 257              		.cfi_startproc
 258              		@ args = 0, pretend = 0, frame = 0
 259              		@ frame_needed = 0, uses_anonymous_args = 0
 260              		@ link register save eliminated.
 439:.\Generated_Source\PSoC5/SD_FIlesystem_SPI0.c ****     uint8 tmpStatus;
 440:.\Generated_Source\PSoC5/SD_FIlesystem_SPI0.c **** 
 441:.\Generated_Source\PSoC5/SD_FIlesystem_SPI0.c ****     #if(SD_FIlesystem_SPI0_RX_SOFTWARE_BUF_ENABLED)
 442:.\Generated_Source\PSoC5/SD_FIlesystem_SPI0.c ****         /* Disable RX interrupt to protect global veriables */
 443:.\Generated_Source\PSoC5/SD_FIlesystem_SPI0.c ****         SD_FIlesystem_SPI0_DisableRxInt();
 444:.\Generated_Source\PSoC5/SD_FIlesystem_SPI0.c **** 
 445:.\Generated_Source\PSoC5/SD_FIlesystem_SPI0.c ****         tmpStatus = SD_FIlesystem_SPI0_GET_STATUS_RX(SD_FIlesystem_SPI0_swStatusRx);
 446:.\Generated_Source\PSoC5/SD_FIlesystem_SPI0.c ****         SD_FIlesystem_SPI0_swStatusRx = 0u;
 447:.\Generated_Source\PSoC5/SD_FIlesystem_SPI0.c **** 
 448:.\Generated_Source\PSoC5/SD_FIlesystem_SPI0.c ****         SD_FIlesystem_SPI0_EnableRxInt();
 449:.\Generated_Source\PSoC5/SD_FIlesystem_SPI0.c **** 
 450:.\Generated_Source\PSoC5/SD_FIlesystem_SPI0.c ****     #else
 451:.\Generated_Source\PSoC5/SD_FIlesystem_SPI0.c **** 
 452:.\Generated_Source\PSoC5/SD_FIlesystem_SPI0.c ****         tmpStatus = SD_FIlesystem_SPI0_RX_STATUS_REG;
 261              		.loc 1 452 0
 262 0000 014B     		ldr	r3, .L23
 263 0002 1878     		ldrb	r0, [r3]	@ zero_extendqisi2
 264              	.LVL7:
 453:.\Generated_Source\PSoC5/SD_FIlesystem_SPI0.c **** 
 454:.\Generated_Source\PSoC5/SD_FIlesystem_SPI0.c ****     #endif /* (SD_FIlesystem_SPI0_RX_SOFTWARE_BUF_ENABLED) */
 455:.\Generated_Source\PSoC5/SD_FIlesystem_SPI0.c **** 
 456:.\Generated_Source\PSoC5/SD_FIlesystem_SPI0.c ****     return(tmpStatus);
 457:.\Generated_Source\PSoC5/SD_FIlesystem_SPI0.c **** }
 265              		.loc 1 457 0
 266 0004 7047     		bx	lr
 267              	.L24:
 268 0006 00BF     		.align	2
 269              	.L23:
 270 0008 66650040 		.word	1073767782
 271              		.cfi_endproc
 272              	.LFE11:
 273              		.size	SD_FIlesystem_SPI0_ReadRxStatus, .-SD_FIlesystem_SPI0_ReadRxStatus
 274              		.section	.text.SD_FIlesystem_SPI0_WriteTxData,"ax",%progbits
 275              		.align	2
 276              		.global	SD_FIlesystem_SPI0_WriteTxData
 277              		.thumb
 278              		.thumb_func
 279              		.type	SD_FIlesystem_SPI0_WriteTxData, %function
 280              	SD_FIlesystem_SPI0_WriteTxData:
 281              	.LFB12:
 458:.\Generated_Source\PSoC5/SD_FIlesystem_SPI0.c **** 
 459:.\Generated_Source\PSoC5/SD_FIlesystem_SPI0.c **** 
 460:.\Generated_Source\PSoC5/SD_FIlesystem_SPI0.c **** /*******************************************************************************
ARM GAS  C:\Users\User\AppData\Local\Temp\ccohLGUd.s 			page 14


 461:.\Generated_Source\PSoC5/SD_FIlesystem_SPI0.c **** * Function Name: SD_FIlesystem_SPI0_WriteTxData
 462:.\Generated_Source\PSoC5/SD_FIlesystem_SPI0.c **** ********************************************************************************
 463:.\Generated_Source\PSoC5/SD_FIlesystem_SPI0.c **** *
 464:.\Generated_Source\PSoC5/SD_FIlesystem_SPI0.c **** * Summary:
 465:.\Generated_Source\PSoC5/SD_FIlesystem_SPI0.c **** *  Write a byte of data to be sent across the SPI.
 466:.\Generated_Source\PSoC5/SD_FIlesystem_SPI0.c **** *
 467:.\Generated_Source\PSoC5/SD_FIlesystem_SPI0.c **** * Parameters:
 468:.\Generated_Source\PSoC5/SD_FIlesystem_SPI0.c **** *  txDataByte: The data value to send across the SPI.
 469:.\Generated_Source\PSoC5/SD_FIlesystem_SPI0.c **** *
 470:.\Generated_Source\PSoC5/SD_FIlesystem_SPI0.c **** * Return:
 471:.\Generated_Source\PSoC5/SD_FIlesystem_SPI0.c **** *  None.
 472:.\Generated_Source\PSoC5/SD_FIlesystem_SPI0.c **** *
 473:.\Generated_Source\PSoC5/SD_FIlesystem_SPI0.c **** * Global variables:
 474:.\Generated_Source\PSoC5/SD_FIlesystem_SPI0.c **** *  SD_FIlesystem_SPI0_txBufferWrite - used for the account of the bytes which
 475:.\Generated_Source\PSoC5/SD_FIlesystem_SPI0.c **** *  have been written down in the TX software buffer, modified every function
 476:.\Generated_Source\PSoC5/SD_FIlesystem_SPI0.c **** *  call if TX Software Buffer is used.
 477:.\Generated_Source\PSoC5/SD_FIlesystem_SPI0.c **** *  SD_FIlesystem_SPI0_txBufferRead - used for the account of the bytes which
 478:.\Generated_Source\PSoC5/SD_FIlesystem_SPI0.c **** *  have been read from the TX software buffer.
 479:.\Generated_Source\PSoC5/SD_FIlesystem_SPI0.c **** *  SD_FIlesystem_SPI0_txBuffer[SD_FIlesystem_SPI0_TX_BUFFER_SIZE] - used to store
 480:.\Generated_Source\PSoC5/SD_FIlesystem_SPI0.c **** *  data to sending, modified every function call if TX Software Buffer is used.
 481:.\Generated_Source\PSoC5/SD_FIlesystem_SPI0.c **** *
 482:.\Generated_Source\PSoC5/SD_FIlesystem_SPI0.c **** * Theory:
 483:.\Generated_Source\PSoC5/SD_FIlesystem_SPI0.c **** *  Allows the user to transmit any byte of data in a single transfer.
 484:.\Generated_Source\PSoC5/SD_FIlesystem_SPI0.c **** *
 485:.\Generated_Source\PSoC5/SD_FIlesystem_SPI0.c **** * Side Effects:
 486:.\Generated_Source\PSoC5/SD_FIlesystem_SPI0.c **** *  If this function is called again before the previous byte is finished then
 487:.\Generated_Source\PSoC5/SD_FIlesystem_SPI0.c **** *  the next byte will be appended to the transfer with no time between
 488:.\Generated_Source\PSoC5/SD_FIlesystem_SPI0.c **** *  the byte transfers. Clear Tx status register of the component.
 489:.\Generated_Source\PSoC5/SD_FIlesystem_SPI0.c **** *
 490:.\Generated_Source\PSoC5/SD_FIlesystem_SPI0.c **** * Reentrant:
 491:.\Generated_Source\PSoC5/SD_FIlesystem_SPI0.c **** *  No.
 492:.\Generated_Source\PSoC5/SD_FIlesystem_SPI0.c **** *
 493:.\Generated_Source\PSoC5/SD_FIlesystem_SPI0.c **** *******************************************************************************/
 494:.\Generated_Source\PSoC5/SD_FIlesystem_SPI0.c **** void SD_FIlesystem_SPI0_WriteTxData(uint8 txData) 
 495:.\Generated_Source\PSoC5/SD_FIlesystem_SPI0.c **** {
 282              		.loc 1 495 0
 283              		.cfi_startproc
 284              		@ args = 0, pretend = 0, frame = 0
 285              		@ frame_needed = 0, uses_anonymous_args = 0
 286              		@ link register save eliminated.
 287              	.LVL8:
 288              	.L26:
 496:.\Generated_Source\PSoC5/SD_FIlesystem_SPI0.c ****     #if(SD_FIlesystem_SPI0_TX_SOFTWARE_BUF_ENABLED)
 497:.\Generated_Source\PSoC5/SD_FIlesystem_SPI0.c **** 
 498:.\Generated_Source\PSoC5/SD_FIlesystem_SPI0.c ****         uint8 tempStatus;
 499:.\Generated_Source\PSoC5/SD_FIlesystem_SPI0.c ****         uint8 tmpTxBufferRead;
 500:.\Generated_Source\PSoC5/SD_FIlesystem_SPI0.c **** 
 501:.\Generated_Source\PSoC5/SD_FIlesystem_SPI0.c ****         /* Block if TX buffer is FULL: don't overwrite */
 502:.\Generated_Source\PSoC5/SD_FIlesystem_SPI0.c ****         do
 503:.\Generated_Source\PSoC5/SD_FIlesystem_SPI0.c ****         {
 504:.\Generated_Source\PSoC5/SD_FIlesystem_SPI0.c ****             tmpTxBufferRead = SD_FIlesystem_SPI0_txBufferRead;
 505:.\Generated_Source\PSoC5/SD_FIlesystem_SPI0.c ****             if(0u == tmpTxBufferRead)
 506:.\Generated_Source\PSoC5/SD_FIlesystem_SPI0.c ****             {
 507:.\Generated_Source\PSoC5/SD_FIlesystem_SPI0.c ****                 tmpTxBufferRead = (SD_FIlesystem_SPI0_TX_BUFFER_SIZE - 1u);
 508:.\Generated_Source\PSoC5/SD_FIlesystem_SPI0.c ****             }
 509:.\Generated_Source\PSoC5/SD_FIlesystem_SPI0.c ****             else
 510:.\Generated_Source\PSoC5/SD_FIlesystem_SPI0.c ****             {
ARM GAS  C:\Users\User\AppData\Local\Temp\ccohLGUd.s 			page 15


 511:.\Generated_Source\PSoC5/SD_FIlesystem_SPI0.c ****                 tmpTxBufferRead--;
 512:.\Generated_Source\PSoC5/SD_FIlesystem_SPI0.c ****             }
 513:.\Generated_Source\PSoC5/SD_FIlesystem_SPI0.c **** 
 514:.\Generated_Source\PSoC5/SD_FIlesystem_SPI0.c ****         }while(tmpTxBufferRead == SD_FIlesystem_SPI0_txBufferWrite);
 515:.\Generated_Source\PSoC5/SD_FIlesystem_SPI0.c **** 
 516:.\Generated_Source\PSoC5/SD_FIlesystem_SPI0.c ****         /* Disable TX interrupt to protect global veriables */
 517:.\Generated_Source\PSoC5/SD_FIlesystem_SPI0.c ****         SD_FIlesystem_SPI0_DisableTxInt();
 518:.\Generated_Source\PSoC5/SD_FIlesystem_SPI0.c **** 
 519:.\Generated_Source\PSoC5/SD_FIlesystem_SPI0.c ****         tempStatus = SD_FIlesystem_SPI0_GET_STATUS_TX(SD_FIlesystem_SPI0_swStatusTx);
 520:.\Generated_Source\PSoC5/SD_FIlesystem_SPI0.c ****         SD_FIlesystem_SPI0_swStatusTx = tempStatus;
 521:.\Generated_Source\PSoC5/SD_FIlesystem_SPI0.c **** 
 522:.\Generated_Source\PSoC5/SD_FIlesystem_SPI0.c **** 
 523:.\Generated_Source\PSoC5/SD_FIlesystem_SPI0.c ****         if((SD_FIlesystem_SPI0_txBufferRead == SD_FIlesystem_SPI0_txBufferWrite) &&
 524:.\Generated_Source\PSoC5/SD_FIlesystem_SPI0.c ****            (0u != (SD_FIlesystem_SPI0_swStatusTx & SD_FIlesystem_SPI0_STS_TX_FIFO_NOT_FULL)))
 525:.\Generated_Source\PSoC5/SD_FIlesystem_SPI0.c ****         {
 526:.\Generated_Source\PSoC5/SD_FIlesystem_SPI0.c ****             /* Add directly to the TX FIFO */
 527:.\Generated_Source\PSoC5/SD_FIlesystem_SPI0.c ****             CY_SET_REG8(SD_FIlesystem_SPI0_TXDATA_PTR, txData);
 528:.\Generated_Source\PSoC5/SD_FIlesystem_SPI0.c ****         }
 529:.\Generated_Source\PSoC5/SD_FIlesystem_SPI0.c ****         else
 530:.\Generated_Source\PSoC5/SD_FIlesystem_SPI0.c ****         {
 531:.\Generated_Source\PSoC5/SD_FIlesystem_SPI0.c ****             /* Add to the TX software buffer */
 532:.\Generated_Source\PSoC5/SD_FIlesystem_SPI0.c ****             SD_FIlesystem_SPI0_txBufferWrite++;
 533:.\Generated_Source\PSoC5/SD_FIlesystem_SPI0.c ****             if(SD_FIlesystem_SPI0_txBufferWrite >= SD_FIlesystem_SPI0_TX_BUFFER_SIZE)
 534:.\Generated_Source\PSoC5/SD_FIlesystem_SPI0.c ****             {
 535:.\Generated_Source\PSoC5/SD_FIlesystem_SPI0.c ****                 SD_FIlesystem_SPI0_txBufferWrite = 0u;
 536:.\Generated_Source\PSoC5/SD_FIlesystem_SPI0.c ****             }
 537:.\Generated_Source\PSoC5/SD_FIlesystem_SPI0.c **** 
 538:.\Generated_Source\PSoC5/SD_FIlesystem_SPI0.c ****             if(SD_FIlesystem_SPI0_txBufferWrite == SD_FIlesystem_SPI0_txBufferRead)
 539:.\Generated_Source\PSoC5/SD_FIlesystem_SPI0.c ****             {
 540:.\Generated_Source\PSoC5/SD_FIlesystem_SPI0.c ****                 SD_FIlesystem_SPI0_txBufferRead++;
 541:.\Generated_Source\PSoC5/SD_FIlesystem_SPI0.c ****                 if(SD_FIlesystem_SPI0_txBufferRead >= SD_FIlesystem_SPI0_TX_BUFFER_SIZE)
 542:.\Generated_Source\PSoC5/SD_FIlesystem_SPI0.c ****                 {
 543:.\Generated_Source\PSoC5/SD_FIlesystem_SPI0.c ****                     SD_FIlesystem_SPI0_txBufferRead = 0u;
 544:.\Generated_Source\PSoC5/SD_FIlesystem_SPI0.c ****                 }
 545:.\Generated_Source\PSoC5/SD_FIlesystem_SPI0.c ****                 SD_FIlesystem_SPI0_txBufferFull = 1u;
 546:.\Generated_Source\PSoC5/SD_FIlesystem_SPI0.c ****             }
 547:.\Generated_Source\PSoC5/SD_FIlesystem_SPI0.c **** 
 548:.\Generated_Source\PSoC5/SD_FIlesystem_SPI0.c ****             SD_FIlesystem_SPI0_txBuffer[SD_FIlesystem_SPI0_txBufferWrite] = txData;
 549:.\Generated_Source\PSoC5/SD_FIlesystem_SPI0.c **** 
 550:.\Generated_Source\PSoC5/SD_FIlesystem_SPI0.c ****             SD_FIlesystem_SPI0_TX_STATUS_MASK_REG |= SD_FIlesystem_SPI0_STS_TX_FIFO_NOT_FULL;
 551:.\Generated_Source\PSoC5/SD_FIlesystem_SPI0.c ****         }
 552:.\Generated_Source\PSoC5/SD_FIlesystem_SPI0.c **** 
 553:.\Generated_Source\PSoC5/SD_FIlesystem_SPI0.c ****         SD_FIlesystem_SPI0_EnableTxInt();
 554:.\Generated_Source\PSoC5/SD_FIlesystem_SPI0.c **** 
 555:.\Generated_Source\PSoC5/SD_FIlesystem_SPI0.c ****     #else
 556:.\Generated_Source\PSoC5/SD_FIlesystem_SPI0.c **** 
 557:.\Generated_Source\PSoC5/SD_FIlesystem_SPI0.c ****         while(0u == (SD_FIlesystem_SPI0_TX_STATUS_REG & SD_FIlesystem_SPI0_STS_TX_FIFO_NOT_FULL))
 289              		.loc 1 557 0 discriminator 1
 290 0000 034B     		ldr	r3, .L27
 291 0002 1B78     		ldrb	r3, [r3]	@ zero_extendqisi2
 292 0004 13F0040F 		tst	r3, #4
 293 0008 FAD0     		beq	.L26
 558:.\Generated_Source\PSoC5/SD_FIlesystem_SPI0.c ****         {
 559:.\Generated_Source\PSoC5/SD_FIlesystem_SPI0.c ****             ; /* Wait for room in FIFO */
 560:.\Generated_Source\PSoC5/SD_FIlesystem_SPI0.c ****         }
 561:.\Generated_Source\PSoC5/SD_FIlesystem_SPI0.c **** 
 562:.\Generated_Source\PSoC5/SD_FIlesystem_SPI0.c ****         /* Put byte in TX FIFO */
ARM GAS  C:\Users\User\AppData\Local\Temp\ccohLGUd.s 			page 16


 563:.\Generated_Source\PSoC5/SD_FIlesystem_SPI0.c ****         CY_SET_REG8(SD_FIlesystem_SPI0_TXDATA_PTR, txData);
 294              		.loc 1 563 0
 295 000a 024B     		ldr	r3, .L27+4
 296 000c 1870     		strb	r0, [r3]
 297 000e 7047     		bx	lr
 298              	.L28:
 299              		.align	2
 300              	.L27:
 301 0010 67650040 		.word	1073767783
 302 0014 45640040 		.word	1073767493
 303              		.cfi_endproc
 304              	.LFE12:
 305              		.size	SD_FIlesystem_SPI0_WriteTxData, .-SD_FIlesystem_SPI0_WriteTxData
 306              		.section	.text.SD_FIlesystem_SPI0_ReadRxData,"ax",%progbits
 307              		.align	2
 308              		.global	SD_FIlesystem_SPI0_ReadRxData
 309              		.thumb
 310              		.thumb_func
 311              		.type	SD_FIlesystem_SPI0_ReadRxData, %function
 312              	SD_FIlesystem_SPI0_ReadRxData:
 313              	.LFB13:
 564:.\Generated_Source\PSoC5/SD_FIlesystem_SPI0.c **** 
 565:.\Generated_Source\PSoC5/SD_FIlesystem_SPI0.c ****     #endif /* (SD_FIlesystem_SPI0_TX_SOFTWARE_BUF_ENABLED) */
 566:.\Generated_Source\PSoC5/SD_FIlesystem_SPI0.c **** }
 567:.\Generated_Source\PSoC5/SD_FIlesystem_SPI0.c **** 
 568:.\Generated_Source\PSoC5/SD_FIlesystem_SPI0.c **** 
 569:.\Generated_Source\PSoC5/SD_FIlesystem_SPI0.c **** /*******************************************************************************
 570:.\Generated_Source\PSoC5/SD_FIlesystem_SPI0.c **** * Function Name: SD_FIlesystem_SPI0_ReadRxData
 571:.\Generated_Source\PSoC5/SD_FIlesystem_SPI0.c **** ********************************************************************************
 572:.\Generated_Source\PSoC5/SD_FIlesystem_SPI0.c **** *
 573:.\Generated_Source\PSoC5/SD_FIlesystem_SPI0.c **** * Summary:
 574:.\Generated_Source\PSoC5/SD_FIlesystem_SPI0.c **** *  Read the next byte of data received across the SPI.
 575:.\Generated_Source\PSoC5/SD_FIlesystem_SPI0.c **** *
 576:.\Generated_Source\PSoC5/SD_FIlesystem_SPI0.c **** * Parameters:
 577:.\Generated_Source\PSoC5/SD_FIlesystem_SPI0.c **** *  None.
 578:.\Generated_Source\PSoC5/SD_FIlesystem_SPI0.c **** *
 579:.\Generated_Source\PSoC5/SD_FIlesystem_SPI0.c **** * Return:
 580:.\Generated_Source\PSoC5/SD_FIlesystem_SPI0.c **** *  The next byte of data read from the FIFO.
 581:.\Generated_Source\PSoC5/SD_FIlesystem_SPI0.c **** *
 582:.\Generated_Source\PSoC5/SD_FIlesystem_SPI0.c **** * Global variables:
 583:.\Generated_Source\PSoC5/SD_FIlesystem_SPI0.c **** *  SD_FIlesystem_SPI0_rxBufferWrite - used for the account of the bytes which
 584:.\Generated_Source\PSoC5/SD_FIlesystem_SPI0.c **** *  have been written down in the RX software buffer.
 585:.\Generated_Source\PSoC5/SD_FIlesystem_SPI0.c **** *  SD_FIlesystem_SPI0_rxBufferRead - used for the account of the bytes which
 586:.\Generated_Source\PSoC5/SD_FIlesystem_SPI0.c **** *  have been read from the RX software buffer, modified every function
 587:.\Generated_Source\PSoC5/SD_FIlesystem_SPI0.c **** *  call if RX Software Buffer is used.
 588:.\Generated_Source\PSoC5/SD_FIlesystem_SPI0.c **** *  SD_FIlesystem_SPI0_rxBuffer[SD_FIlesystem_SPI0_RX_BUFFER_SIZE] - used to store
 589:.\Generated_Source\PSoC5/SD_FIlesystem_SPI0.c **** *  received data.
 590:.\Generated_Source\PSoC5/SD_FIlesystem_SPI0.c **** *
 591:.\Generated_Source\PSoC5/SD_FIlesystem_SPI0.c **** * Theory:
 592:.\Generated_Source\PSoC5/SD_FIlesystem_SPI0.c **** *  Allows the user to read a byte of data received.
 593:.\Generated_Source\PSoC5/SD_FIlesystem_SPI0.c **** *
 594:.\Generated_Source\PSoC5/SD_FIlesystem_SPI0.c **** * Side Effects:
 595:.\Generated_Source\PSoC5/SD_FIlesystem_SPI0.c **** *  Will return invalid data if the FIFO is empty. The user should Call
 596:.\Generated_Source\PSoC5/SD_FIlesystem_SPI0.c **** *  GetRxBufferSize() and if it returns a non-zero value then it is safe to call
 597:.\Generated_Source\PSoC5/SD_FIlesystem_SPI0.c **** *  ReadByte() function.
 598:.\Generated_Source\PSoC5/SD_FIlesystem_SPI0.c **** *
 599:.\Generated_Source\PSoC5/SD_FIlesystem_SPI0.c **** * Reentrant:
ARM GAS  C:\Users\User\AppData\Local\Temp\ccohLGUd.s 			page 17


 600:.\Generated_Source\PSoC5/SD_FIlesystem_SPI0.c **** *  No.
 601:.\Generated_Source\PSoC5/SD_FIlesystem_SPI0.c **** *
 602:.\Generated_Source\PSoC5/SD_FIlesystem_SPI0.c **** *******************************************************************************/
 603:.\Generated_Source\PSoC5/SD_FIlesystem_SPI0.c **** uint8 SD_FIlesystem_SPI0_ReadRxData(void) 
 604:.\Generated_Source\PSoC5/SD_FIlesystem_SPI0.c **** {
 314              		.loc 1 604 0
 315              		.cfi_startproc
 316              		@ args = 0, pretend = 0, frame = 0
 317              		@ frame_needed = 0, uses_anonymous_args = 0
 318              		@ link register save eliminated.
 605:.\Generated_Source\PSoC5/SD_FIlesystem_SPI0.c ****     uint8 rxData;
 606:.\Generated_Source\PSoC5/SD_FIlesystem_SPI0.c **** 
 607:.\Generated_Source\PSoC5/SD_FIlesystem_SPI0.c ****     #if(SD_FIlesystem_SPI0_RX_SOFTWARE_BUF_ENABLED)
 608:.\Generated_Source\PSoC5/SD_FIlesystem_SPI0.c **** 
 609:.\Generated_Source\PSoC5/SD_FIlesystem_SPI0.c ****         /* Disable RX interrupt to protect global veriables */
 610:.\Generated_Source\PSoC5/SD_FIlesystem_SPI0.c ****         SD_FIlesystem_SPI0_DisableRxInt();
 611:.\Generated_Source\PSoC5/SD_FIlesystem_SPI0.c **** 
 612:.\Generated_Source\PSoC5/SD_FIlesystem_SPI0.c ****         if(SD_FIlesystem_SPI0_rxBufferRead != SD_FIlesystem_SPI0_rxBufferWrite)
 613:.\Generated_Source\PSoC5/SD_FIlesystem_SPI0.c ****         {
 614:.\Generated_Source\PSoC5/SD_FIlesystem_SPI0.c ****             if(0u == SD_FIlesystem_SPI0_rxBufferFull)
 615:.\Generated_Source\PSoC5/SD_FIlesystem_SPI0.c ****             {
 616:.\Generated_Source\PSoC5/SD_FIlesystem_SPI0.c ****                 SD_FIlesystem_SPI0_rxBufferRead++;
 617:.\Generated_Source\PSoC5/SD_FIlesystem_SPI0.c ****                 if(SD_FIlesystem_SPI0_rxBufferRead >= SD_FIlesystem_SPI0_RX_BUFFER_SIZE)
 618:.\Generated_Source\PSoC5/SD_FIlesystem_SPI0.c ****                 {
 619:.\Generated_Source\PSoC5/SD_FIlesystem_SPI0.c ****                     SD_FIlesystem_SPI0_rxBufferRead = 0u;
 620:.\Generated_Source\PSoC5/SD_FIlesystem_SPI0.c ****                 }
 621:.\Generated_Source\PSoC5/SD_FIlesystem_SPI0.c ****             }
 622:.\Generated_Source\PSoC5/SD_FIlesystem_SPI0.c ****             else
 623:.\Generated_Source\PSoC5/SD_FIlesystem_SPI0.c ****             {
 624:.\Generated_Source\PSoC5/SD_FIlesystem_SPI0.c ****                 SD_FIlesystem_SPI0_rxBufferFull = 0u;
 625:.\Generated_Source\PSoC5/SD_FIlesystem_SPI0.c ****             }
 626:.\Generated_Source\PSoC5/SD_FIlesystem_SPI0.c ****         }
 627:.\Generated_Source\PSoC5/SD_FIlesystem_SPI0.c **** 
 628:.\Generated_Source\PSoC5/SD_FIlesystem_SPI0.c ****         rxData = SD_FIlesystem_SPI0_rxBuffer[SD_FIlesystem_SPI0_rxBufferRead];
 629:.\Generated_Source\PSoC5/SD_FIlesystem_SPI0.c **** 
 630:.\Generated_Source\PSoC5/SD_FIlesystem_SPI0.c ****         SD_FIlesystem_SPI0_EnableRxInt();
 631:.\Generated_Source\PSoC5/SD_FIlesystem_SPI0.c **** 
 632:.\Generated_Source\PSoC5/SD_FIlesystem_SPI0.c ****     #else
 633:.\Generated_Source\PSoC5/SD_FIlesystem_SPI0.c **** 
 634:.\Generated_Source\PSoC5/SD_FIlesystem_SPI0.c ****         rxData = CY_GET_REG8(SD_FIlesystem_SPI0_RXDATA_PTR);
 319              		.loc 1 634 0
 320 0000 014B     		ldr	r3, .L30
 321 0002 1878     		ldrb	r0, [r3]	@ zero_extendqisi2
 322              	.LVL9:
 635:.\Generated_Source\PSoC5/SD_FIlesystem_SPI0.c **** 
 636:.\Generated_Source\PSoC5/SD_FIlesystem_SPI0.c ****     #endif /* (SD_FIlesystem_SPI0_RX_SOFTWARE_BUF_ENABLED) */
 637:.\Generated_Source\PSoC5/SD_FIlesystem_SPI0.c **** 
 638:.\Generated_Source\PSoC5/SD_FIlesystem_SPI0.c ****     return(rxData);
 639:.\Generated_Source\PSoC5/SD_FIlesystem_SPI0.c **** }
 323              		.loc 1 639 0
 324 0004 7047     		bx	lr
 325              	.L31:
 326 0006 00BF     		.align	2
 327              	.L30:
 328 0008 55640040 		.word	1073767509
 329              		.cfi_endproc
 330              	.LFE13:
ARM GAS  C:\Users\User\AppData\Local\Temp\ccohLGUd.s 			page 18


 331              		.size	SD_FIlesystem_SPI0_ReadRxData, .-SD_FIlesystem_SPI0_ReadRxData
 332              		.section	.text.SD_FIlesystem_SPI0_GetRxBufferSize,"ax",%progbits
 333              		.align	2
 334              		.global	SD_FIlesystem_SPI0_GetRxBufferSize
 335              		.thumb
 336              		.thumb_func
 337              		.type	SD_FIlesystem_SPI0_GetRxBufferSize, %function
 338              	SD_FIlesystem_SPI0_GetRxBufferSize:
 339              	.LFB14:
 640:.\Generated_Source\PSoC5/SD_FIlesystem_SPI0.c **** 
 641:.\Generated_Source\PSoC5/SD_FIlesystem_SPI0.c **** 
 642:.\Generated_Source\PSoC5/SD_FIlesystem_SPI0.c **** /*******************************************************************************
 643:.\Generated_Source\PSoC5/SD_FIlesystem_SPI0.c **** * Function Name: SD_FIlesystem_SPI0_GetRxBufferSize
 644:.\Generated_Source\PSoC5/SD_FIlesystem_SPI0.c **** ********************************************************************************
 645:.\Generated_Source\PSoC5/SD_FIlesystem_SPI0.c **** *
 646:.\Generated_Source\PSoC5/SD_FIlesystem_SPI0.c **** * Summary:
 647:.\Generated_Source\PSoC5/SD_FIlesystem_SPI0.c **** *  Returns the number of bytes/words of data currently held in the RX buffer.
 648:.\Generated_Source\PSoC5/SD_FIlesystem_SPI0.c **** *  If RX Software Buffer not used then function return 0 if FIFO empty or 1 if
 649:.\Generated_Source\PSoC5/SD_FIlesystem_SPI0.c **** *  FIFO not empty. In another case function return size of RX Software Buffer.
 650:.\Generated_Source\PSoC5/SD_FIlesystem_SPI0.c **** *
 651:.\Generated_Source\PSoC5/SD_FIlesystem_SPI0.c **** * Parameters:
 652:.\Generated_Source\PSoC5/SD_FIlesystem_SPI0.c **** *  None.
 653:.\Generated_Source\PSoC5/SD_FIlesystem_SPI0.c **** *
 654:.\Generated_Source\PSoC5/SD_FIlesystem_SPI0.c **** * Return:
 655:.\Generated_Source\PSoC5/SD_FIlesystem_SPI0.c **** *  Integer count of the number of bytes/words in the RX buffer.
 656:.\Generated_Source\PSoC5/SD_FIlesystem_SPI0.c **** *
 657:.\Generated_Source\PSoC5/SD_FIlesystem_SPI0.c **** * Global variables:
 658:.\Generated_Source\PSoC5/SD_FIlesystem_SPI0.c **** *  SD_FIlesystem_SPI0_rxBufferWrite - used for the account of the bytes which
 659:.\Generated_Source\PSoC5/SD_FIlesystem_SPI0.c **** *  have been written down in the RX software buffer.
 660:.\Generated_Source\PSoC5/SD_FIlesystem_SPI0.c **** *  SD_FIlesystem_SPI0_rxBufferRead - used for the account of the bytes which
 661:.\Generated_Source\PSoC5/SD_FIlesystem_SPI0.c **** *  have been read from the RX software buffer.
 662:.\Generated_Source\PSoC5/SD_FIlesystem_SPI0.c **** *
 663:.\Generated_Source\PSoC5/SD_FIlesystem_SPI0.c **** * Side Effects:
 664:.\Generated_Source\PSoC5/SD_FIlesystem_SPI0.c **** *  Clear status register of the component.
 665:.\Generated_Source\PSoC5/SD_FIlesystem_SPI0.c **** *
 666:.\Generated_Source\PSoC5/SD_FIlesystem_SPI0.c **** *******************************************************************************/
 667:.\Generated_Source\PSoC5/SD_FIlesystem_SPI0.c **** uint8 SD_FIlesystem_SPI0_GetRxBufferSize(void) 
 668:.\Generated_Source\PSoC5/SD_FIlesystem_SPI0.c **** {
 340              		.loc 1 668 0
 341              		.cfi_startproc
 342              		@ args = 0, pretend = 0, frame = 0
 343              		@ frame_needed = 0, uses_anonymous_args = 0
 344              		@ link register save eliminated.
 669:.\Generated_Source\PSoC5/SD_FIlesystem_SPI0.c ****     uint8 size;
 670:.\Generated_Source\PSoC5/SD_FIlesystem_SPI0.c **** 
 671:.\Generated_Source\PSoC5/SD_FIlesystem_SPI0.c ****     #if(SD_FIlesystem_SPI0_RX_SOFTWARE_BUF_ENABLED)
 672:.\Generated_Source\PSoC5/SD_FIlesystem_SPI0.c **** 
 673:.\Generated_Source\PSoC5/SD_FIlesystem_SPI0.c ****         /* Disable RX interrupt to protect global veriables */
 674:.\Generated_Source\PSoC5/SD_FIlesystem_SPI0.c ****         SD_FIlesystem_SPI0_DisableRxInt();
 675:.\Generated_Source\PSoC5/SD_FIlesystem_SPI0.c **** 
 676:.\Generated_Source\PSoC5/SD_FIlesystem_SPI0.c ****         if(SD_FIlesystem_SPI0_rxBufferRead == SD_FIlesystem_SPI0_rxBufferWrite)
 677:.\Generated_Source\PSoC5/SD_FIlesystem_SPI0.c ****         {
 678:.\Generated_Source\PSoC5/SD_FIlesystem_SPI0.c ****             size = 0u;
 679:.\Generated_Source\PSoC5/SD_FIlesystem_SPI0.c ****         }
 680:.\Generated_Source\PSoC5/SD_FIlesystem_SPI0.c ****         else if(SD_FIlesystem_SPI0_rxBufferRead < SD_FIlesystem_SPI0_rxBufferWrite)
 681:.\Generated_Source\PSoC5/SD_FIlesystem_SPI0.c ****         {
 682:.\Generated_Source\PSoC5/SD_FIlesystem_SPI0.c ****             size = (SD_FIlesystem_SPI0_rxBufferWrite - SD_FIlesystem_SPI0_rxBufferRead);
ARM GAS  C:\Users\User\AppData\Local\Temp\ccohLGUd.s 			page 19


 683:.\Generated_Source\PSoC5/SD_FIlesystem_SPI0.c ****         }
 684:.\Generated_Source\PSoC5/SD_FIlesystem_SPI0.c ****         else
 685:.\Generated_Source\PSoC5/SD_FIlesystem_SPI0.c ****         {
 686:.\Generated_Source\PSoC5/SD_FIlesystem_SPI0.c ****             size = (SD_FIlesystem_SPI0_RX_BUFFER_SIZE - SD_FIlesystem_SPI0_rxBufferRead) + SD_FIles
 687:.\Generated_Source\PSoC5/SD_FIlesystem_SPI0.c ****         }
 688:.\Generated_Source\PSoC5/SD_FIlesystem_SPI0.c **** 
 689:.\Generated_Source\PSoC5/SD_FIlesystem_SPI0.c ****         SD_FIlesystem_SPI0_EnableRxInt();
 690:.\Generated_Source\PSoC5/SD_FIlesystem_SPI0.c **** 
 691:.\Generated_Source\PSoC5/SD_FIlesystem_SPI0.c ****     #else
 692:.\Generated_Source\PSoC5/SD_FIlesystem_SPI0.c **** 
 693:.\Generated_Source\PSoC5/SD_FIlesystem_SPI0.c ****         /* We can only know if there is data in the RX FIFO */
 694:.\Generated_Source\PSoC5/SD_FIlesystem_SPI0.c ****         size = (0u != (SD_FIlesystem_SPI0_RX_STATUS_REG & SD_FIlesystem_SPI0_STS_RX_FIFO_NOT_EMPTY)
 345              		.loc 1 694 0
 346 0000 044B     		ldr	r3, .L35
 347 0002 1B78     		ldrb	r3, [r3]	@ zero_extendqisi2
 348 0004 13F0200F 		tst	r3, #32
 349 0008 01D0     		beq	.L34
 350 000a 0120     		movs	r0, #1
 351 000c 7047     		bx	lr
 352              	.L34:
 353 000e 0020     		movs	r0, #0
 354              	.LVL10:
 695:.\Generated_Source\PSoC5/SD_FIlesystem_SPI0.c **** 
 696:.\Generated_Source\PSoC5/SD_FIlesystem_SPI0.c ****     #endif /* (SD_FIlesystem_SPI0_TX_SOFTWARE_BUF_ENABLED) */
 697:.\Generated_Source\PSoC5/SD_FIlesystem_SPI0.c **** 
 698:.\Generated_Source\PSoC5/SD_FIlesystem_SPI0.c ****     return(size);
 699:.\Generated_Source\PSoC5/SD_FIlesystem_SPI0.c **** }
 355              		.loc 1 699 0
 356 0010 7047     		bx	lr
 357              	.L36:
 358 0012 00BF     		.align	2
 359              	.L35:
 360 0014 66650040 		.word	1073767782
 361              		.cfi_endproc
 362              	.LFE14:
 363              		.size	SD_FIlesystem_SPI0_GetRxBufferSize, .-SD_FIlesystem_SPI0_GetRxBufferSize
 364              		.section	.text.SD_FIlesystem_SPI0_GetTxBufferSize,"ax",%progbits
 365              		.align	2
 366              		.global	SD_FIlesystem_SPI0_GetTxBufferSize
 367              		.thumb
 368              		.thumb_func
 369              		.type	SD_FIlesystem_SPI0_GetTxBufferSize, %function
 370              	SD_FIlesystem_SPI0_GetTxBufferSize:
 371              	.LFB15:
 700:.\Generated_Source\PSoC5/SD_FIlesystem_SPI0.c **** 
 701:.\Generated_Source\PSoC5/SD_FIlesystem_SPI0.c **** 
 702:.\Generated_Source\PSoC5/SD_FIlesystem_SPI0.c **** /*******************************************************************************
 703:.\Generated_Source\PSoC5/SD_FIlesystem_SPI0.c **** * Function Name: SD_FIlesystem_SPI0_GetTxBufferSize
 704:.\Generated_Source\PSoC5/SD_FIlesystem_SPI0.c **** ********************************************************************************
 705:.\Generated_Source\PSoC5/SD_FIlesystem_SPI0.c **** *
 706:.\Generated_Source\PSoC5/SD_FIlesystem_SPI0.c **** * Summary:
 707:.\Generated_Source\PSoC5/SD_FIlesystem_SPI0.c **** *  Returns the number of bytes/words of data currently held in the TX buffer.
 708:.\Generated_Source\PSoC5/SD_FIlesystem_SPI0.c **** *  If TX Software Buffer not used then function return 0 - if FIFO empty, 1 - if
 709:.\Generated_Source\PSoC5/SD_FIlesystem_SPI0.c **** *  FIFO not full, 4 - if FIFO full. In another case function return size of TX
 710:.\Generated_Source\PSoC5/SD_FIlesystem_SPI0.c **** *  Software Buffer.
 711:.\Generated_Source\PSoC5/SD_FIlesystem_SPI0.c **** *
 712:.\Generated_Source\PSoC5/SD_FIlesystem_SPI0.c **** * Parameters:
ARM GAS  C:\Users\User\AppData\Local\Temp\ccohLGUd.s 			page 20


 713:.\Generated_Source\PSoC5/SD_FIlesystem_SPI0.c **** *  None.
 714:.\Generated_Source\PSoC5/SD_FIlesystem_SPI0.c **** *
 715:.\Generated_Source\PSoC5/SD_FIlesystem_SPI0.c **** * Return:
 716:.\Generated_Source\PSoC5/SD_FIlesystem_SPI0.c **** *  Integer count of the number of bytes/words in the TX buffer.
 717:.\Generated_Source\PSoC5/SD_FIlesystem_SPI0.c **** *
 718:.\Generated_Source\PSoC5/SD_FIlesystem_SPI0.c **** * Global variables:
 719:.\Generated_Source\PSoC5/SD_FIlesystem_SPI0.c **** *  SD_FIlesystem_SPI0_txBufferWrite - used for the account of the bytes which
 720:.\Generated_Source\PSoC5/SD_FIlesystem_SPI0.c **** *  have been written down in the TX software buffer.
 721:.\Generated_Source\PSoC5/SD_FIlesystem_SPI0.c **** *  SD_FIlesystem_SPI0_txBufferRead - used for the account of the bytes which
 722:.\Generated_Source\PSoC5/SD_FIlesystem_SPI0.c **** *  have been read from the TX software buffer.
 723:.\Generated_Source\PSoC5/SD_FIlesystem_SPI0.c **** *
 724:.\Generated_Source\PSoC5/SD_FIlesystem_SPI0.c **** * Side Effects:
 725:.\Generated_Source\PSoC5/SD_FIlesystem_SPI0.c **** *  Clear status register of the component.
 726:.\Generated_Source\PSoC5/SD_FIlesystem_SPI0.c **** *
 727:.\Generated_Source\PSoC5/SD_FIlesystem_SPI0.c **** *******************************************************************************/
 728:.\Generated_Source\PSoC5/SD_FIlesystem_SPI0.c **** uint8  SD_FIlesystem_SPI0_GetTxBufferSize(void) 
 729:.\Generated_Source\PSoC5/SD_FIlesystem_SPI0.c **** {
 372              		.loc 1 729 0
 373              		.cfi_startproc
 374              		@ args = 0, pretend = 0, frame = 0
 375              		@ frame_needed = 0, uses_anonymous_args = 0
 376              		@ link register save eliminated.
 730:.\Generated_Source\PSoC5/SD_FIlesystem_SPI0.c ****     uint8 size;
 731:.\Generated_Source\PSoC5/SD_FIlesystem_SPI0.c **** 
 732:.\Generated_Source\PSoC5/SD_FIlesystem_SPI0.c ****     #if(SD_FIlesystem_SPI0_TX_SOFTWARE_BUF_ENABLED)
 733:.\Generated_Source\PSoC5/SD_FIlesystem_SPI0.c ****         /* Disable TX interrupt to protect global veriables */
 734:.\Generated_Source\PSoC5/SD_FIlesystem_SPI0.c ****         SD_FIlesystem_SPI0_DisableTxInt();
 735:.\Generated_Source\PSoC5/SD_FIlesystem_SPI0.c **** 
 736:.\Generated_Source\PSoC5/SD_FIlesystem_SPI0.c ****         if(SD_FIlesystem_SPI0_txBufferRead == SD_FIlesystem_SPI0_txBufferWrite)
 737:.\Generated_Source\PSoC5/SD_FIlesystem_SPI0.c ****         {
 738:.\Generated_Source\PSoC5/SD_FIlesystem_SPI0.c ****             size = 0u;
 739:.\Generated_Source\PSoC5/SD_FIlesystem_SPI0.c ****         }
 740:.\Generated_Source\PSoC5/SD_FIlesystem_SPI0.c ****         else if(SD_FIlesystem_SPI0_txBufferRead < SD_FIlesystem_SPI0_txBufferWrite)
 741:.\Generated_Source\PSoC5/SD_FIlesystem_SPI0.c ****         {
 742:.\Generated_Source\PSoC5/SD_FIlesystem_SPI0.c ****             size = (SD_FIlesystem_SPI0_txBufferWrite - SD_FIlesystem_SPI0_txBufferRead);
 743:.\Generated_Source\PSoC5/SD_FIlesystem_SPI0.c ****         }
 744:.\Generated_Source\PSoC5/SD_FIlesystem_SPI0.c ****         else
 745:.\Generated_Source\PSoC5/SD_FIlesystem_SPI0.c ****         {
 746:.\Generated_Source\PSoC5/SD_FIlesystem_SPI0.c ****             size = (SD_FIlesystem_SPI0_TX_BUFFER_SIZE - SD_FIlesystem_SPI0_txBufferRead) + SD_FIles
 747:.\Generated_Source\PSoC5/SD_FIlesystem_SPI0.c ****         }
 748:.\Generated_Source\PSoC5/SD_FIlesystem_SPI0.c **** 
 749:.\Generated_Source\PSoC5/SD_FIlesystem_SPI0.c ****         SD_FIlesystem_SPI0_EnableTxInt();
 750:.\Generated_Source\PSoC5/SD_FIlesystem_SPI0.c **** 
 751:.\Generated_Source\PSoC5/SD_FIlesystem_SPI0.c ****     #else
 752:.\Generated_Source\PSoC5/SD_FIlesystem_SPI0.c **** 
 753:.\Generated_Source\PSoC5/SD_FIlesystem_SPI0.c ****         size = SD_FIlesystem_SPI0_TX_STATUS_REG;
 377              		.loc 1 753 0
 378 0000 074B     		ldr	r3, .L41
 379 0002 1B78     		ldrb	r3, [r3]	@ zero_extendqisi2
 380 0004 DBB2     		uxtb	r3, r3
 381              	.LVL11:
 754:.\Generated_Source\PSoC5/SD_FIlesystem_SPI0.c **** 
 755:.\Generated_Source\PSoC5/SD_FIlesystem_SPI0.c ****         if(0u != (size & SD_FIlesystem_SPI0_STS_TX_FIFO_EMPTY))
 382              		.loc 1 755 0
 383 0006 13F0020F 		tst	r3, #2
 384 000a 04D1     		bne	.L39
 756:.\Generated_Source\PSoC5/SD_FIlesystem_SPI0.c ****         {
ARM GAS  C:\Users\User\AppData\Local\Temp\ccohLGUd.s 			page 21


 757:.\Generated_Source\PSoC5/SD_FIlesystem_SPI0.c ****             size = 0u;
 758:.\Generated_Source\PSoC5/SD_FIlesystem_SPI0.c ****         }
 759:.\Generated_Source\PSoC5/SD_FIlesystem_SPI0.c ****         else if(0u != (size & SD_FIlesystem_SPI0_STS_TX_FIFO_NOT_FULL))
 385              		.loc 1 759 0
 386 000c 13F0040F 		tst	r3, #4
 387 0010 03D0     		beq	.L40
 760:.\Generated_Source\PSoC5/SD_FIlesystem_SPI0.c ****         {
 761:.\Generated_Source\PSoC5/SD_FIlesystem_SPI0.c ****             size = 1u;
 388              		.loc 1 761 0
 389 0012 0120     		movs	r0, #1
 390 0014 7047     		bx	lr
 391              	.L39:
 757:.\Generated_Source\PSoC5/SD_FIlesystem_SPI0.c ****         }
 392              		.loc 1 757 0
 393 0016 0020     		movs	r0, #0
 394 0018 7047     		bx	lr
 395              	.L40:
 762:.\Generated_Source\PSoC5/SD_FIlesystem_SPI0.c ****         }
 763:.\Generated_Source\PSoC5/SD_FIlesystem_SPI0.c ****         else
 764:.\Generated_Source\PSoC5/SD_FIlesystem_SPI0.c ****         {
 765:.\Generated_Source\PSoC5/SD_FIlesystem_SPI0.c ****             size = SD_FIlesystem_SPI0_FIFO_SIZE;
 396              		.loc 1 765 0
 397 001a 0420     		movs	r0, #4
 398              	.LVL12:
 766:.\Generated_Source\PSoC5/SD_FIlesystem_SPI0.c ****         }
 767:.\Generated_Source\PSoC5/SD_FIlesystem_SPI0.c **** 
 768:.\Generated_Source\PSoC5/SD_FIlesystem_SPI0.c ****     #endif /* (SD_FIlesystem_SPI0_TX_SOFTWARE_BUF_ENABLED) */
 769:.\Generated_Source\PSoC5/SD_FIlesystem_SPI0.c **** 
 770:.\Generated_Source\PSoC5/SD_FIlesystem_SPI0.c ****     return(size);
 771:.\Generated_Source\PSoC5/SD_FIlesystem_SPI0.c **** }
 399              		.loc 1 771 0
 400 001c 7047     		bx	lr
 401              	.L42:
 402 001e 00BF     		.align	2
 403              	.L41:
 404 0020 67650040 		.word	1073767783
 405              		.cfi_endproc
 406              	.LFE15:
 407              		.size	SD_FIlesystem_SPI0_GetTxBufferSize, .-SD_FIlesystem_SPI0_GetTxBufferSize
 408              		.section	.text.SD_FIlesystem_SPI0_ClearRxBuffer,"ax",%progbits
 409              		.align	2
 410              		.global	SD_FIlesystem_SPI0_ClearRxBuffer
 411              		.thumb
 412              		.thumb_func
 413              		.type	SD_FIlesystem_SPI0_ClearRxBuffer, %function
 414              	SD_FIlesystem_SPI0_ClearRxBuffer:
 415              	.LFB16:
 772:.\Generated_Source\PSoC5/SD_FIlesystem_SPI0.c **** 
 773:.\Generated_Source\PSoC5/SD_FIlesystem_SPI0.c **** 
 774:.\Generated_Source\PSoC5/SD_FIlesystem_SPI0.c **** /*******************************************************************************
 775:.\Generated_Source\PSoC5/SD_FIlesystem_SPI0.c **** * Function Name: SD_FIlesystem_SPI0_ClearRxBuffer
 776:.\Generated_Source\PSoC5/SD_FIlesystem_SPI0.c **** ********************************************************************************
 777:.\Generated_Source\PSoC5/SD_FIlesystem_SPI0.c **** *
 778:.\Generated_Source\PSoC5/SD_FIlesystem_SPI0.c **** * Summary:
 779:.\Generated_Source\PSoC5/SD_FIlesystem_SPI0.c **** *  Clear the RX RAM buffer by setting the read and write pointers both to zero.
 780:.\Generated_Source\PSoC5/SD_FIlesystem_SPI0.c **** *
 781:.\Generated_Source\PSoC5/SD_FIlesystem_SPI0.c **** * Parameters:
ARM GAS  C:\Users\User\AppData\Local\Temp\ccohLGUd.s 			page 22


 782:.\Generated_Source\PSoC5/SD_FIlesystem_SPI0.c **** *  None.
 783:.\Generated_Source\PSoC5/SD_FIlesystem_SPI0.c **** *
 784:.\Generated_Source\PSoC5/SD_FIlesystem_SPI0.c **** * Return:
 785:.\Generated_Source\PSoC5/SD_FIlesystem_SPI0.c **** *  None.
 786:.\Generated_Source\PSoC5/SD_FIlesystem_SPI0.c **** *
 787:.\Generated_Source\PSoC5/SD_FIlesystem_SPI0.c **** * Global variables:
 788:.\Generated_Source\PSoC5/SD_FIlesystem_SPI0.c **** *  SD_FIlesystem_SPI0_rxBufferWrite - used for the account of the bytes which
 789:.\Generated_Source\PSoC5/SD_FIlesystem_SPI0.c **** *  have been written down in the RX software buffer, modified every function
 790:.\Generated_Source\PSoC5/SD_FIlesystem_SPI0.c **** *  call - resets to zero.
 791:.\Generated_Source\PSoC5/SD_FIlesystem_SPI0.c **** *  SD_FIlesystem_SPI0_rxBufferRead - used for the account of the bytes which
 792:.\Generated_Source\PSoC5/SD_FIlesystem_SPI0.c **** *  have been read from the RX software buffer, modified every function call -
 793:.\Generated_Source\PSoC5/SD_FIlesystem_SPI0.c **** *  resets to zero.
 794:.\Generated_Source\PSoC5/SD_FIlesystem_SPI0.c **** *
 795:.\Generated_Source\PSoC5/SD_FIlesystem_SPI0.c **** * Theory:
 796:.\Generated_Source\PSoC5/SD_FIlesystem_SPI0.c **** *  Setting the pointers to zero makes the system believe there is no data to
 797:.\Generated_Source\PSoC5/SD_FIlesystem_SPI0.c **** *  read and writing will resume at address 0 overwriting any data that may have
 798:.\Generated_Source\PSoC5/SD_FIlesystem_SPI0.c **** *  remained in the RAM.
 799:.\Generated_Source\PSoC5/SD_FIlesystem_SPI0.c **** *
 800:.\Generated_Source\PSoC5/SD_FIlesystem_SPI0.c **** * Side Effects:
 801:.\Generated_Source\PSoC5/SD_FIlesystem_SPI0.c **** *  Any received data not read from the RAM buffer will be lost when overwritten.
 802:.\Generated_Source\PSoC5/SD_FIlesystem_SPI0.c **** *
 803:.\Generated_Source\PSoC5/SD_FIlesystem_SPI0.c **** * Reentrant:
 804:.\Generated_Source\PSoC5/SD_FIlesystem_SPI0.c **** *  No.
 805:.\Generated_Source\PSoC5/SD_FIlesystem_SPI0.c **** *
 806:.\Generated_Source\PSoC5/SD_FIlesystem_SPI0.c **** *******************************************************************************/
 807:.\Generated_Source\PSoC5/SD_FIlesystem_SPI0.c **** void SD_FIlesystem_SPI0_ClearRxBuffer(void) 
 808:.\Generated_Source\PSoC5/SD_FIlesystem_SPI0.c **** {
 416              		.loc 1 808 0
 417              		.cfi_startproc
 418              		@ args = 0, pretend = 0, frame = 0
 419              		@ frame_needed = 0, uses_anonymous_args = 0
 420              		@ link register save eliminated.
 809:.\Generated_Source\PSoC5/SD_FIlesystem_SPI0.c ****     /* Clear Hardware RX FIFO */
 810:.\Generated_Source\PSoC5/SD_FIlesystem_SPI0.c ****     while(0u !=(SD_FIlesystem_SPI0_RX_STATUS_REG & SD_FIlesystem_SPI0_STS_RX_FIFO_NOT_EMPTY))
 421              		.loc 1 810 0
 422 0000 01E0     		b	.L44
 423              	.L45:
 811:.\Generated_Source\PSoC5/SD_FIlesystem_SPI0.c ****     {
 812:.\Generated_Source\PSoC5/SD_FIlesystem_SPI0.c ****         (void) CY_GET_REG8(SD_FIlesystem_SPI0_RXDATA_PTR);
 424              		.loc 1 812 0
 425 0002 044B     		ldr	r3, .L46
 426 0004 1B78     		ldrb	r3, [r3]	@ zero_extendqisi2
 427              	.L44:
 810:.\Generated_Source\PSoC5/SD_FIlesystem_SPI0.c ****     {
 428              		.loc 1 810 0
 429 0006 044B     		ldr	r3, .L46+4
 430 0008 1B78     		ldrb	r3, [r3]	@ zero_extendqisi2
 431 000a 13F0200F 		tst	r3, #32
 432 000e F8D1     		bne	.L45
 813:.\Generated_Source\PSoC5/SD_FIlesystem_SPI0.c ****     }
 814:.\Generated_Source\PSoC5/SD_FIlesystem_SPI0.c **** 
 815:.\Generated_Source\PSoC5/SD_FIlesystem_SPI0.c ****     #if(SD_FIlesystem_SPI0_RX_SOFTWARE_BUF_ENABLED)
 816:.\Generated_Source\PSoC5/SD_FIlesystem_SPI0.c ****         /* Disable RX interrupt to protect global veriables */
 817:.\Generated_Source\PSoC5/SD_FIlesystem_SPI0.c ****         SD_FIlesystem_SPI0_DisableRxInt();
 818:.\Generated_Source\PSoC5/SD_FIlesystem_SPI0.c **** 
 819:.\Generated_Source\PSoC5/SD_FIlesystem_SPI0.c ****         SD_FIlesystem_SPI0_rxBufferFull  = 0u;
 820:.\Generated_Source\PSoC5/SD_FIlesystem_SPI0.c ****         SD_FIlesystem_SPI0_rxBufferRead  = 0u;
ARM GAS  C:\Users\User\AppData\Local\Temp\ccohLGUd.s 			page 23


 821:.\Generated_Source\PSoC5/SD_FIlesystem_SPI0.c ****         SD_FIlesystem_SPI0_rxBufferWrite = 0u;
 822:.\Generated_Source\PSoC5/SD_FIlesystem_SPI0.c **** 
 823:.\Generated_Source\PSoC5/SD_FIlesystem_SPI0.c ****         SD_FIlesystem_SPI0_EnableRxInt();
 824:.\Generated_Source\PSoC5/SD_FIlesystem_SPI0.c ****     #endif /* (SD_FIlesystem_SPI0_RX_SOFTWARE_BUF_ENABLED) */
 825:.\Generated_Source\PSoC5/SD_FIlesystem_SPI0.c **** }
 433              		.loc 1 825 0
 434 0010 7047     		bx	lr
 435              	.L47:
 436 0012 00BF     		.align	2
 437              	.L46:
 438 0014 55640040 		.word	1073767509
 439 0018 66650040 		.word	1073767782
 440              		.cfi_endproc
 441              	.LFE16:
 442              		.size	SD_FIlesystem_SPI0_ClearRxBuffer, .-SD_FIlesystem_SPI0_ClearRxBuffer
 443              		.section	.text.SD_FIlesystem_SPI0_ClearTxBuffer,"ax",%progbits
 444              		.align	2
 445              		.global	SD_FIlesystem_SPI0_ClearTxBuffer
 446              		.thumb
 447              		.thumb_func
 448              		.type	SD_FIlesystem_SPI0_ClearTxBuffer, %function
 449              	SD_FIlesystem_SPI0_ClearTxBuffer:
 450              	.LFB17:
 826:.\Generated_Source\PSoC5/SD_FIlesystem_SPI0.c **** 
 827:.\Generated_Source\PSoC5/SD_FIlesystem_SPI0.c **** 
 828:.\Generated_Source\PSoC5/SD_FIlesystem_SPI0.c **** /*******************************************************************************
 829:.\Generated_Source\PSoC5/SD_FIlesystem_SPI0.c **** * Function Name: SD_FIlesystem_SPI0_ClearTxBuffer
 830:.\Generated_Source\PSoC5/SD_FIlesystem_SPI0.c **** ********************************************************************************
 831:.\Generated_Source\PSoC5/SD_FIlesystem_SPI0.c **** *
 832:.\Generated_Source\PSoC5/SD_FIlesystem_SPI0.c **** * Summary:
 833:.\Generated_Source\PSoC5/SD_FIlesystem_SPI0.c **** *  Clear the TX RAM buffer by setting the read and write pointers both to zero.
 834:.\Generated_Source\PSoC5/SD_FIlesystem_SPI0.c **** *
 835:.\Generated_Source\PSoC5/SD_FIlesystem_SPI0.c **** * Parameters:
 836:.\Generated_Source\PSoC5/SD_FIlesystem_SPI0.c **** *  None.
 837:.\Generated_Source\PSoC5/SD_FIlesystem_SPI0.c **** *
 838:.\Generated_Source\PSoC5/SD_FIlesystem_SPI0.c **** * Return:
 839:.\Generated_Source\PSoC5/SD_FIlesystem_SPI0.c **** *  None.
 840:.\Generated_Source\PSoC5/SD_FIlesystem_SPI0.c **** *
 841:.\Generated_Source\PSoC5/SD_FIlesystem_SPI0.c **** * Global variables:
 842:.\Generated_Source\PSoC5/SD_FIlesystem_SPI0.c **** *  SD_FIlesystem_SPI0_txBufferWrite - used for the account of the bytes which
 843:.\Generated_Source\PSoC5/SD_FIlesystem_SPI0.c **** *  have been written down in the TX software buffer, modified every function
 844:.\Generated_Source\PSoC5/SD_FIlesystem_SPI0.c **** *  call - resets to zero.
 845:.\Generated_Source\PSoC5/SD_FIlesystem_SPI0.c **** *  SD_FIlesystem_SPI0_txBufferRead - used for the account of the bytes which
 846:.\Generated_Source\PSoC5/SD_FIlesystem_SPI0.c **** *  have been read from the TX software buffer, modified every function call -
 847:.\Generated_Source\PSoC5/SD_FIlesystem_SPI0.c **** *  resets to zero.
 848:.\Generated_Source\PSoC5/SD_FIlesystem_SPI0.c **** *
 849:.\Generated_Source\PSoC5/SD_FIlesystem_SPI0.c **** * Theory:
 850:.\Generated_Source\PSoC5/SD_FIlesystem_SPI0.c **** *  Setting the pointers to zero makes the system believe there is no data to
 851:.\Generated_Source\PSoC5/SD_FIlesystem_SPI0.c **** *  read and writing will resume at address 0 overwriting any data that may have
 852:.\Generated_Source\PSoC5/SD_FIlesystem_SPI0.c **** *  remained in the RAM.
 853:.\Generated_Source\PSoC5/SD_FIlesystem_SPI0.c **** *
 854:.\Generated_Source\PSoC5/SD_FIlesystem_SPI0.c **** * Side Effects:
 855:.\Generated_Source\PSoC5/SD_FIlesystem_SPI0.c **** *  Any data not yet transmitted from the RAM buffer will be lost when
 856:.\Generated_Source\PSoC5/SD_FIlesystem_SPI0.c **** *  overwritten.
 857:.\Generated_Source\PSoC5/SD_FIlesystem_SPI0.c **** *
 858:.\Generated_Source\PSoC5/SD_FIlesystem_SPI0.c **** * Reentrant:
 859:.\Generated_Source\PSoC5/SD_FIlesystem_SPI0.c **** *  No.
ARM GAS  C:\Users\User\AppData\Local\Temp\ccohLGUd.s 			page 24


 860:.\Generated_Source\PSoC5/SD_FIlesystem_SPI0.c **** *
 861:.\Generated_Source\PSoC5/SD_FIlesystem_SPI0.c **** *******************************************************************************/
 862:.\Generated_Source\PSoC5/SD_FIlesystem_SPI0.c **** void SD_FIlesystem_SPI0_ClearTxBuffer(void) 
 863:.\Generated_Source\PSoC5/SD_FIlesystem_SPI0.c **** {
 451              		.loc 1 863 0
 452              		.cfi_startproc
 453              		@ args = 0, pretend = 0, frame = 0
 454              		@ frame_needed = 0, uses_anonymous_args = 0
 455 0000 08B5     		push	{r3, lr}
 456              		.cfi_def_cfa_offset 8
 457              		.cfi_offset 3, -8
 458              		.cfi_offset 14, -4
 864:.\Generated_Source\PSoC5/SD_FIlesystem_SPI0.c ****     uint8 enableInterrupts;
 865:.\Generated_Source\PSoC5/SD_FIlesystem_SPI0.c **** 
 866:.\Generated_Source\PSoC5/SD_FIlesystem_SPI0.c ****     enableInterrupts = CyEnterCriticalSection();
 459              		.loc 1 866 0
 460 0002 FFF7FEFF 		bl	CyEnterCriticalSection
 461              	.LVL13:
 867:.\Generated_Source\PSoC5/SD_FIlesystem_SPI0.c ****     /* Clear TX FIFO */
 868:.\Generated_Source\PSoC5/SD_FIlesystem_SPI0.c ****     SD_FIlesystem_SPI0_AUX_CONTROL_DP0_REG |= ((uint8)  SD_FIlesystem_SPI0_TX_FIFO_CLR);
 462              		.loc 1 868 0
 463 0006 064B     		ldr	r3, .L50
 464 0008 1A78     		ldrb	r2, [r3]	@ zero_extendqisi2
 465 000a 42F00102 		orr	r2, r2, #1
 466 000e 1A70     		strb	r2, [r3]
 869:.\Generated_Source\PSoC5/SD_FIlesystem_SPI0.c ****     SD_FIlesystem_SPI0_AUX_CONTROL_DP0_REG &= ((uint8) ~SD_FIlesystem_SPI0_TX_FIFO_CLR);
 467              		.loc 1 869 0
 468 0010 1A78     		ldrb	r2, [r3]	@ zero_extendqisi2
 469 0012 02F0FE02 		and	r2, r2, #254
 470 0016 1A70     		strb	r2, [r3]
 870:.\Generated_Source\PSoC5/SD_FIlesystem_SPI0.c **** 
 871:.\Generated_Source\PSoC5/SD_FIlesystem_SPI0.c ****     #if(SD_FIlesystem_SPI0_USE_SECOND_DATAPATH)
 872:.\Generated_Source\PSoC5/SD_FIlesystem_SPI0.c ****         /* Clear TX FIFO for 2nd Datapath */
 873:.\Generated_Source\PSoC5/SD_FIlesystem_SPI0.c ****         SD_FIlesystem_SPI0_AUX_CONTROL_DP1_REG |= ((uint8)  SD_FIlesystem_SPI0_TX_FIFO_CLR);
 874:.\Generated_Source\PSoC5/SD_FIlesystem_SPI0.c ****         SD_FIlesystem_SPI0_AUX_CONTROL_DP1_REG &= ((uint8) ~SD_FIlesystem_SPI0_TX_FIFO_CLR);
 875:.\Generated_Source\PSoC5/SD_FIlesystem_SPI0.c ****     #endif /* (SD_FIlesystem_SPI0_USE_SECOND_DATAPATH) */
 876:.\Generated_Source\PSoC5/SD_FIlesystem_SPI0.c ****     CyExitCriticalSection(enableInterrupts);
 471              		.loc 1 876 0
 472 0018 FFF7FEFF 		bl	CyExitCriticalSection
 473              	.LVL14:
 474 001c 08BD     		pop	{r3, pc}
 475              	.L51:
 476 001e 00BF     		.align	2
 477              	.L50:
 478 0020 95640040 		.word	1073767573
 479              		.cfi_endproc
 480              	.LFE17:
 481              		.size	SD_FIlesystem_SPI0_ClearTxBuffer, .-SD_FIlesystem_SPI0_ClearTxBuffer
 482              		.section	.text.SD_FIlesystem_SPI0_PutArray,"ax",%progbits
 483              		.align	2
 484              		.global	SD_FIlesystem_SPI0_PutArray
 485              		.thumb
 486              		.thumb_func
 487              		.type	SD_FIlesystem_SPI0_PutArray, %function
 488              	SD_FIlesystem_SPI0_PutArray:
 489              	.LFB18:
 877:.\Generated_Source\PSoC5/SD_FIlesystem_SPI0.c **** 
ARM GAS  C:\Users\User\AppData\Local\Temp\ccohLGUd.s 			page 25


 878:.\Generated_Source\PSoC5/SD_FIlesystem_SPI0.c ****     #if(SD_FIlesystem_SPI0_TX_SOFTWARE_BUF_ENABLED)
 879:.\Generated_Source\PSoC5/SD_FIlesystem_SPI0.c ****         /* Disable TX interrupt to protect global veriables */
 880:.\Generated_Source\PSoC5/SD_FIlesystem_SPI0.c ****         SD_FIlesystem_SPI0_DisableTxInt();
 881:.\Generated_Source\PSoC5/SD_FIlesystem_SPI0.c **** 
 882:.\Generated_Source\PSoC5/SD_FIlesystem_SPI0.c ****         SD_FIlesystem_SPI0_txBufferFull  = 0u;
 883:.\Generated_Source\PSoC5/SD_FIlesystem_SPI0.c ****         SD_FIlesystem_SPI0_txBufferRead  = 0u;
 884:.\Generated_Source\PSoC5/SD_FIlesystem_SPI0.c ****         SD_FIlesystem_SPI0_txBufferWrite = 0u;
 885:.\Generated_Source\PSoC5/SD_FIlesystem_SPI0.c **** 
 886:.\Generated_Source\PSoC5/SD_FIlesystem_SPI0.c ****         /* Buffer is EMPTY: disable TX FIFO NOT FULL interrupt */
 887:.\Generated_Source\PSoC5/SD_FIlesystem_SPI0.c ****         SD_FIlesystem_SPI0_TX_STATUS_MASK_REG &= ((uint8) ~SD_FIlesystem_SPI0_STS_TX_FIFO_NOT_FULL)
 888:.\Generated_Source\PSoC5/SD_FIlesystem_SPI0.c **** 
 889:.\Generated_Source\PSoC5/SD_FIlesystem_SPI0.c ****         SD_FIlesystem_SPI0_EnableTxInt();
 890:.\Generated_Source\PSoC5/SD_FIlesystem_SPI0.c ****     #endif /* (SD_FIlesystem_SPI0_TX_SOFTWARE_BUF_ENABLED) */
 891:.\Generated_Source\PSoC5/SD_FIlesystem_SPI0.c **** }
 892:.\Generated_Source\PSoC5/SD_FIlesystem_SPI0.c **** 
 893:.\Generated_Source\PSoC5/SD_FIlesystem_SPI0.c **** 
 894:.\Generated_Source\PSoC5/SD_FIlesystem_SPI0.c **** #if(0u != SD_FIlesystem_SPI0_BIDIRECTIONAL_MODE)
 895:.\Generated_Source\PSoC5/SD_FIlesystem_SPI0.c ****     /*******************************************************************************
 896:.\Generated_Source\PSoC5/SD_FIlesystem_SPI0.c ****     * Function Name: SD_FIlesystem_SPI0_TxEnable
 897:.\Generated_Source\PSoC5/SD_FIlesystem_SPI0.c ****     ********************************************************************************
 898:.\Generated_Source\PSoC5/SD_FIlesystem_SPI0.c ****     *
 899:.\Generated_Source\PSoC5/SD_FIlesystem_SPI0.c ****     * Summary:
 900:.\Generated_Source\PSoC5/SD_FIlesystem_SPI0.c ****     *  If the SPI master is configured to use a single bi-directional pin then this
 901:.\Generated_Source\PSoC5/SD_FIlesystem_SPI0.c ****     *  will set the bi-directional pin to transmit.
 902:.\Generated_Source\PSoC5/SD_FIlesystem_SPI0.c ****     *
 903:.\Generated_Source\PSoC5/SD_FIlesystem_SPI0.c ****     * Parameters:
 904:.\Generated_Source\PSoC5/SD_FIlesystem_SPI0.c ****     *  None.
 905:.\Generated_Source\PSoC5/SD_FIlesystem_SPI0.c ****     *
 906:.\Generated_Source\PSoC5/SD_FIlesystem_SPI0.c ****     * Return:
 907:.\Generated_Source\PSoC5/SD_FIlesystem_SPI0.c ****     *  None.
 908:.\Generated_Source\PSoC5/SD_FIlesystem_SPI0.c ****     *
 909:.\Generated_Source\PSoC5/SD_FIlesystem_SPI0.c ****     *******************************************************************************/
 910:.\Generated_Source\PSoC5/SD_FIlesystem_SPI0.c ****     void SD_FIlesystem_SPI0_TxEnable(void) 
 911:.\Generated_Source\PSoC5/SD_FIlesystem_SPI0.c ****     {
 912:.\Generated_Source\PSoC5/SD_FIlesystem_SPI0.c ****         SD_FIlesystem_SPI0_CONTROL_REG |= SD_FIlesystem_SPI0_CTRL_TX_SIGNAL_EN;
 913:.\Generated_Source\PSoC5/SD_FIlesystem_SPI0.c ****     }
 914:.\Generated_Source\PSoC5/SD_FIlesystem_SPI0.c **** 
 915:.\Generated_Source\PSoC5/SD_FIlesystem_SPI0.c **** 
 916:.\Generated_Source\PSoC5/SD_FIlesystem_SPI0.c ****     /*******************************************************************************
 917:.\Generated_Source\PSoC5/SD_FIlesystem_SPI0.c ****     * Function Name: SD_FIlesystem_SPI0_TxDisable
 918:.\Generated_Source\PSoC5/SD_FIlesystem_SPI0.c ****     ********************************************************************************
 919:.\Generated_Source\PSoC5/SD_FIlesystem_SPI0.c ****     *
 920:.\Generated_Source\PSoC5/SD_FIlesystem_SPI0.c ****     * Summary:
 921:.\Generated_Source\PSoC5/SD_FIlesystem_SPI0.c ****     *  If the SPI master is configured to use a single bi-directional pin then this
 922:.\Generated_Source\PSoC5/SD_FIlesystem_SPI0.c ****     *  will set the bi-directional pin to receive.
 923:.\Generated_Source\PSoC5/SD_FIlesystem_SPI0.c ****     *
 924:.\Generated_Source\PSoC5/SD_FIlesystem_SPI0.c ****     * Parameters:
 925:.\Generated_Source\PSoC5/SD_FIlesystem_SPI0.c ****     *  None.
 926:.\Generated_Source\PSoC5/SD_FIlesystem_SPI0.c ****     *
 927:.\Generated_Source\PSoC5/SD_FIlesystem_SPI0.c ****     * Return:
 928:.\Generated_Source\PSoC5/SD_FIlesystem_SPI0.c ****     *  None.
 929:.\Generated_Source\PSoC5/SD_FIlesystem_SPI0.c ****     *
 930:.\Generated_Source\PSoC5/SD_FIlesystem_SPI0.c ****     *******************************************************************************/
 931:.\Generated_Source\PSoC5/SD_FIlesystem_SPI0.c ****     void SD_FIlesystem_SPI0_TxDisable(void) 
 932:.\Generated_Source\PSoC5/SD_FIlesystem_SPI0.c ****     {
 933:.\Generated_Source\PSoC5/SD_FIlesystem_SPI0.c ****         SD_FIlesystem_SPI0_CONTROL_REG &= ((uint8) ~SD_FIlesystem_SPI0_CTRL_TX_SIGNAL_EN);
 934:.\Generated_Source\PSoC5/SD_FIlesystem_SPI0.c ****     }
ARM GAS  C:\Users\User\AppData\Local\Temp\ccohLGUd.s 			page 26


 935:.\Generated_Source\PSoC5/SD_FIlesystem_SPI0.c **** 
 936:.\Generated_Source\PSoC5/SD_FIlesystem_SPI0.c **** #endif /* (0u != SD_FIlesystem_SPI0_BIDIRECTIONAL_MODE) */
 937:.\Generated_Source\PSoC5/SD_FIlesystem_SPI0.c **** 
 938:.\Generated_Source\PSoC5/SD_FIlesystem_SPI0.c **** 
 939:.\Generated_Source\PSoC5/SD_FIlesystem_SPI0.c **** /*******************************************************************************
 940:.\Generated_Source\PSoC5/SD_FIlesystem_SPI0.c **** * Function Name: SD_FIlesystem_SPI0_PutArray
 941:.\Generated_Source\PSoC5/SD_FIlesystem_SPI0.c **** ********************************************************************************
 942:.\Generated_Source\PSoC5/SD_FIlesystem_SPI0.c **** *
 943:.\Generated_Source\PSoC5/SD_FIlesystem_SPI0.c **** * Summary:
 944:.\Generated_Source\PSoC5/SD_FIlesystem_SPI0.c **** *  Write available data from ROM/RAM to the TX buffer while space is available
 945:.\Generated_Source\PSoC5/SD_FIlesystem_SPI0.c **** *  in the TX buffer. Keep trying until all data is passed to the TX buffer.
 946:.\Generated_Source\PSoC5/SD_FIlesystem_SPI0.c **** *
 947:.\Generated_Source\PSoC5/SD_FIlesystem_SPI0.c **** * Parameters:
 948:.\Generated_Source\PSoC5/SD_FIlesystem_SPI0.c **** *  *buffer: Pointer to the location in RAM containing the data to send
 949:.\Generated_Source\PSoC5/SD_FIlesystem_SPI0.c **** *  byteCount: The number of bytes to move to the transmit buffer.
 950:.\Generated_Source\PSoC5/SD_FIlesystem_SPI0.c **** *
 951:.\Generated_Source\PSoC5/SD_FIlesystem_SPI0.c **** * Return:
 952:.\Generated_Source\PSoC5/SD_FIlesystem_SPI0.c **** *  None.
 953:.\Generated_Source\PSoC5/SD_FIlesystem_SPI0.c **** *
 954:.\Generated_Source\PSoC5/SD_FIlesystem_SPI0.c **** * Side Effects:
 955:.\Generated_Source\PSoC5/SD_FIlesystem_SPI0.c **** *  Will stay in this routine until all data has been sent.  May get locked in
 956:.\Generated_Source\PSoC5/SD_FIlesystem_SPI0.c **** *  this loop if data is not being initiated by the master if there is not
 957:.\Generated_Source\PSoC5/SD_FIlesystem_SPI0.c **** *  enough room in the TX FIFO.
 958:.\Generated_Source\PSoC5/SD_FIlesystem_SPI0.c **** *
 959:.\Generated_Source\PSoC5/SD_FIlesystem_SPI0.c **** * Reentrant:
 960:.\Generated_Source\PSoC5/SD_FIlesystem_SPI0.c **** *  No.
 961:.\Generated_Source\PSoC5/SD_FIlesystem_SPI0.c **** *
 962:.\Generated_Source\PSoC5/SD_FIlesystem_SPI0.c **** *******************************************************************************/
 963:.\Generated_Source\PSoC5/SD_FIlesystem_SPI0.c **** void SD_FIlesystem_SPI0_PutArray(const uint8 buffer[], uint8 byteCount)
 964:.\Generated_Source\PSoC5/SD_FIlesystem_SPI0.c ****                                                                           
 965:.\Generated_Source\PSoC5/SD_FIlesystem_SPI0.c **** {
 490              		.loc 1 965 0
 491              		.cfi_startproc
 492              		@ args = 0, pretend = 0, frame = 0
 493              		@ frame_needed = 0, uses_anonymous_args = 0
 494              	.LVL15:
 495 0000 70B5     		push	{r4, r5, r6, lr}
 496              		.cfi_def_cfa_offset 16
 497              		.cfi_offset 4, -16
 498              		.cfi_offset 5, -12
 499              		.cfi_offset 6, -8
 500              		.cfi_offset 14, -4
 501 0002 0646     		mov	r6, r0
 502 0004 0C46     		mov	r4, r1
 503              	.LVL16:
 966:.\Generated_Source\PSoC5/SD_FIlesystem_SPI0.c ****     uint8 bufIndex;
 967:.\Generated_Source\PSoC5/SD_FIlesystem_SPI0.c **** 
 968:.\Generated_Source\PSoC5/SD_FIlesystem_SPI0.c ****     bufIndex = 0u;
 504              		.loc 1 968 0
 505 0006 0025     		movs	r5, #0
 969:.\Generated_Source\PSoC5/SD_FIlesystem_SPI0.c **** 
 970:.\Generated_Source\PSoC5/SD_FIlesystem_SPI0.c ****     while(byteCount > 0u)
 506              		.loc 1 970 0
 507 0008 06E0     		b	.L53
 508              	.LVL17:
 509              	.L54:
 971:.\Generated_Source\PSoC5/SD_FIlesystem_SPI0.c ****     {
ARM GAS  C:\Users\User\AppData\Local\Temp\ccohLGUd.s 			page 27


 972:.\Generated_Source\PSoC5/SD_FIlesystem_SPI0.c ****         SD_FIlesystem_SPI0_WriteTxData(buffer[bufIndex]);
 510              		.loc 1 972 0
 511 000a 705D     		ldrb	r0, [r6, r5]	@ zero_extendqisi2
 512 000c FFF7FEFF 		bl	SD_FIlesystem_SPI0_WriteTxData
 513              	.LVL18:
 973:.\Generated_Source\PSoC5/SD_FIlesystem_SPI0.c ****         bufIndex++;
 514              		.loc 1 973 0
 515 0010 0135     		adds	r5, r5, #1
 516              	.LVL19:
 517 0012 EDB2     		uxtb	r5, r5
 518              	.LVL20:
 974:.\Generated_Source\PSoC5/SD_FIlesystem_SPI0.c ****         byteCount--;
 519              		.loc 1 974 0
 520 0014 013C     		subs	r4, r4, #1
 521              	.LVL21:
 522 0016 E4B2     		uxtb	r4, r4
 523              	.LVL22:
 524              	.L53:
 970:.\Generated_Source\PSoC5/SD_FIlesystem_SPI0.c ****     {
 525              		.loc 1 970 0
 526 0018 002C     		cmp	r4, #0
 527 001a F6D1     		bne	.L54
 975:.\Generated_Source\PSoC5/SD_FIlesystem_SPI0.c ****     }
 976:.\Generated_Source\PSoC5/SD_FIlesystem_SPI0.c **** }
 528              		.loc 1 976 0
 529 001c 70BD     		pop	{r4, r5, r6, pc}
 530              		.cfi_endproc
 531              	.LFE18:
 532              		.size	SD_FIlesystem_SPI0_PutArray, .-SD_FIlesystem_SPI0_PutArray
 533 001e 00BF     		.section	.text.SD_FIlesystem_SPI0_ClearFIFO,"ax",%progbits
 534              		.align	2
 535              		.global	SD_FIlesystem_SPI0_ClearFIFO
 536              		.thumb
 537              		.thumb_func
 538              		.type	SD_FIlesystem_SPI0_ClearFIFO, %function
 539              	SD_FIlesystem_SPI0_ClearFIFO:
 540              	.LFB19:
 977:.\Generated_Source\PSoC5/SD_FIlesystem_SPI0.c **** 
 978:.\Generated_Source\PSoC5/SD_FIlesystem_SPI0.c **** 
 979:.\Generated_Source\PSoC5/SD_FIlesystem_SPI0.c **** /*******************************************************************************
 980:.\Generated_Source\PSoC5/SD_FIlesystem_SPI0.c **** * Function Name: SD_FIlesystem_SPI0_ClearFIFO
 981:.\Generated_Source\PSoC5/SD_FIlesystem_SPI0.c **** ********************************************************************************
 982:.\Generated_Source\PSoC5/SD_FIlesystem_SPI0.c **** *
 983:.\Generated_Source\PSoC5/SD_FIlesystem_SPI0.c **** * Summary:
 984:.\Generated_Source\PSoC5/SD_FIlesystem_SPI0.c **** *  Clear the RX and TX FIFO's of all data for a fresh start.
 985:.\Generated_Source\PSoC5/SD_FIlesystem_SPI0.c **** *
 986:.\Generated_Source\PSoC5/SD_FIlesystem_SPI0.c **** * Parameters:
 987:.\Generated_Source\PSoC5/SD_FIlesystem_SPI0.c **** *  None.
 988:.\Generated_Source\PSoC5/SD_FIlesystem_SPI0.c **** *
 989:.\Generated_Source\PSoC5/SD_FIlesystem_SPI0.c **** * Return:
 990:.\Generated_Source\PSoC5/SD_FIlesystem_SPI0.c **** *  None.
 991:.\Generated_Source\PSoC5/SD_FIlesystem_SPI0.c **** *
 992:.\Generated_Source\PSoC5/SD_FIlesystem_SPI0.c **** * Side Effects:
 993:.\Generated_Source\PSoC5/SD_FIlesystem_SPI0.c **** *  Clear status register of the component.
 994:.\Generated_Source\PSoC5/SD_FIlesystem_SPI0.c **** *
 995:.\Generated_Source\PSoC5/SD_FIlesystem_SPI0.c **** *******************************************************************************/
 996:.\Generated_Source\PSoC5/SD_FIlesystem_SPI0.c **** void SD_FIlesystem_SPI0_ClearFIFO(void) 
ARM GAS  C:\Users\User\AppData\Local\Temp\ccohLGUd.s 			page 28


 997:.\Generated_Source\PSoC5/SD_FIlesystem_SPI0.c **** {
 541              		.loc 1 997 0
 542              		.cfi_startproc
 543              		@ args = 0, pretend = 0, frame = 0
 544              		@ frame_needed = 0, uses_anonymous_args = 0
 545 0000 08B5     		push	{r3, lr}
 546              		.cfi_def_cfa_offset 8
 547              		.cfi_offset 3, -8
 548              		.cfi_offset 14, -4
 998:.\Generated_Source\PSoC5/SD_FIlesystem_SPI0.c ****     uint8 enableInterrupts;
 999:.\Generated_Source\PSoC5/SD_FIlesystem_SPI0.c **** 
1000:.\Generated_Source\PSoC5/SD_FIlesystem_SPI0.c ****     /* Clear Hardware RX FIFO */
1001:.\Generated_Source\PSoC5/SD_FIlesystem_SPI0.c ****     while(0u !=(SD_FIlesystem_SPI0_RX_STATUS_REG & SD_FIlesystem_SPI0_STS_RX_FIFO_NOT_EMPTY))
 549              		.loc 1 1001 0
 550 0002 01E0     		b	.L57
 551              	.L58:
1002:.\Generated_Source\PSoC5/SD_FIlesystem_SPI0.c ****     {
1003:.\Generated_Source\PSoC5/SD_FIlesystem_SPI0.c ****         (void) CY_GET_REG8(SD_FIlesystem_SPI0_RXDATA_PTR);
 552              		.loc 1 1003 0
 553 0004 0A4B     		ldr	r3, .L60
 554 0006 1B78     		ldrb	r3, [r3]	@ zero_extendqisi2
 555              	.L57:
1001:.\Generated_Source\PSoC5/SD_FIlesystem_SPI0.c ****     {
 556              		.loc 1 1001 0
 557 0008 0A4B     		ldr	r3, .L60+4
 558 000a 1B78     		ldrb	r3, [r3]	@ zero_extendqisi2
 559 000c 13F0200F 		tst	r3, #32
 560 0010 F8D1     		bne	.L58
1004:.\Generated_Source\PSoC5/SD_FIlesystem_SPI0.c ****     }
1005:.\Generated_Source\PSoC5/SD_FIlesystem_SPI0.c **** 
1006:.\Generated_Source\PSoC5/SD_FIlesystem_SPI0.c ****     enableInterrupts = CyEnterCriticalSection();
 561              		.loc 1 1006 0
 562 0012 FFF7FEFF 		bl	CyEnterCriticalSection
 563              	.LVL23:
1007:.\Generated_Source\PSoC5/SD_FIlesystem_SPI0.c ****     /* Clear TX FIFO */
1008:.\Generated_Source\PSoC5/SD_FIlesystem_SPI0.c ****     SD_FIlesystem_SPI0_AUX_CONTROL_DP0_REG |= ((uint8)  SD_FIlesystem_SPI0_TX_FIFO_CLR);
 564              		.loc 1 1008 0
 565 0016 084B     		ldr	r3, .L60+8
 566 0018 1A78     		ldrb	r2, [r3]	@ zero_extendqisi2
 567 001a 42F00102 		orr	r2, r2, #1
 568 001e 1A70     		strb	r2, [r3]
1009:.\Generated_Source\PSoC5/SD_FIlesystem_SPI0.c ****     SD_FIlesystem_SPI0_AUX_CONTROL_DP0_REG &= ((uint8) ~SD_FIlesystem_SPI0_TX_FIFO_CLR);
 569              		.loc 1 1009 0
 570 0020 1A78     		ldrb	r2, [r3]	@ zero_extendqisi2
 571 0022 02F0FE02 		and	r2, r2, #254
 572 0026 1A70     		strb	r2, [r3]
1010:.\Generated_Source\PSoC5/SD_FIlesystem_SPI0.c **** 
1011:.\Generated_Source\PSoC5/SD_FIlesystem_SPI0.c ****     #if(SD_FIlesystem_SPI0_USE_SECOND_DATAPATH)
1012:.\Generated_Source\PSoC5/SD_FIlesystem_SPI0.c ****         /* Clear TX FIFO for 2nd Datapath */
1013:.\Generated_Source\PSoC5/SD_FIlesystem_SPI0.c ****         SD_FIlesystem_SPI0_AUX_CONTROL_DP1_REG |= ((uint8)  SD_FIlesystem_SPI0_TX_FIFO_CLR);
1014:.\Generated_Source\PSoC5/SD_FIlesystem_SPI0.c ****         SD_FIlesystem_SPI0_AUX_CONTROL_DP1_REG &= ((uint8) ~SD_FIlesystem_SPI0_TX_FIFO_CLR);
1015:.\Generated_Source\PSoC5/SD_FIlesystem_SPI0.c ****     #endif /* (SD_FIlesystem_SPI0_USE_SECOND_DATAPATH) */
1016:.\Generated_Source\PSoC5/SD_FIlesystem_SPI0.c ****     CyExitCriticalSection(enableInterrupts);
 573              		.loc 1 1016 0
 574 0028 FFF7FEFF 		bl	CyExitCriticalSection
 575              	.LVL24:
 576 002c 08BD     		pop	{r3, pc}
ARM GAS  C:\Users\User\AppData\Local\Temp\ccohLGUd.s 			page 29


 577              	.L61:
 578 002e 00BF     		.align	2
 579              	.L60:
 580 0030 55640040 		.word	1073767509
 581 0034 66650040 		.word	1073767782
 582 0038 95640040 		.word	1073767573
 583              		.cfi_endproc
 584              	.LFE19:
 585              		.size	SD_FIlesystem_SPI0_ClearFIFO, .-SD_FIlesystem_SPI0_ClearFIFO
 586              		.section	.text.SD_FIlesystem_SPI0_Init,"ax",%progbits
 587              		.align	2
 588              		.global	SD_FIlesystem_SPI0_Init
 589              		.thumb
 590              		.thumb_func
 591              		.type	SD_FIlesystem_SPI0_Init, %function
 592              	SD_FIlesystem_SPI0_Init:
 593              	.LFB0:
  64:.\Generated_Source\PSoC5/SD_FIlesystem_SPI0.c ****     /* Initialize the Bit counter */
 594              		.loc 1 64 0
 595              		.cfi_startproc
 596              		@ args = 0, pretend = 0, frame = 0
 597              		@ frame_needed = 0, uses_anonymous_args = 0
 598 0000 08B5     		push	{r3, lr}
 599              		.cfi_def_cfa_offset 8
 600              		.cfi_offset 3, -8
 601              		.cfi_offset 14, -4
  66:.\Generated_Source\PSoC5/SD_FIlesystem_SPI0.c **** 
 602              		.loc 1 66 0
 603 0002 0F22     		movs	r2, #15
 604 0004 064B     		ldr	r3, .L64
 605 0006 1A70     		strb	r2, [r3]
  83:.\Generated_Source\PSoC5/SD_FIlesystem_SPI0.c **** 
 606              		.loc 1 83 0
 607 0008 FFF7FEFF 		bl	SD_FIlesystem_SPI0_ClearFIFO
 608              	.LVL25:
  97:.\Generated_Source\PSoC5/SD_FIlesystem_SPI0.c ****     (void) SD_FIlesystem_SPI0_ReadRxStatus(); /* Clear Rx status and swStatusRx */
 609              		.loc 1 97 0
 610 000c FFF7FEFF 		bl	SD_FIlesystem_SPI0_ReadTxStatus
 611              	.LVL26:
  98:.\Generated_Source\PSoC5/SD_FIlesystem_SPI0.c **** 
 612              		.loc 1 98 0
 613 0010 FFF7FEFF 		bl	SD_FIlesystem_SPI0_ReadRxStatus
 614              	.LVL27:
 101:.\Generated_Source\PSoC5/SD_FIlesystem_SPI0.c ****     SD_FIlesystem_SPI0_RX_STATUS_MASK_REG = SD_FIlesystem_SPI0_RX_INIT_INTERRUPTS_MASK;
 615              		.loc 1 101 0
 616 0014 0023     		movs	r3, #0
 617 0016 034A     		ldr	r2, .L64+4
 618 0018 1370     		strb	r3, [r2]
 102:.\Generated_Source\PSoC5/SD_FIlesystem_SPI0.c **** }
 619              		.loc 1 102 0
 620 001a 013A     		subs	r2, r2, #1
 621 001c 1370     		strb	r3, [r2]
 622 001e 08BD     		pop	{r3, pc}
 623              	.L65:
 624              		.align	2
 625              	.L64:
 626 0020 84640040 		.word	1073767556
ARM GAS  C:\Users\User\AppData\Local\Temp\ccohLGUd.s 			page 30


 627 0024 87650040 		.word	1073767815
 628              		.cfi_endproc
 629              	.LFE0:
 630              		.size	SD_FIlesystem_SPI0_Init, .-SD_FIlesystem_SPI0_Init
 631              		.section	.text.SD_FIlesystem_SPI0_Start,"ax",%progbits
 632              		.align	2
 633              		.global	SD_FIlesystem_SPI0_Start
 634              		.thumb
 635              		.thumb_func
 636              		.type	SD_FIlesystem_SPI0_Start, %function
 637              	SD_FIlesystem_SPI0_Start:
 638              	.LFB2:
 164:.\Generated_Source\PSoC5/SD_FIlesystem_SPI0.c ****     if(0u == SD_FIlesystem_SPI0_initVar)
 639              		.loc 1 164 0
 640              		.cfi_startproc
 641              		@ args = 0, pretend = 0, frame = 0
 642              		@ frame_needed = 0, uses_anonymous_args = 0
 643 0000 08B5     		push	{r3, lr}
 644              		.cfi_def_cfa_offset 8
 645              		.cfi_offset 3, -8
 646              		.cfi_offset 14, -4
 165:.\Generated_Source\PSoC5/SD_FIlesystem_SPI0.c ****     {
 647              		.loc 1 165 0
 648 0002 054B     		ldr	r3, .L69
 649 0004 1B78     		ldrb	r3, [r3]	@ zero_extendqisi2
 650 0006 23B9     		cbnz	r3, .L67
 167:.\Generated_Source\PSoC5/SD_FIlesystem_SPI0.c ****         SD_FIlesystem_SPI0_initVar = 1u;
 651              		.loc 1 167 0
 652 0008 FFF7FEFF 		bl	SD_FIlesystem_SPI0_Init
 653              	.LVL28:
 168:.\Generated_Source\PSoC5/SD_FIlesystem_SPI0.c ****     }
 654              		.loc 1 168 0
 655 000c 0122     		movs	r2, #1
 656 000e 024B     		ldr	r3, .L69
 657 0010 1A70     		strb	r2, [r3]
 658              	.L67:
 171:.\Generated_Source\PSoC5/SD_FIlesystem_SPI0.c **** }
 659              		.loc 1 171 0
 660 0012 FFF7FEFF 		bl	SD_FIlesystem_SPI0_Enable
 661              	.LVL29:
 662 0016 08BD     		pop	{r3, pc}
 663              	.L70:
 664              		.align	2
 665              	.L69:
 666 0018 00000000 		.word	.LANCHOR0
 667              		.cfi_endproc
 668              	.LFE2:
 669              		.size	SD_FIlesystem_SPI0_Start, .-SD_FIlesystem_SPI0_Start
 670              		.section	.text.SD_FIlesystem_SPI0_EnableInt,"ax",%progbits
 671              		.align	2
 672              		.global	SD_FIlesystem_SPI0_EnableInt
 673              		.thumb
 674              		.thumb_func
 675              		.type	SD_FIlesystem_SPI0_EnableInt, %function
 676              	SD_FIlesystem_SPI0_EnableInt:
 677              	.LFB20:
1017:.\Generated_Source\PSoC5/SD_FIlesystem_SPI0.c **** }
ARM GAS  C:\Users\User\AppData\Local\Temp\ccohLGUd.s 			page 31


1018:.\Generated_Source\PSoC5/SD_FIlesystem_SPI0.c **** 
1019:.\Generated_Source\PSoC5/SD_FIlesystem_SPI0.c **** 
1020:.\Generated_Source\PSoC5/SD_FIlesystem_SPI0.c **** /* Following functions are for version Compatibility, they are obsolete.
1021:.\Generated_Source\PSoC5/SD_FIlesystem_SPI0.c **** *  Please do not use it in new projects.
1022:.\Generated_Source\PSoC5/SD_FIlesystem_SPI0.c **** */
1023:.\Generated_Source\PSoC5/SD_FIlesystem_SPI0.c **** 
1024:.\Generated_Source\PSoC5/SD_FIlesystem_SPI0.c **** 
1025:.\Generated_Source\PSoC5/SD_FIlesystem_SPI0.c **** /*******************************************************************************
1026:.\Generated_Source\PSoC5/SD_FIlesystem_SPI0.c **** * Function Name: SD_FIlesystem_SPI0_EnableInt
1027:.\Generated_Source\PSoC5/SD_FIlesystem_SPI0.c **** ********************************************************************************
1028:.\Generated_Source\PSoC5/SD_FIlesystem_SPI0.c **** *
1029:.\Generated_Source\PSoC5/SD_FIlesystem_SPI0.c **** * Summary:
1030:.\Generated_Source\PSoC5/SD_FIlesystem_SPI0.c **** *  Enable internal interrupt generation.
1031:.\Generated_Source\PSoC5/SD_FIlesystem_SPI0.c **** *
1032:.\Generated_Source\PSoC5/SD_FIlesystem_SPI0.c **** * Parameters:
1033:.\Generated_Source\PSoC5/SD_FIlesystem_SPI0.c **** *  None.
1034:.\Generated_Source\PSoC5/SD_FIlesystem_SPI0.c **** *
1035:.\Generated_Source\PSoC5/SD_FIlesystem_SPI0.c **** * Return:
1036:.\Generated_Source\PSoC5/SD_FIlesystem_SPI0.c **** *  None.
1037:.\Generated_Source\PSoC5/SD_FIlesystem_SPI0.c **** *
1038:.\Generated_Source\PSoC5/SD_FIlesystem_SPI0.c **** * Theory:
1039:.\Generated_Source\PSoC5/SD_FIlesystem_SPI0.c **** *  Enable the internal interrupt output -or- the interrupt component itself.
1040:.\Generated_Source\PSoC5/SD_FIlesystem_SPI0.c **** *
1041:.\Generated_Source\PSoC5/SD_FIlesystem_SPI0.c **** *******************************************************************************/
1042:.\Generated_Source\PSoC5/SD_FIlesystem_SPI0.c **** void SD_FIlesystem_SPI0_EnableInt(void) 
1043:.\Generated_Source\PSoC5/SD_FIlesystem_SPI0.c **** {
 678              		.loc 1 1043 0
 679              		.cfi_startproc
 680              		@ args = 0, pretend = 0, frame = 0
 681              		@ frame_needed = 0, uses_anonymous_args = 0
 682              		@ link register save eliminated.
 683 0000 7047     		bx	lr
 684              		.cfi_endproc
 685              	.LFE20:
 686              		.size	SD_FIlesystem_SPI0_EnableInt, .-SD_FIlesystem_SPI0_EnableInt
 687 0002 00BF     		.section	.text.SD_FIlesystem_SPI0_DisableInt,"ax",%progbits
 688              		.align	2
 689              		.global	SD_FIlesystem_SPI0_DisableInt
 690              		.thumb
 691              		.thumb_func
 692              		.type	SD_FIlesystem_SPI0_DisableInt, %function
 693              	SD_FIlesystem_SPI0_DisableInt:
 694              	.LFB21:
1044:.\Generated_Source\PSoC5/SD_FIlesystem_SPI0.c ****     SD_FIlesystem_SPI0_EnableRxInt();
1045:.\Generated_Source\PSoC5/SD_FIlesystem_SPI0.c ****     SD_FIlesystem_SPI0_EnableTxInt();
1046:.\Generated_Source\PSoC5/SD_FIlesystem_SPI0.c **** }
1047:.\Generated_Source\PSoC5/SD_FIlesystem_SPI0.c **** 
1048:.\Generated_Source\PSoC5/SD_FIlesystem_SPI0.c **** 
1049:.\Generated_Source\PSoC5/SD_FIlesystem_SPI0.c **** /*******************************************************************************
1050:.\Generated_Source\PSoC5/SD_FIlesystem_SPI0.c **** * Function Name: SD_FIlesystem_SPI0_DisableInt
1051:.\Generated_Source\PSoC5/SD_FIlesystem_SPI0.c **** ********************************************************************************
1052:.\Generated_Source\PSoC5/SD_FIlesystem_SPI0.c **** *
1053:.\Generated_Source\PSoC5/SD_FIlesystem_SPI0.c **** * Summary:
1054:.\Generated_Source\PSoC5/SD_FIlesystem_SPI0.c **** *  Disable internal interrupt generation.
1055:.\Generated_Source\PSoC5/SD_FIlesystem_SPI0.c **** *
1056:.\Generated_Source\PSoC5/SD_FIlesystem_SPI0.c **** * Parameters:
1057:.\Generated_Source\PSoC5/SD_FIlesystem_SPI0.c **** *  None.
ARM GAS  C:\Users\User\AppData\Local\Temp\ccohLGUd.s 			page 32


1058:.\Generated_Source\PSoC5/SD_FIlesystem_SPI0.c **** *
1059:.\Generated_Source\PSoC5/SD_FIlesystem_SPI0.c **** * Return:
1060:.\Generated_Source\PSoC5/SD_FIlesystem_SPI0.c **** *  None.
1061:.\Generated_Source\PSoC5/SD_FIlesystem_SPI0.c **** *
1062:.\Generated_Source\PSoC5/SD_FIlesystem_SPI0.c **** * Theory:
1063:.\Generated_Source\PSoC5/SD_FIlesystem_SPI0.c **** *  Disable the internal interrupt output -or- the interrupt component itself.
1064:.\Generated_Source\PSoC5/SD_FIlesystem_SPI0.c **** *
1065:.\Generated_Source\PSoC5/SD_FIlesystem_SPI0.c **** *******************************************************************************/
1066:.\Generated_Source\PSoC5/SD_FIlesystem_SPI0.c **** void SD_FIlesystem_SPI0_DisableInt(void) 
1067:.\Generated_Source\PSoC5/SD_FIlesystem_SPI0.c **** {
 695              		.loc 1 1067 0
 696              		.cfi_startproc
 697              		@ args = 0, pretend = 0, frame = 0
 698              		@ frame_needed = 0, uses_anonymous_args = 0
 699              		@ link register save eliminated.
 700 0000 7047     		bx	lr
 701              		.cfi_endproc
 702              	.LFE21:
 703              		.size	SD_FIlesystem_SPI0_DisableInt, .-SD_FIlesystem_SPI0_DisableInt
 704 0002 00BF     		.section	.text.SD_FIlesystem_SPI0_SetInterruptMode,"ax",%progbits
 705              		.align	2
 706              		.global	SD_FIlesystem_SPI0_SetInterruptMode
 707              		.thumb
 708              		.thumb_func
 709              		.type	SD_FIlesystem_SPI0_SetInterruptMode, %function
 710              	SD_FIlesystem_SPI0_SetInterruptMode:
 711              	.LFB22:
1068:.\Generated_Source\PSoC5/SD_FIlesystem_SPI0.c ****     SD_FIlesystem_SPI0_DisableTxInt();
1069:.\Generated_Source\PSoC5/SD_FIlesystem_SPI0.c ****     SD_FIlesystem_SPI0_DisableRxInt();
1070:.\Generated_Source\PSoC5/SD_FIlesystem_SPI0.c **** }
1071:.\Generated_Source\PSoC5/SD_FIlesystem_SPI0.c **** 
1072:.\Generated_Source\PSoC5/SD_FIlesystem_SPI0.c **** 
1073:.\Generated_Source\PSoC5/SD_FIlesystem_SPI0.c **** /*******************************************************************************
1074:.\Generated_Source\PSoC5/SD_FIlesystem_SPI0.c **** * Function Name: SD_FIlesystem_SPI0_SetInterruptMode
1075:.\Generated_Source\PSoC5/SD_FIlesystem_SPI0.c **** ********************************************************************************
1076:.\Generated_Source\PSoC5/SD_FIlesystem_SPI0.c **** *
1077:.\Generated_Source\PSoC5/SD_FIlesystem_SPI0.c **** * Summary:
1078:.\Generated_Source\PSoC5/SD_FIlesystem_SPI0.c **** *  Configure which status bits trigger an interrupt event.
1079:.\Generated_Source\PSoC5/SD_FIlesystem_SPI0.c **** *
1080:.\Generated_Source\PSoC5/SD_FIlesystem_SPI0.c **** * Parameters:
1081:.\Generated_Source\PSoC5/SD_FIlesystem_SPI0.c **** *  intSrc: An or'd combination of the desired status bit masks (defined in the
1082:.\Generated_Source\PSoC5/SD_FIlesystem_SPI0.c **** *  header file).
1083:.\Generated_Source\PSoC5/SD_FIlesystem_SPI0.c **** *
1084:.\Generated_Source\PSoC5/SD_FIlesystem_SPI0.c **** * Return:
1085:.\Generated_Source\PSoC5/SD_FIlesystem_SPI0.c **** *  None.
1086:.\Generated_Source\PSoC5/SD_FIlesystem_SPI0.c **** *
1087:.\Generated_Source\PSoC5/SD_FIlesystem_SPI0.c **** * Theory:
1088:.\Generated_Source\PSoC5/SD_FIlesystem_SPI0.c **** *  Enables the output of specific status bits to the interrupt controller.
1089:.\Generated_Source\PSoC5/SD_FIlesystem_SPI0.c **** *
1090:.\Generated_Source\PSoC5/SD_FIlesystem_SPI0.c **** *******************************************************************************/
1091:.\Generated_Source\PSoC5/SD_FIlesystem_SPI0.c **** void SD_FIlesystem_SPI0_SetInterruptMode(uint8 intSrc) 
1092:.\Generated_Source\PSoC5/SD_FIlesystem_SPI0.c **** {
 712              		.loc 1 1092 0
 713              		.cfi_startproc
 714              		@ args = 0, pretend = 0, frame = 0
 715              		@ frame_needed = 0, uses_anonymous_args = 0
 716              		@ link register save eliminated.
ARM GAS  C:\Users\User\AppData\Local\Temp\ccohLGUd.s 			page 33


 717              	.LVL30:
1093:.\Generated_Source\PSoC5/SD_FIlesystem_SPI0.c ****     SD_FIlesystem_SPI0_TX_STATUS_MASK_REG  = (intSrc & ((uint8) ~SD_FIlesystem_SPI0_STS_SPI_IDLE));
 718              		.loc 1 1093 0
 719 0000 00F0EF02 		and	r2, r0, #239
 720 0004 024B     		ldr	r3, .L74
 721 0006 1A70     		strb	r2, [r3]
1094:.\Generated_Source\PSoC5/SD_FIlesystem_SPI0.c ****     SD_FIlesystem_SPI0_RX_STATUS_MASK_REG  =  intSrc;
 722              		.loc 1 1094 0
 723 0008 013B     		subs	r3, r3, #1
 724 000a 1870     		strb	r0, [r3]
 725 000c 7047     		bx	lr
 726              	.L75:
 727 000e 00BF     		.align	2
 728              	.L74:
 729 0010 87650040 		.word	1073767815
 730              		.cfi_endproc
 731              	.LFE22:
 732              		.size	SD_FIlesystem_SPI0_SetInterruptMode, .-SD_FIlesystem_SPI0_SetInterruptMode
 733              		.section	.text.SD_FIlesystem_SPI0_ReadStatus,"ax",%progbits
 734              		.align	2
 735              		.global	SD_FIlesystem_SPI0_ReadStatus
 736              		.thumb
 737              		.thumb_func
 738              		.type	SD_FIlesystem_SPI0_ReadStatus, %function
 739              	SD_FIlesystem_SPI0_ReadStatus:
 740              	.LFB23:
1095:.\Generated_Source\PSoC5/SD_FIlesystem_SPI0.c **** }
1096:.\Generated_Source\PSoC5/SD_FIlesystem_SPI0.c **** 
1097:.\Generated_Source\PSoC5/SD_FIlesystem_SPI0.c **** 
1098:.\Generated_Source\PSoC5/SD_FIlesystem_SPI0.c **** /*******************************************************************************
1099:.\Generated_Source\PSoC5/SD_FIlesystem_SPI0.c **** * Function Name: SD_FIlesystem_SPI0_ReadStatus
1100:.\Generated_Source\PSoC5/SD_FIlesystem_SPI0.c **** ********************************************************************************
1101:.\Generated_Source\PSoC5/SD_FIlesystem_SPI0.c **** *
1102:.\Generated_Source\PSoC5/SD_FIlesystem_SPI0.c **** * Summary:
1103:.\Generated_Source\PSoC5/SD_FIlesystem_SPI0.c **** *  Read the status register for the component.
1104:.\Generated_Source\PSoC5/SD_FIlesystem_SPI0.c **** *
1105:.\Generated_Source\PSoC5/SD_FIlesystem_SPI0.c **** * Parameters:
1106:.\Generated_Source\PSoC5/SD_FIlesystem_SPI0.c **** *  None.
1107:.\Generated_Source\PSoC5/SD_FIlesystem_SPI0.c **** *
1108:.\Generated_Source\PSoC5/SD_FIlesystem_SPI0.c **** * Return:
1109:.\Generated_Source\PSoC5/SD_FIlesystem_SPI0.c **** *  Contents of the status register.
1110:.\Generated_Source\PSoC5/SD_FIlesystem_SPI0.c **** *
1111:.\Generated_Source\PSoC5/SD_FIlesystem_SPI0.c **** * Global variables:
1112:.\Generated_Source\PSoC5/SD_FIlesystem_SPI0.c **** *  SD_FIlesystem_SPI0_swStatus - used to store in software status register,
1113:.\Generated_Source\PSoC5/SD_FIlesystem_SPI0.c **** *  modified every function call - resets to zero.
1114:.\Generated_Source\PSoC5/SD_FIlesystem_SPI0.c **** *
1115:.\Generated_Source\PSoC5/SD_FIlesystem_SPI0.c **** * Theory:
1116:.\Generated_Source\PSoC5/SD_FIlesystem_SPI0.c **** *  Allows the user and the API to read the status register for error detection
1117:.\Generated_Source\PSoC5/SD_FIlesystem_SPI0.c **** *  and flow control.
1118:.\Generated_Source\PSoC5/SD_FIlesystem_SPI0.c **** *
1119:.\Generated_Source\PSoC5/SD_FIlesystem_SPI0.c **** * Side Effects:
1120:.\Generated_Source\PSoC5/SD_FIlesystem_SPI0.c **** *  Clear status register of the component.
1121:.\Generated_Source\PSoC5/SD_FIlesystem_SPI0.c **** *
1122:.\Generated_Source\PSoC5/SD_FIlesystem_SPI0.c **** * Reentrant:
1123:.\Generated_Source\PSoC5/SD_FIlesystem_SPI0.c **** *  No.
1124:.\Generated_Source\PSoC5/SD_FIlesystem_SPI0.c **** *
1125:.\Generated_Source\PSoC5/SD_FIlesystem_SPI0.c **** *******************************************************************************/
ARM GAS  C:\Users\User\AppData\Local\Temp\ccohLGUd.s 			page 34


1126:.\Generated_Source\PSoC5/SD_FIlesystem_SPI0.c **** uint8 SD_FIlesystem_SPI0_ReadStatus(void) 
1127:.\Generated_Source\PSoC5/SD_FIlesystem_SPI0.c **** {
 741              		.loc 1 1127 0
 742              		.cfi_startproc
 743              		@ args = 0, pretend = 0, frame = 0
 744              		@ frame_needed = 0, uses_anonymous_args = 0
 745              		@ link register save eliminated.
1128:.\Generated_Source\PSoC5/SD_FIlesystem_SPI0.c ****     uint8 tmpStatus;
1129:.\Generated_Source\PSoC5/SD_FIlesystem_SPI0.c **** 
1130:.\Generated_Source\PSoC5/SD_FIlesystem_SPI0.c ****     #if(SD_FIlesystem_SPI0_TX_SOFTWARE_BUF_ENABLED || SD_FIlesystem_SPI0_RX_SOFTWARE_BUF_ENABLED)
1131:.\Generated_Source\PSoC5/SD_FIlesystem_SPI0.c **** 
1132:.\Generated_Source\PSoC5/SD_FIlesystem_SPI0.c ****         SD_FIlesystem_SPI0_DisableInt();
1133:.\Generated_Source\PSoC5/SD_FIlesystem_SPI0.c **** 
1134:.\Generated_Source\PSoC5/SD_FIlesystem_SPI0.c ****         tmpStatus  = SD_FIlesystem_SPI0_GET_STATUS_RX(SD_FIlesystem_SPI0_swStatusRx);
1135:.\Generated_Source\PSoC5/SD_FIlesystem_SPI0.c ****         tmpStatus |= SD_FIlesystem_SPI0_GET_STATUS_TX(SD_FIlesystem_SPI0_swStatusTx);
1136:.\Generated_Source\PSoC5/SD_FIlesystem_SPI0.c ****         tmpStatus &= ((uint8) ~SD_FIlesystem_SPI0_STS_SPI_IDLE);
1137:.\Generated_Source\PSoC5/SD_FIlesystem_SPI0.c **** 
1138:.\Generated_Source\PSoC5/SD_FIlesystem_SPI0.c ****         SD_FIlesystem_SPI0_swStatusTx = 0u;
1139:.\Generated_Source\PSoC5/SD_FIlesystem_SPI0.c ****         SD_FIlesystem_SPI0_swStatusRx = 0u;
1140:.\Generated_Source\PSoC5/SD_FIlesystem_SPI0.c **** 
1141:.\Generated_Source\PSoC5/SD_FIlesystem_SPI0.c ****         SD_FIlesystem_SPI0_EnableInt();
1142:.\Generated_Source\PSoC5/SD_FIlesystem_SPI0.c **** 
1143:.\Generated_Source\PSoC5/SD_FIlesystem_SPI0.c ****     #else
1144:.\Generated_Source\PSoC5/SD_FIlesystem_SPI0.c **** 
1145:.\Generated_Source\PSoC5/SD_FIlesystem_SPI0.c ****         tmpStatus  = SD_FIlesystem_SPI0_RX_STATUS_REG;
 746              		.loc 1 1145 0
 747 0000 034B     		ldr	r3, .L77
 748 0002 1B78     		ldrb	r3, [r3]	@ zero_extendqisi2
 749              	.LVL31:
1146:.\Generated_Source\PSoC5/SD_FIlesystem_SPI0.c ****         tmpStatus |= SD_FIlesystem_SPI0_TX_STATUS_REG;
 750              		.loc 1 1146 0
 751 0004 034A     		ldr	r2, .L77+4
 752 0006 1078     		ldrb	r0, [r2]	@ zero_extendqisi2
 753 0008 1843     		orrs	r0, r0, r3
 754              	.LVL32:
1147:.\Generated_Source\PSoC5/SD_FIlesystem_SPI0.c ****         tmpStatus &= ((uint8) ~SD_FIlesystem_SPI0_STS_SPI_IDLE);
1148:.\Generated_Source\PSoC5/SD_FIlesystem_SPI0.c **** 
1149:.\Generated_Source\PSoC5/SD_FIlesystem_SPI0.c ****     #endif /* (SD_FIlesystem_SPI0_TX_SOFTWARE_BUF_ENABLED || SD_FIlesystem_SPI0_RX_SOFTWARE_BUF_ENA
1150:.\Generated_Source\PSoC5/SD_FIlesystem_SPI0.c **** 
1151:.\Generated_Source\PSoC5/SD_FIlesystem_SPI0.c ****     return(tmpStatus);
1152:.\Generated_Source\PSoC5/SD_FIlesystem_SPI0.c **** }
 755              		.loc 1 1152 0
 756 000a 00F0EF00 		and	r0, r0, #239
 757              	.LVL33:
 758 000e 7047     		bx	lr
 759              	.L78:
 760              		.align	2
 761              	.L77:
 762 0010 66650040 		.word	1073767782
 763 0014 67650040 		.word	1073767783
 764              		.cfi_endproc
 765              	.LFE23:
 766              		.size	SD_FIlesystem_SPI0_ReadStatus, .-SD_FIlesystem_SPI0_ReadStatus
 767              		.comm	SD_FIlesystem_SPI0_swStatusRx,1,1
 768              		.comm	SD_FIlesystem_SPI0_swStatusTx,1,1
 769              		.global	SD_FIlesystem_SPI0_initVar
 770              		.bss
ARM GAS  C:\Users\User\AppData\Local\Temp\ccohLGUd.s 			page 35


 771              		.set	.LANCHOR0,. + 0
 772              		.type	SD_FIlesystem_SPI0_initVar, %object
 773              		.size	SD_FIlesystem_SPI0_initVar, 1
 774              	SD_FIlesystem_SPI0_initVar:
 775 0000 00       		.space	1
 776              		.text
 777              	.Letext0:
 778              		.file 2 ".\\Generated_Source\\PSoC5\\cytypes.h"
 779              		.file 3 ".\\Generated_Source\\PSoC5\\CyLib.h"