ARM GAS  C:\Users\User\AppData\Local\Temp\cceN8Gtg.s 			page 1


   1              		.syntax unified
   2              		.cpu cortex-m3
   3              		.fpu softvfp
   4              		.eabi_attribute 20, 1
   5              		.eabi_attribute 21, 1
   6              		.eabi_attribute 23, 3
   7              		.eabi_attribute 24, 1
   8              		.eabi_attribute 25, 1
   9              		.eabi_attribute 26, 1
  10              		.eabi_attribute 30, 1
  11              		.eabi_attribute 34, 1
  12              		.eabi_attribute 18, 4
  13              		.thumb
  14              		.file	"SD_FS_SPI0_PM.c"
  15              		.text
  16              	.Ltext0:
  17              		.cfi_sections	.debug_frame
  18              		.section	.text.SD_FS_SPI0_SaveConfig,"ax",%progbits
  19              		.align	2
  20              		.global	SD_FS_SPI0_SaveConfig
  21              		.thumb
  22              		.thumb_func
  23              		.type	SD_FS_SPI0_SaveConfig, %function
  24              	SD_FS_SPI0_SaveConfig:
  25              	.LFB0:
  26              		.file 1 ".\\Generated_Source\\PSoC5\\SD_FS_SPI0_PM.c"
   1:.\Generated_Source\PSoC5/SD_FS_SPI0_PM.c **** /*******************************************************************************
   2:.\Generated_Source\PSoC5/SD_FS_SPI0_PM.c **** * File Name: SD_FS_SPI0_PM.c
   3:.\Generated_Source\PSoC5/SD_FS_SPI0_PM.c **** * Version 2.40
   4:.\Generated_Source\PSoC5/SD_FS_SPI0_PM.c **** *
   5:.\Generated_Source\PSoC5/SD_FS_SPI0_PM.c **** * Description:
   6:.\Generated_Source\PSoC5/SD_FS_SPI0_PM.c **** *  This file contains the setup, control and status commands to support
   7:.\Generated_Source\PSoC5/SD_FS_SPI0_PM.c **** *  component operations in low power mode.
   8:.\Generated_Source\PSoC5/SD_FS_SPI0_PM.c **** *
   9:.\Generated_Source\PSoC5/SD_FS_SPI0_PM.c **** * Note:
  10:.\Generated_Source\PSoC5/SD_FS_SPI0_PM.c **** *
  11:.\Generated_Source\PSoC5/SD_FS_SPI0_PM.c **** ********************************************************************************
  12:.\Generated_Source\PSoC5/SD_FS_SPI0_PM.c **** * Copyright 2008-2012, Cypress Semiconductor Corporation.  All rights reserved.
  13:.\Generated_Source\PSoC5/SD_FS_SPI0_PM.c **** * You may use this file only in accordance with the license, terms, conditions,
  14:.\Generated_Source\PSoC5/SD_FS_SPI0_PM.c **** * disclaimers, and limitations in the end user license agreement accompanying
  15:.\Generated_Source\PSoC5/SD_FS_SPI0_PM.c **** * the software package with which this file was provided.
  16:.\Generated_Source\PSoC5/SD_FS_SPI0_PM.c **** *******************************************************************************/
  17:.\Generated_Source\PSoC5/SD_FS_SPI0_PM.c **** 
  18:.\Generated_Source\PSoC5/SD_FS_SPI0_PM.c **** #include "SD_FS_SPI0_PVT.h"
  19:.\Generated_Source\PSoC5/SD_FS_SPI0_PM.c **** 
  20:.\Generated_Source\PSoC5/SD_FS_SPI0_PM.c **** static SD_FS_SPI0_BACKUP_STRUCT SD_FS_SPI0_backup =
  21:.\Generated_Source\PSoC5/SD_FS_SPI0_PM.c **** {
  22:.\Generated_Source\PSoC5/SD_FS_SPI0_PM.c ****     SD_FS_SPI0_DISABLED,
  23:.\Generated_Source\PSoC5/SD_FS_SPI0_PM.c ****     SD_FS_SPI0_BITCTR_INIT,
  24:.\Generated_Source\PSoC5/SD_FS_SPI0_PM.c ****     #if(CY_UDB_V0)
  25:.\Generated_Source\PSoC5/SD_FS_SPI0_PM.c ****         SD_FS_SPI0_TX_INIT_INTERRUPTS_MASK,
  26:.\Generated_Source\PSoC5/SD_FS_SPI0_PM.c ****         SD_FS_SPI0_RX_INIT_INTERRUPTS_MASK
  27:.\Generated_Source\PSoC5/SD_FS_SPI0_PM.c ****     #endif /* CY_UDB_V0 */
  28:.\Generated_Source\PSoC5/SD_FS_SPI0_PM.c **** };
  29:.\Generated_Source\PSoC5/SD_FS_SPI0_PM.c **** 
  30:.\Generated_Source\PSoC5/SD_FS_SPI0_PM.c **** 
  31:.\Generated_Source\PSoC5/SD_FS_SPI0_PM.c **** /*******************************************************************************
ARM GAS  C:\Users\User\AppData\Local\Temp\cceN8Gtg.s 			page 2


  32:.\Generated_Source\PSoC5/SD_FS_SPI0_PM.c **** * Function Name: SD_FS_SPI0_SaveConfig
  33:.\Generated_Source\PSoC5/SD_FS_SPI0_PM.c **** ********************************************************************************
  34:.\Generated_Source\PSoC5/SD_FS_SPI0_PM.c **** *
  35:.\Generated_Source\PSoC5/SD_FS_SPI0_PM.c **** * Summary:
  36:.\Generated_Source\PSoC5/SD_FS_SPI0_PM.c **** *  Saves SPIM configuration.
  37:.\Generated_Source\PSoC5/SD_FS_SPI0_PM.c **** *
  38:.\Generated_Source\PSoC5/SD_FS_SPI0_PM.c **** * Parameters:
  39:.\Generated_Source\PSoC5/SD_FS_SPI0_PM.c **** *  None.
  40:.\Generated_Source\PSoC5/SD_FS_SPI0_PM.c **** *
  41:.\Generated_Source\PSoC5/SD_FS_SPI0_PM.c **** * Return:
  42:.\Generated_Source\PSoC5/SD_FS_SPI0_PM.c **** *  None.
  43:.\Generated_Source\PSoC5/SD_FS_SPI0_PM.c **** *
  44:.\Generated_Source\PSoC5/SD_FS_SPI0_PM.c **** * Global Variables:
  45:.\Generated_Source\PSoC5/SD_FS_SPI0_PM.c **** *  SD_FS_SPI0_backup - modified when non-retention registers are saved.
  46:.\Generated_Source\PSoC5/SD_FS_SPI0_PM.c **** *
  47:.\Generated_Source\PSoC5/SD_FS_SPI0_PM.c **** * Reentrant:
  48:.\Generated_Source\PSoC5/SD_FS_SPI0_PM.c **** *  No.
  49:.\Generated_Source\PSoC5/SD_FS_SPI0_PM.c **** *
  50:.\Generated_Source\PSoC5/SD_FS_SPI0_PM.c **** *******************************************************************************/
  51:.\Generated_Source\PSoC5/SD_FS_SPI0_PM.c **** void SD_FS_SPI0_SaveConfig(void) 
  52:.\Generated_Source\PSoC5/SD_FS_SPI0_PM.c **** {
  27              		.loc 1 52 0
  28              		.cfi_startproc
  29              		@ args = 0, pretend = 0, frame = 0
  30              		@ frame_needed = 0, uses_anonymous_args = 0
  31              		@ link register save eliminated.
  32 0000 7047     		bx	lr
  33              		.cfi_endproc
  34              	.LFE0:
  35              		.size	SD_FS_SPI0_SaveConfig, .-SD_FS_SPI0_SaveConfig
  36 0002 00BF     		.section	.text.SD_FS_SPI0_RestoreConfig,"ax",%progbits
  37              		.align	2
  38              		.global	SD_FS_SPI0_RestoreConfig
  39              		.thumb
  40              		.thumb_func
  41              		.type	SD_FS_SPI0_RestoreConfig, %function
  42              	SD_FS_SPI0_RestoreConfig:
  43              	.LFB1:
  53:.\Generated_Source\PSoC5/SD_FS_SPI0_PM.c ****     /* Store Status Mask registers */
  54:.\Generated_Source\PSoC5/SD_FS_SPI0_PM.c ****     #if(CY_UDB_V0)
  55:.\Generated_Source\PSoC5/SD_FS_SPI0_PM.c ****        SD_FS_SPI0_backup.cntrPeriod      = SD_FS_SPI0_COUNTER_PERIOD_REG;
  56:.\Generated_Source\PSoC5/SD_FS_SPI0_PM.c ****        SD_FS_SPI0_backup.saveSrTxIntMask = SD_FS_SPI0_TX_STATUS_MASK_REG;
  57:.\Generated_Source\PSoC5/SD_FS_SPI0_PM.c ****        SD_FS_SPI0_backup.saveSrRxIntMask = SD_FS_SPI0_RX_STATUS_MASK_REG;
  58:.\Generated_Source\PSoC5/SD_FS_SPI0_PM.c ****     #endif /* (CY_UDB_V0) */
  59:.\Generated_Source\PSoC5/SD_FS_SPI0_PM.c **** }
  60:.\Generated_Source\PSoC5/SD_FS_SPI0_PM.c **** 
  61:.\Generated_Source\PSoC5/SD_FS_SPI0_PM.c **** 
  62:.\Generated_Source\PSoC5/SD_FS_SPI0_PM.c **** /*******************************************************************************
  63:.\Generated_Source\PSoC5/SD_FS_SPI0_PM.c **** * Function Name: SD_FS_SPI0_RestoreConfig
  64:.\Generated_Source\PSoC5/SD_FS_SPI0_PM.c **** ********************************************************************************
  65:.\Generated_Source\PSoC5/SD_FS_SPI0_PM.c **** *
  66:.\Generated_Source\PSoC5/SD_FS_SPI0_PM.c **** * Summary:
  67:.\Generated_Source\PSoC5/SD_FS_SPI0_PM.c **** *  Restores SPIM configuration.
  68:.\Generated_Source\PSoC5/SD_FS_SPI0_PM.c **** *
  69:.\Generated_Source\PSoC5/SD_FS_SPI0_PM.c **** * Parameters:
  70:.\Generated_Source\PSoC5/SD_FS_SPI0_PM.c **** *  None.
  71:.\Generated_Source\PSoC5/SD_FS_SPI0_PM.c **** *
ARM GAS  C:\Users\User\AppData\Local\Temp\cceN8Gtg.s 			page 3


  72:.\Generated_Source\PSoC5/SD_FS_SPI0_PM.c **** * Return:
  73:.\Generated_Source\PSoC5/SD_FS_SPI0_PM.c **** *  None.
  74:.\Generated_Source\PSoC5/SD_FS_SPI0_PM.c **** *
  75:.\Generated_Source\PSoC5/SD_FS_SPI0_PM.c **** * Global Variables:
  76:.\Generated_Source\PSoC5/SD_FS_SPI0_PM.c **** *  SD_FS_SPI0_backup - used when non-retention registers are restored.
  77:.\Generated_Source\PSoC5/SD_FS_SPI0_PM.c **** *
  78:.\Generated_Source\PSoC5/SD_FS_SPI0_PM.c **** * Side Effects:
  79:.\Generated_Source\PSoC5/SD_FS_SPI0_PM.c **** *  If this API is called without first calling SaveConfig then in the following
  80:.\Generated_Source\PSoC5/SD_FS_SPI0_PM.c **** *  registers will be default values from Customizer:
  81:.\Generated_Source\PSoC5/SD_FS_SPI0_PM.c **** *  SD_FS_SPI0_STATUS_MASK_REG and SD_FS_SPI0_COUNTER_PERIOD_REG.
  82:.\Generated_Source\PSoC5/SD_FS_SPI0_PM.c **** *
  83:.\Generated_Source\PSoC5/SD_FS_SPI0_PM.c **** *******************************************************************************/
  84:.\Generated_Source\PSoC5/SD_FS_SPI0_PM.c **** void SD_FS_SPI0_RestoreConfig(void) 
  85:.\Generated_Source\PSoC5/SD_FS_SPI0_PM.c **** {
  44              		.loc 1 85 0
  45              		.cfi_startproc
  46              		@ args = 0, pretend = 0, frame = 0
  47              		@ frame_needed = 0, uses_anonymous_args = 0
  48              		@ link register save eliminated.
  49 0000 7047     		bx	lr
  50              		.cfi_endproc
  51              	.LFE1:
  52              		.size	SD_FS_SPI0_RestoreConfig, .-SD_FS_SPI0_RestoreConfig
  53 0002 00BF     		.section	.text.SD_FS_SPI0_Sleep,"ax",%progbits
  54              		.align	2
  55              		.global	SD_FS_SPI0_Sleep
  56              		.thumb
  57              		.thumb_func
  58              		.type	SD_FS_SPI0_Sleep, %function
  59              	SD_FS_SPI0_Sleep:
  60              	.LFB2:
  86:.\Generated_Source\PSoC5/SD_FS_SPI0_PM.c ****     /* Restore the data, saved by SaveConfig() function */
  87:.\Generated_Source\PSoC5/SD_FS_SPI0_PM.c ****     #if(CY_UDB_V0)
  88:.\Generated_Source\PSoC5/SD_FS_SPI0_PM.c ****         SD_FS_SPI0_COUNTER_PERIOD_REG = SD_FS_SPI0_backup.cntrPeriod;
  89:.\Generated_Source\PSoC5/SD_FS_SPI0_PM.c ****         SD_FS_SPI0_TX_STATUS_MASK_REG = ((uint8) SD_FS_SPI0_backup.saveSrTxIntMask);
  90:.\Generated_Source\PSoC5/SD_FS_SPI0_PM.c ****         SD_FS_SPI0_RX_STATUS_MASK_REG = ((uint8) SD_FS_SPI0_backup.saveSrRxIntMask);
  91:.\Generated_Source\PSoC5/SD_FS_SPI0_PM.c ****     #endif /* (CY_UDB_V0) */
  92:.\Generated_Source\PSoC5/SD_FS_SPI0_PM.c **** }
  93:.\Generated_Source\PSoC5/SD_FS_SPI0_PM.c **** 
  94:.\Generated_Source\PSoC5/SD_FS_SPI0_PM.c **** 
  95:.\Generated_Source\PSoC5/SD_FS_SPI0_PM.c **** /*******************************************************************************
  96:.\Generated_Source\PSoC5/SD_FS_SPI0_PM.c **** * Function Name: SD_FS_SPI0_Sleep
  97:.\Generated_Source\PSoC5/SD_FS_SPI0_PM.c **** ********************************************************************************
  98:.\Generated_Source\PSoC5/SD_FS_SPI0_PM.c **** *
  99:.\Generated_Source\PSoC5/SD_FS_SPI0_PM.c **** * Summary:
 100:.\Generated_Source\PSoC5/SD_FS_SPI0_PM.c **** *  Prepare SPIM Component goes to sleep.
 101:.\Generated_Source\PSoC5/SD_FS_SPI0_PM.c **** *
 102:.\Generated_Source\PSoC5/SD_FS_SPI0_PM.c **** * Parameters:
 103:.\Generated_Source\PSoC5/SD_FS_SPI0_PM.c **** *  None.
 104:.\Generated_Source\PSoC5/SD_FS_SPI0_PM.c **** *
 105:.\Generated_Source\PSoC5/SD_FS_SPI0_PM.c **** * Return:
 106:.\Generated_Source\PSoC5/SD_FS_SPI0_PM.c **** *  None.
 107:.\Generated_Source\PSoC5/SD_FS_SPI0_PM.c **** *
 108:.\Generated_Source\PSoC5/SD_FS_SPI0_PM.c **** * Global Variables:
 109:.\Generated_Source\PSoC5/SD_FS_SPI0_PM.c **** *  SD_FS_SPI0_backup - modified when non-retention registers are saved.
 110:.\Generated_Source\PSoC5/SD_FS_SPI0_PM.c **** *
 111:.\Generated_Source\PSoC5/SD_FS_SPI0_PM.c **** * Reentrant:
ARM GAS  C:\Users\User\AppData\Local\Temp\cceN8Gtg.s 			page 4


 112:.\Generated_Source\PSoC5/SD_FS_SPI0_PM.c **** *  No.
 113:.\Generated_Source\PSoC5/SD_FS_SPI0_PM.c **** *
 114:.\Generated_Source\PSoC5/SD_FS_SPI0_PM.c **** *******************************************************************************/
 115:.\Generated_Source\PSoC5/SD_FS_SPI0_PM.c **** void SD_FS_SPI0_Sleep(void) 
 116:.\Generated_Source\PSoC5/SD_FS_SPI0_PM.c **** {
  61              		.loc 1 116 0
  62              		.cfi_startproc
  63              		@ args = 0, pretend = 0, frame = 0
  64              		@ frame_needed = 0, uses_anonymous_args = 0
  65              		.loc 1 116 0
  66 0000 08B5     		push	{r3, lr}
  67              		.cfi_def_cfa_offset 8
  68              		.cfi_offset 3, -8
  69              		.cfi_offset 14, -4
 117:.\Generated_Source\PSoC5/SD_FS_SPI0_PM.c ****     /* Save components enable state */
 118:.\Generated_Source\PSoC5/SD_FS_SPI0_PM.c ****     SD_FS_SPI0_backup.enableState = ((uint8) SD_FS_SPI0_IS_ENABLED);
  70              		.loc 1 118 0
  71 0002 044B     		ldr	r3, .L5
  72 0004 1B78     		ldrb	r3, [r3]	@ zero_extendqisi2
  73 0006 C3F30013 		ubfx	r3, r3, #4, #1
  74 000a 034A     		ldr	r2, .L5+4
  75 000c 1370     		strb	r3, [r2]
 119:.\Generated_Source\PSoC5/SD_FS_SPI0_PM.c **** 
 120:.\Generated_Source\PSoC5/SD_FS_SPI0_PM.c ****     SD_FS_SPI0_Stop();
  76              		.loc 1 120 0
  77 000e FFF7FEFF 		bl	SD_FS_SPI0_Stop
  78              	.LVL0:
  79 0012 08BD     		pop	{r3, pc}
  80              	.L6:
  81              		.align	2
  82              	.L5:
  83 0014 97650040 		.word	1073767831
  84 0018 00000000 		.word	.LANCHOR0
  85              		.cfi_endproc
  86              	.LFE2:
  87              		.size	SD_FS_SPI0_Sleep, .-SD_FS_SPI0_Sleep
  88              		.section	.text.SD_FS_SPI0_Wakeup,"ax",%progbits
  89              		.align	2
  90              		.global	SD_FS_SPI0_Wakeup
  91              		.thumb
  92              		.thumb_func
  93              		.type	SD_FS_SPI0_Wakeup, %function
  94              	SD_FS_SPI0_Wakeup:
  95              	.LFB3:
 121:.\Generated_Source\PSoC5/SD_FS_SPI0_PM.c ****     SD_FS_SPI0_SaveConfig();
 122:.\Generated_Source\PSoC5/SD_FS_SPI0_PM.c **** }
 123:.\Generated_Source\PSoC5/SD_FS_SPI0_PM.c **** 
 124:.\Generated_Source\PSoC5/SD_FS_SPI0_PM.c **** 
 125:.\Generated_Source\PSoC5/SD_FS_SPI0_PM.c **** /*******************************************************************************
 126:.\Generated_Source\PSoC5/SD_FS_SPI0_PM.c **** * Function Name: SD_FS_SPI0_Wakeup
 127:.\Generated_Source\PSoC5/SD_FS_SPI0_PM.c **** ********************************************************************************
 128:.\Generated_Source\PSoC5/SD_FS_SPI0_PM.c **** *
 129:.\Generated_Source\PSoC5/SD_FS_SPI0_PM.c **** * Summary:
 130:.\Generated_Source\PSoC5/SD_FS_SPI0_PM.c **** *  Prepare SPIM Component to wake up.
 131:.\Generated_Source\PSoC5/SD_FS_SPI0_PM.c **** *
 132:.\Generated_Source\PSoC5/SD_FS_SPI0_PM.c **** * Parameters:
 133:.\Generated_Source\PSoC5/SD_FS_SPI0_PM.c **** *  None.
ARM GAS  C:\Users\User\AppData\Local\Temp\cceN8Gtg.s 			page 5


 134:.\Generated_Source\PSoC5/SD_FS_SPI0_PM.c **** *
 135:.\Generated_Source\PSoC5/SD_FS_SPI0_PM.c **** * Return:
 136:.\Generated_Source\PSoC5/SD_FS_SPI0_PM.c **** *  None.
 137:.\Generated_Source\PSoC5/SD_FS_SPI0_PM.c **** *
 138:.\Generated_Source\PSoC5/SD_FS_SPI0_PM.c **** * Global Variables:
 139:.\Generated_Source\PSoC5/SD_FS_SPI0_PM.c **** *  SD_FS_SPI0_backup - used when non-retention registers are restored.
 140:.\Generated_Source\PSoC5/SD_FS_SPI0_PM.c **** *  SD_FS_SPI0_txBufferWrite - modified every function call - resets to
 141:.\Generated_Source\PSoC5/SD_FS_SPI0_PM.c **** *  zero.
 142:.\Generated_Source\PSoC5/SD_FS_SPI0_PM.c **** *  SD_FS_SPI0_txBufferRead - modified every function call - resets to
 143:.\Generated_Source\PSoC5/SD_FS_SPI0_PM.c **** *  zero.
 144:.\Generated_Source\PSoC5/SD_FS_SPI0_PM.c **** *  SD_FS_SPI0_rxBufferWrite - modified every function call - resets to
 145:.\Generated_Source\PSoC5/SD_FS_SPI0_PM.c **** *  zero.
 146:.\Generated_Source\PSoC5/SD_FS_SPI0_PM.c **** *  SD_FS_SPI0_rxBufferRead - modified every function call - resets to
 147:.\Generated_Source\PSoC5/SD_FS_SPI0_PM.c **** *  zero.
 148:.\Generated_Source\PSoC5/SD_FS_SPI0_PM.c **** *
 149:.\Generated_Source\PSoC5/SD_FS_SPI0_PM.c **** * Reentrant:
 150:.\Generated_Source\PSoC5/SD_FS_SPI0_PM.c **** *  No.
 151:.\Generated_Source\PSoC5/SD_FS_SPI0_PM.c **** *
 152:.\Generated_Source\PSoC5/SD_FS_SPI0_PM.c **** *******************************************************************************/
 153:.\Generated_Source\PSoC5/SD_FS_SPI0_PM.c **** void SD_FS_SPI0_Wakeup(void) 
 154:.\Generated_Source\PSoC5/SD_FS_SPI0_PM.c **** {
  96              		.loc 1 154 0
  97              		.cfi_startproc
  98              		@ args = 0, pretend = 0, frame = 0
  99              		@ frame_needed = 0, uses_anonymous_args = 0
 100 0000 08B5     		push	{r3, lr}
 101              		.cfi_def_cfa_offset 8
 102              		.cfi_offset 3, -8
 103              		.cfi_offset 14, -4
 155:.\Generated_Source\PSoC5/SD_FS_SPI0_PM.c ****     SD_FS_SPI0_RestoreConfig();
 156:.\Generated_Source\PSoC5/SD_FS_SPI0_PM.c **** 
 157:.\Generated_Source\PSoC5/SD_FS_SPI0_PM.c ****     #if(SD_FS_SPI0_RX_SOFTWARE_BUF_ENABLED)
 158:.\Generated_Source\PSoC5/SD_FS_SPI0_PM.c ****         SD_FS_SPI0_rxBufferFull  = 0u;
 159:.\Generated_Source\PSoC5/SD_FS_SPI0_PM.c ****         SD_FS_SPI0_rxBufferRead  = 0u;
 160:.\Generated_Source\PSoC5/SD_FS_SPI0_PM.c ****         SD_FS_SPI0_rxBufferWrite = 0u;
 161:.\Generated_Source\PSoC5/SD_FS_SPI0_PM.c ****     #endif /* (SD_FS_SPI0_RX_SOFTWARE_BUF_ENABLED) */
 162:.\Generated_Source\PSoC5/SD_FS_SPI0_PM.c **** 
 163:.\Generated_Source\PSoC5/SD_FS_SPI0_PM.c ****     #if(SD_FS_SPI0_TX_SOFTWARE_BUF_ENABLED)
 164:.\Generated_Source\PSoC5/SD_FS_SPI0_PM.c ****         SD_FS_SPI0_txBufferFull  = 0u;
 165:.\Generated_Source\PSoC5/SD_FS_SPI0_PM.c ****         SD_FS_SPI0_txBufferRead  = 0u;
 166:.\Generated_Source\PSoC5/SD_FS_SPI0_PM.c ****         SD_FS_SPI0_txBufferWrite = 0u;
 167:.\Generated_Source\PSoC5/SD_FS_SPI0_PM.c ****     #endif /* (SD_FS_SPI0_TX_SOFTWARE_BUF_ENABLED) */
 168:.\Generated_Source\PSoC5/SD_FS_SPI0_PM.c **** 
 169:.\Generated_Source\PSoC5/SD_FS_SPI0_PM.c ****     /* Clear any data from the RX and TX FIFO */
 170:.\Generated_Source\PSoC5/SD_FS_SPI0_PM.c ****     SD_FS_SPI0_ClearFIFO();
 104              		.loc 1 170 0
 105 0002 FFF7FEFF 		bl	SD_FS_SPI0_ClearFIFO
 106              	.LVL1:
 171:.\Generated_Source\PSoC5/SD_FS_SPI0_PM.c **** 
 172:.\Generated_Source\PSoC5/SD_FS_SPI0_PM.c ****     /* Restore components block enable state */
 173:.\Generated_Source\PSoC5/SD_FS_SPI0_PM.c ****     if(0u != SD_FS_SPI0_backup.enableState)
 107              		.loc 1 173 0
 108 0006 034B     		ldr	r3, .L10
 109 0008 1B78     		ldrb	r3, [r3]	@ zero_extendqisi2
 110 000a 0BB1     		cbz	r3, .L7
 174:.\Generated_Source\PSoC5/SD_FS_SPI0_PM.c ****     {
 175:.\Generated_Source\PSoC5/SD_FS_SPI0_PM.c ****         SD_FS_SPI0_Enable();
ARM GAS  C:\Users\User\AppData\Local\Temp\cceN8Gtg.s 			page 6


 111              		.loc 1 175 0
 112 000c FFF7FEFF 		bl	SD_FS_SPI0_Enable
 113              	.LVL2:
 114              	.L7:
 115 0010 08BD     		pop	{r3, pc}
 116              	.L11:
 117 0012 00BF     		.align	2
 118              	.L10:
 119 0014 00000000 		.word	.LANCHOR0
 120              		.cfi_endproc
 121              	.LFE3:
 122              		.size	SD_FS_SPI0_Wakeup, .-SD_FS_SPI0_Wakeup
 123              		.data
 124              		.align	2
 125              		.set	.LANCHOR0,. + 0
 126              		.type	SD_FS_SPI0_backup, %object
 127              		.size	SD_FS_SPI0_backup, 2
 128              	SD_FS_SPI0_backup:
 129 0000 00       		.byte	0
 130 0001 0F       		.byte	15
 131 0002 0000     		.text
 132              	.Letext0:
 133              		.file 2 ".\\Generated_Source\\PSoC5\\cytypes.h"
 134              		.file 3 ".\\Generated_Source\\PSoC5\\SD_FS_SPI0.h"