ARM GAS  C:\Users\User\AppData\Local\Temp\ccX7HAxZ.s 			page 1


   1              		.syntax unified
   2              		.cpu cortex-m3
   3              		.fpu softvfp
   4              		.eabi_attribute 20, 1
   5              		.eabi_attribute 21, 1
   6              		.eabi_attribute 23, 3
   7              		.eabi_attribute 24, 1
   8              		.eabi_attribute 25, 1
   9              		.eabi_attribute 26, 1
  10              		.eabi_attribute 30, 1
  11              		.eabi_attribute 34, 1
  12              		.eabi_attribute 18, 4
  13              		.thumb
  14              		.file	"sprites.c"
  15              		.text
  16              	.Ltext0:
  17              		.cfi_sections	.debug_frame
  18              		.global	__aeabi_i2f
  19              		.global	__aeabi_fmul
  20              		.global	__aeabi_f2d
  21              		.global	__aeabi_dsub
  22              		.global	__aeabi_dmul
  23              		.global	__aeabi_d2uiz
  24              		.global	__aeabi_dadd
  25              		.section	.text.init_sprites,"ax",%progbits
  26              		.align	2
  27              		.global	init_sprites
  28              		.thumb
  29              		.thumb_func
  30              		.type	init_sprites, %function
  31              	init_sprites:
  32              	.LFB0:
  33              		.file 1 ".\\sprites.c"
   1:.\sprites.c   **** /* ========================================
   2:.\sprites.c   ****  *
   3:.\sprites.c   ****  * Copyright Andi Qu, 2024
   4:.\sprites.c   ****  * All Rights Reserved
   5:.\sprites.c   ****  * UNPUBLISHED, LICENSED SOFTWARE.
   6:.\sprites.c   ****  *
   7:.\sprites.c   ****  * CONFIDENTIAL AND PROPRIETARY INFORMATION
   8:.\sprites.c   ****  * WHICH IS THE PROPERTY OF ANDI QU.
   9:.\sprites.c   ****  *
  10:.\sprites.c   ****  * ========================================
  11:.\sprites.c   ****  */
  12:.\sprites.c   **** 
  13:.\sprites.c   **** #include <sprites.h>
  14:.\sprites.c   **** #include <math.h>
  15:.\sprites.c   **** 
  16:.\sprites.c   **** static const float PI = 3.14159265358979323846;
  17:.\sprites.c   **** 
  18:.\sprites.c   **** static struct Point sprite_vertices[4][256];
  19:.\sprites.c   **** static int sprite_n[4];
  20:.\sprites.c   **** 
  21:.\sprites.c   **** /*
  22:.\sprites.c   ****  * Initializes the vertices to be shared between sprites
  23:.\sprites.c   ****  */
  24:.\sprites.c   **** void init_sprites() {
ARM GAS  C:\Users\User\AppData\Local\Temp\ccX7HAxZ.s 			page 2


  34              		.loc 1 24 0
  35              		.cfi_startproc
  36              		@ args = 0, pretend = 0, frame = 0
  37              		@ frame_needed = 0, uses_anonymous_args = 0
  38 0000 2DE9F843 		push	{r3, r4, r5, r6, r7, r8, r9, lr}
  39              		.cfi_def_cfa_offset 32
  40              		.cfi_offset 3, -32
  41              		.cfi_offset 4, -28
  42              		.cfi_offset 5, -24
  43              		.cfi_offset 6, -20
  44              		.cfi_offset 7, -16
  45              		.cfi_offset 8, -12
  46              		.cfi_offset 9, -8
  47              		.cfi_offset 14, -4
  48              	.LVL0:
  49              	.LBB2:
  50              	.LBB3:
  25:.\sprites.c   ****     // Fretboard
  26:.\sprites.c   ****     {
  27:.\sprites.c   ****         const int resolution = 32;
  28:.\sprites.c   ****         int n = 0;
  29:.\sprites.c   ****         // Bottom edge
  30:.\sprites.c   ****         for (int i = 0; i < resolution; i++) {
  51              		.loc 1 30 0
  52 0004 0022     		movs	r2, #0
  53              	.LBE3:
  28:.\sprites.c   ****         // Bottom edge
  54              		.loc 1 28 0
  55 0006 1346     		mov	r3, r2
  56              	.LBB4:
  57              		.loc 1 30 0
  58 0008 11E0     		b	.L2
  59              	.LVL1:
  60              	.L4:
  31:.\sprites.c   ****             sprite_vertices[FRETBOARD][n++] = (struct Point) {
  61              		.loc 1 31 0 discriminator 3
  62 000a 5C1C     		adds	r4, r3, #1
  63              	.LVL2:
  32:.\sprites.c   ****                 .x = UINT8_MAX * i / resolution,
  64              		.loc 1 32 0 discriminator 3
  65 000c C2EB0220 		rsb	r0, r2, r2, lsl #8
  66 0010 0146     		mov	r1, r0
  67 0012 0028     		cmp	r0, #0
  68 0014 01DA     		bge	.L3
  69 0016 00F11F01 		add	r1, r0, #31
  70              	.L3:
  71 001a 4811     		asrs	r0, r1, #5
  31:.\sprites.c   ****             sprite_vertices[FRETBOARD][n++] = (struct Point) {
  72              		.loc 1 31 0 discriminator 3
  73 001c B249     		ldr	r1, .L29
  74 001e 01F81300 		strb	r0, [r1, r3, lsl #1]
  75 0022 01EB4303 		add	r3, r1, r3, lsl #1
  76 0026 0021     		movs	r1, #0
  77 0028 5970     		strb	r1, [r3, #1]
  30:.\sprites.c   ****             sprite_vertices[FRETBOARD][n++] = (struct Point) {
  78              		.loc 1 30 0 discriminator 3
  79 002a 0132     		adds	r2, r2, #1
ARM GAS  C:\Users\User\AppData\Local\Temp\ccX7HAxZ.s 			page 3


  80              	.LVL3:
  31:.\sprites.c   ****             sprite_vertices[FRETBOARD][n++] = (struct Point) {
  81              		.loc 1 31 0 discriminator 3
  82 002c 2346     		mov	r3, r4
  83              	.LVL4:
  84              	.L2:
  30:.\sprites.c   ****             sprite_vertices[FRETBOARD][n++] = (struct Point) {
  85              		.loc 1 30 0 discriminator 1
  86 002e 1F2A     		cmp	r2, #31
  87 0030 EBDD     		ble	.L4
  88 0032 0022     		movs	r2, #0
  89              	.LVL5:
  90 0034 11E0     		b	.L5
  91              	.LVL6:
  92              	.L7:
  93              	.LBE4:
  94              	.LBB5:
  33:.\sprites.c   ****                 .y = 0
  34:.\sprites.c   ****             };
  35:.\sprites.c   ****         }
  36:.\sprites.c   ****         // Right edge
  37:.\sprites.c   ****         for (int i = 0; i < resolution; i++) {
  38:.\sprites.c   ****             sprite_vertices[FRETBOARD][n++] = (struct Point) {
  95              		.loc 1 38 0 discriminator 3
  96 0036 5C1C     		adds	r4, r3, #1
  97              	.LVL7:
  39:.\sprites.c   ****                 .x = UINT8_MAX,
  40:.\sprites.c   ****                 .y = UINT8_MAX * i / resolution
  98              		.loc 1 40 0 discriminator 3
  99 0038 C2EB0220 		rsb	r0, r2, r2, lsl #8
 100 003c 0146     		mov	r1, r0
 101 003e 0028     		cmp	r0, #0
 102 0040 01DA     		bge	.L6
 103 0042 00F11F01 		add	r1, r0, #31
 104              	.L6:
 105 0046 4811     		asrs	r0, r1, #5
  38:.\sprites.c   ****                 .x = UINT8_MAX,
 106              		.loc 1 38 0 discriminator 3
 107 0048 A749     		ldr	r1, .L29
 108 004a FF25     		movs	r5, #255
 109 004c 01F81350 		strb	r5, [r1, r3, lsl #1]
 110 0050 01EB4303 		add	r3, r1, r3, lsl #1
 111 0054 5870     		strb	r0, [r3, #1]
  37:.\sprites.c   ****             sprite_vertices[FRETBOARD][n++] = (struct Point) {
 112              		.loc 1 37 0 discriminator 3
 113 0056 0132     		adds	r2, r2, #1
 114              	.LVL8:
  38:.\sprites.c   ****                 .x = UINT8_MAX,
 115              		.loc 1 38 0 discriminator 3
 116 0058 2346     		mov	r3, r4
 117              	.LVL9:
 118              	.L5:
  37:.\sprites.c   ****             sprite_vertices[FRETBOARD][n++] = (struct Point) {
 119              		.loc 1 37 0 discriminator 1
 120 005a 1F2A     		cmp	r2, #31
 121 005c EBDD     		ble	.L7
 122 005e 0022     		movs	r2, #0
ARM GAS  C:\Users\User\AppData\Local\Temp\ccX7HAxZ.s 			page 4


 123              	.LVL10:
 124 0060 12E0     		b	.L8
 125              	.LVL11:
 126              	.L10:
 127              	.LBE5:
 128              	.LBB6:
  41:.\sprites.c   ****             };
  42:.\sprites.c   ****         }
  43:.\sprites.c   ****         // Top edge
  44:.\sprites.c   ****         for (int i = 0; i < resolution; i++) {
  45:.\sprites.c   ****             sprite_vertices[FRETBOARD][n++] = (struct Point) {
 129              		.loc 1 45 0 discriminator 3
 130 0062 5C1C     		adds	r4, r3, #1
 131              	.LVL12:
  46:.\sprites.c   ****                 .x = UINT8_MAX - UINT8_MAX * i / resolution,
 132              		.loc 1 46 0 discriminator 3
 133 0064 C2EB0221 		rsb	r1, r2, r2, lsl #8
 134 0068 0846     		mov	r0, r1
 135 006a 0029     		cmp	r1, #0
 136 006c 01DA     		bge	.L9
 137 006e 01F11F00 		add	r0, r1, #31
 138              	.L9:
  45:.\sprites.c   ****                 .x = UINT8_MAX - UINT8_MAX * i / resolution,
 139              		.loc 1 45 0 discriminator 3
 140 0072 9D49     		ldr	r1, .L29
 141 0074 6FEA6010 		mvn	r0, r0, asr #5
 142 0078 01F81300 		strb	r0, [r1, r3, lsl #1]
 143 007c 01EB4303 		add	r3, r1, r3, lsl #1
 144 0080 FF21     		movs	r1, #255
 145 0082 5970     		strb	r1, [r3, #1]
  44:.\sprites.c   ****             sprite_vertices[FRETBOARD][n++] = (struct Point) {
 146              		.loc 1 44 0 discriminator 3
 147 0084 0132     		adds	r2, r2, #1
 148              	.LVL13:
  45:.\sprites.c   ****                 .x = UINT8_MAX - UINT8_MAX * i / resolution,
 149              		.loc 1 45 0 discriminator 3
 150 0086 2346     		mov	r3, r4
 151              	.LVL14:
 152              	.L8:
  44:.\sprites.c   ****             sprite_vertices[FRETBOARD][n++] = (struct Point) {
 153              		.loc 1 44 0 discriminator 1
 154 0088 1F2A     		cmp	r2, #31
 155 008a EADD     		ble	.L10
 156 008c 0022     		movs	r2, #0
 157              	.LVL15:
 158 008e 12E0     		b	.L11
 159              	.LVL16:
 160              	.L13:
 161              	.LBE6:
 162              	.LBB7:
  47:.\sprites.c   ****                 .y = UINT8_MAX
  48:.\sprites.c   ****             };
  49:.\sprites.c   ****         }
  50:.\sprites.c   ****         // Left edge
  51:.\sprites.c   ****         for (int i = 0; i < resolution; i++) {
  52:.\sprites.c   ****             sprite_vertices[FRETBOARD][n++] = (struct Point) {
 163              		.loc 1 52 0 discriminator 3
ARM GAS  C:\Users\User\AppData\Local\Temp\ccX7HAxZ.s 			page 5


 164 0090 5C1C     		adds	r4, r3, #1
 165              	.LVL17:
  53:.\sprites.c   ****                 .x = 0,
  54:.\sprites.c   ****                 .y = UINT8_MAX - UINT8_MAX * i / resolution
 166              		.loc 1 54 0 discriminator 3
 167 0092 C2EB0221 		rsb	r1, r2, r2, lsl #8
 168 0096 0846     		mov	r0, r1
 169 0098 0029     		cmp	r1, #0
 170 009a 01DA     		bge	.L12
 171 009c 01F11F00 		add	r0, r1, #31
 172              	.L12:
  52:.\sprites.c   ****                 .x = 0,
 173              		.loc 1 52 0 discriminator 3
 174 00a0 9149     		ldr	r1, .L29
 175 00a2 0025     		movs	r5, #0
 176 00a4 01F81350 		strb	r5, [r1, r3, lsl #1]
 177 00a8 01EB4303 		add	r3, r1, r3, lsl #1
 178 00ac 6FEA6010 		mvn	r0, r0, asr #5
 179 00b0 5870     		strb	r0, [r3, #1]
  51:.\sprites.c   ****             sprite_vertices[FRETBOARD][n++] = (struct Point) {
 180              		.loc 1 51 0 discriminator 3
 181 00b2 0132     		adds	r2, r2, #1
 182              	.LVL18:
  52:.\sprites.c   ****                 .x = 0,
 183              		.loc 1 52 0 discriminator 3
 184 00b4 2346     		mov	r3, r4
 185              	.LVL19:
 186              	.L11:
  51:.\sprites.c   ****             sprite_vertices[FRETBOARD][n++] = (struct Point) {
 187              		.loc 1 51 0 discriminator 1
 188 00b6 1F2A     		cmp	r2, #31
 189 00b8 EADD     		ble	.L13
 190              	.LBE7:
  55:.\sprites.c   ****             };
  56:.\sprites.c   ****         }
  57:.\sprites.c   ****         // Complete the polygon
  58:.\sprites.c   ****         sprite_vertices[FRETBOARD][n++] = (struct Point) { .x = 0, .y = 0 };
 191              		.loc 1 58 0
 192 00ba 581C     		adds	r0, r3, #1
 193              	.LVL20:
 194 00bc 8A49     		ldr	r1, .L29
 195 00be 0022     		movs	r2, #0
 196              	.LVL21:
 197 00c0 01F81320 		strb	r2, [r1, r3, lsl #1]
 198 00c4 01EB4303 		add	r3, r1, r3, lsl #1
 199 00c8 5A70     		strb	r2, [r3, #1]
  59:.\sprites.c   ****         sprite_n[FRETBOARD] = n;
 200              		.loc 1 59 0
 201 00ca C1F80008 		str	r0, [r1, #2048]
 202              	.LVL22:
 203              	.LBE2:
 204              	.LBB8:
 205              	.LBB9:
  60:.\sprites.c   ****     }
  61:.\sprites.c   ****     
  62:.\sprites.c   ****     // Barline
  63:.\sprites.c   ****     {
ARM GAS  C:\Users\User\AppData\Local\Temp\ccX7HAxZ.s 			page 6


  64:.\sprites.c   ****         const int resolution = 8;
  65:.\sprites.c   ****         int n = 0;
  66:.\sprites.c   ****         for (int i = 0; i < resolution; i++) {
 206              		.loc 1 66 0
 207 00ce 1146     		mov	r1, r2
 208              	.LBE9:
  65:.\sprites.c   ****         for (int i = 0; i < resolution; i++) {
 209              		.loc 1 65 0
 210 00d0 1346     		mov	r3, r2
 211              	.LBB10:
 212              		.loc 1 66 0
 213 00d2 12E0     		b	.L14
 214              	.LVL23:
 215              	.L16:
  67:.\sprites.c   ****             sprite_vertices[BARLINE][n++] = (struct Point) {
 216              		.loc 1 67 0 discriminator 3
 217 00d4 5C1C     		adds	r4, r3, #1
 218              	.LVL24:
  68:.\sprites.c   ****                 .x = UINT8_MAX * i / resolution,
 219              		.loc 1 68 0 discriminator 3
 220 00d6 C1EB0120 		rsb	r0, r1, r1, lsl #8
 221 00da 0246     		mov	r2, r0
 222 00dc 0028     		cmp	r0, #0
 223 00de 00DA     		bge	.L15
 224 00e0 C21D     		adds	r2, r0, #7
 225              	.L15:
 226 00e2 D010     		asrs	r0, r2, #3
  67:.\sprites.c   ****             sprite_vertices[BARLINE][n++] = (struct Point) {
 227              		.loc 1 67 0 discriminator 3
 228 00e4 804A     		ldr	r2, .L29
 229 00e6 03F58073 		add	r3, r3, #256
 230 00ea 02F81300 		strb	r0, [r2, r3, lsl #1]
 231 00ee 02EB4303 		add	r3, r2, r3, lsl #1
 232 00f2 0022     		movs	r2, #0
 233 00f4 5A70     		strb	r2, [r3, #1]
  66:.\sprites.c   ****             sprite_vertices[BARLINE][n++] = (struct Point) {
 234              		.loc 1 66 0 discriminator 3
 235 00f6 0131     		adds	r1, r1, #1
 236              	.LVL25:
  67:.\sprites.c   ****             sprite_vertices[BARLINE][n++] = (struct Point) {
 237              		.loc 1 67 0 discriminator 3
 238 00f8 2346     		mov	r3, r4
 239              	.LVL26:
 240              	.L14:
  66:.\sprites.c   ****             sprite_vertices[BARLINE][n++] = (struct Point) {
 241              		.loc 1 66 0 discriminator 1
 242 00fa 0729     		cmp	r1, #7
 243 00fc EADD     		ble	.L16
 244 00fe 0022     		movs	r2, #0
 245 0100 13E0     		b	.L17
 246              	.LVL27:
 247              	.L19:
 248              	.LBE10:
 249              	.LBB11:
  69:.\sprites.c   ****                 .y = 0
  70:.\sprites.c   ****             };
  71:.\sprites.c   ****         }
ARM GAS  C:\Users\User\AppData\Local\Temp\ccX7HAxZ.s 			page 7


  72:.\sprites.c   ****         for (int i = 0; i < resolution; i++) {
  73:.\sprites.c   ****             sprite_vertices[BARLINE][n++] = (struct Point) {
 250              		.loc 1 73 0 discriminator 3
 251 0102 5C1C     		adds	r4, r3, #1
 252              	.LVL28:
  74:.\sprites.c   ****                 .x = UINT8_MAX - UINT8_MAX * i / resolution,
 253              		.loc 1 74 0 discriminator 3
 254 0104 C2EB0221 		rsb	r1, r2, r2, lsl #8
 255 0108 0846     		mov	r0, r1
 256 010a 0029     		cmp	r1, #0
 257 010c 00DA     		bge	.L18
 258 010e C81D     		adds	r0, r1, #7
 259              	.L18:
  73:.\sprites.c   ****                 .x = UINT8_MAX - UINT8_MAX * i / resolution,
 260              		.loc 1 73 0 discriminator 3
 261 0110 7549     		ldr	r1, .L29
 262 0112 03F58073 		add	r3, r3, #256
 263 0116 6FEAE000 		mvn	r0, r0, asr #3
 264 011a 01F81300 		strb	r0, [r1, r3, lsl #1]
 265 011e 01EB4303 		add	r3, r1, r3, lsl #1
 266 0122 0021     		movs	r1, #0
 267 0124 5970     		strb	r1, [r3, #1]
  72:.\sprites.c   ****             sprite_vertices[BARLINE][n++] = (struct Point) {
 268              		.loc 1 72 0 discriminator 3
 269 0126 0132     		adds	r2, r2, #1
 270              	.LVL29:
  73:.\sprites.c   ****                 .x = UINT8_MAX - UINT8_MAX * i / resolution,
 271              		.loc 1 73 0 discriminator 3
 272 0128 2346     		mov	r3, r4
 273              	.LVL30:
 274              	.L17:
  72:.\sprites.c   ****             sprite_vertices[BARLINE][n++] = (struct Point) {
 275              		.loc 1 72 0 discriminator 1
 276 012a 072A     		cmp	r2, #7
 277 012c E9DD     		ble	.L19
 278              	.LBE11:
  75:.\sprites.c   ****                 .y = 0
  76:.\sprites.c   ****             };
  77:.\sprites.c   ****         }
  78:.\sprites.c   ****         sprite_vertices[BARLINE][n++] = (struct Point) { .x = 0, .y = 0 };        
 279              		.loc 1 78 0
 280 012e 591C     		adds	r1, r3, #1
 281              	.LVL31:
 282 0130 6D4A     		ldr	r2, .L29
 283              	.LVL32:
 284 0132 03F58073 		add	r3, r3, #256
 285 0136 0024     		movs	r4, #0
 286 0138 02F81340 		strb	r4, [r2, r3, lsl #1]
 287 013c 02EB4303 		add	r3, r2, r3, lsl #1
 288 0140 5C70     		strb	r4, [r3, #1]
  79:.\sprites.c   ****         sprite_n[BARLINE] = n;
 289              		.loc 1 79 0
 290 0142 C2F80418 		str	r1, [r2, #2052]
 291              	.LVL33:
 292              	.LBE8:
 293              	.LBB12:
 294              	.LBB13:
ARM GAS  C:\Users\User\AppData\Local\Temp\ccX7HAxZ.s 			page 8


  80:.\sprites.c   ****     }
  81:.\sprites.c   ****     
  82:.\sprites.c   ****     // Ellipses
  83:.\sprites.c   ****     {
  84:.\sprites.c   ****         const int resolution = 16;
  85:.\sprites.c   ****         const int width = 20, height = 5;
  86:.\sprites.c   ****         int n = 0;
  87:.\sprites.c   ****         
  88:.\sprites.c   ****         // Top half
  89:.\sprites.c   ****         for (int i = 0; i < resolution; i++) {
 295              		.loc 1 89 0
 296 0146 2546     		mov	r5, r4
 297 0148 57E0     		b	.L20
 298              	.LVL34:
 299              	.L22:
  90:.\sprites.c   ****             sprite_vertices[OPEN_ELLIPSE][n] = (struct Point) {
  91:.\sprites.c   ****                 .x = (uint8)(width * (-cos(i * PI / resolution) + 1)),
 300              		.loc 1 91 0
 301 014a 2846     		mov	r0, r5
 302 014c FFF7FEFF 		bl	__aeabi_i2f
 303              	.LVL35:
 304 0150 6649     		ldr	r1, .L29+4
 305 0152 FFF7FEFF 		bl	__aeabi_fmul
 306              	.LVL36:
 307 0156 4FF07651 		mov	r1, #1031798784
 308 015a FFF7FEFF 		bl	__aeabi_fmul
 309              	.LVL37:
 310 015e FFF7FEFF 		bl	__aeabi_f2d
 311              	.LVL38:
 312 0162 0646     		mov	r6, r0
 313 0164 0F46     		mov	r7, r1
 314 0166 FFF7FEFF 		bl	cos
 315              	.LVL39:
 316 016a 0246     		mov	r2, r0
 317 016c 0B46     		mov	r3, r1
 318 016e 0020     		movs	r0, #0
 319 0170 5F49     		ldr	r1, .L29+8
 320 0172 FFF7FEFF 		bl	__aeabi_dsub
 321              	.LVL40:
 322 0176 0022     		movs	r2, #0
 323 0178 5E4B     		ldr	r3, .L29+12
 324 017a FFF7FEFF 		bl	__aeabi_dmul
 325              	.LVL41:
 326 017e FFF7FEFF 		bl	__aeabi_d2uiz
 327              	.LVL42:
 328 0182 5FFA80F8 		uxtb	r8, r0
  92:.\sprites.c   ****                 .y = (uint8)(height * (sin(i * PI / resolution) + 1))
 329              		.loc 1 92 0
 330 0186 3046     		mov	r0, r6
 331 0188 3946     		mov	r1, r7
 332 018a FFF7FEFF 		bl	sin
 333              	.LVL43:
 334 018e 0646     		mov	r6, r0
 335 0190 0F46     		mov	r7, r1
 336 0192 0022     		movs	r2, #0
 337 0194 564B     		ldr	r3, .L29+8
 338 0196 FFF7FEFF 		bl	__aeabi_dadd
ARM GAS  C:\Users\User\AppData\Local\Temp\ccX7HAxZ.s 			page 9


 339              	.LVL44:
 340 019a 0022     		movs	r2, #0
 341 019c 564B     		ldr	r3, .L29+16
 342 019e FFF7FEFF 		bl	__aeabi_dmul
 343              	.LVL45:
 344 01a2 FFF7FEFF 		bl	__aeabi_d2uiz
 345              	.LVL46:
  90:.\sprites.c   ****             sprite_vertices[OPEN_ELLIPSE][n] = (struct Point) {
 346              		.loc 1 90 0
 347 01a6 504B     		ldr	r3, .L29
 348 01a8 04F50072 		add	r2, r4, #512
 349 01ac 03F81280 		strb	r8, [r3, r2, lsl #1]
 350 01b0 03EB4203 		add	r3, r3, r2, lsl #1
 351 01b4 5870     		strb	r0, [r3, #1]
  93:.\sprites.c   ****             };
  94:.\sprites.c   ****             sprite_vertices[FILLED_ELLIPSE][n++] = (struct Point) {
 352              		.loc 1 94 0
 353 01b6 04F10109 		add	r9, r4, #1
 354              	.LVL47:
  95:.\sprites.c   ****                 .x = (uint8)(width * (-cos(i * PI / resolution) + 1)),
  96:.\sprites.c   ****                 .y = (uint8)(height * (sin(i * PI / resolution) * (i & 1 ? -1 : 1) + 1))
 355              		.loc 1 96 0
 356 01ba 15F0010F 		tst	r5, #1
 357 01be 02D0     		beq	.L26
 358 01c0 0020     		movs	r0, #0
 359 01c2 4E49     		ldr	r1, .L29+20
 360 01c4 01E0     		b	.L21
 361              	.L26:
 362 01c6 0020     		movs	r0, #0
 363 01c8 4949     		ldr	r1, .L29+8
 364              	.L21:
 365              		.loc 1 96 0 is_stmt 0 discriminator 4
 366 01ca 3246     		mov	r2, r6
 367 01cc 3B46     		mov	r3, r7
 368 01ce FFF7FEFF 		bl	__aeabi_dmul
 369              	.LVL48:
 370 01d2 0022     		movs	r2, #0
 371 01d4 464B     		ldr	r3, .L29+8
 372 01d6 FFF7FEFF 		bl	__aeabi_dadd
 373              	.LVL49:
 374 01da 0022     		movs	r2, #0
 375 01dc 464B     		ldr	r3, .L29+16
 376 01de FFF7FEFF 		bl	__aeabi_dmul
 377              	.LVL50:
 378 01e2 FFF7FEFF 		bl	__aeabi_d2uiz
 379              	.LVL51:
  94:.\sprites.c   ****                 .x = (uint8)(width * (-cos(i * PI / resolution) + 1)),
 380              		.loc 1 94 0 is_stmt 1 discriminator 4
 381 01e6 404B     		ldr	r3, .L29
 382 01e8 04F54074 		add	r4, r4, #768
 383 01ec 03F81480 		strb	r8, [r3, r4, lsl #1]
 384 01f0 03EB4403 		add	r3, r3, r4, lsl #1
 385 01f4 5870     		strb	r0, [r3, #1]
  89:.\sprites.c   ****             sprite_vertices[OPEN_ELLIPSE][n] = (struct Point) {
 386              		.loc 1 89 0 discriminator 4
 387 01f6 0135     		adds	r5, r5, #1
 388              	.LVL52:
ARM GAS  C:\Users\User\AppData\Local\Temp\ccX7HAxZ.s 			page 10


  94:.\sprites.c   ****                 .x = (uint8)(width * (-cos(i * PI / resolution) + 1)),
 389              		.loc 1 94 0 discriminator 4
 390 01f8 4C46     		mov	r4, r9
 391              	.LVL53:
 392              	.L20:
  89:.\sprites.c   ****             sprite_vertices[OPEN_ELLIPSE][n] = (struct Point) {
 393              		.loc 1 89 0 discriminator 2
 394 01fa 0F2D     		cmp	r5, #15
 395 01fc A5DD     		ble	.L22
 396 01fe 0025     		movs	r5, #0
 397              	.LVL54:
 398 0200 58E0     		b	.L23
 399              	.LVL55:
 400              	.L25:
 401              	.LBE13:
 402              	.LBB14:
  97:.\sprites.c   ****             };
  98:.\sprites.c   ****         }
  99:.\sprites.c   ****         // Bottom half
 100:.\sprites.c   ****         for (int i = 0; i < resolution; i++) {
 101:.\sprites.c   ****             sprite_vertices[OPEN_ELLIPSE][n] = (struct Point) {
 102:.\sprites.c   ****                 .x = (uint8)(width * (cos(i * PI / resolution) + 1)),
 403              		.loc 1 102 0
 404 0202 2846     		mov	r0, r5
 405 0204 FFF7FEFF 		bl	__aeabi_i2f
 406              	.LVL56:
 407 0208 3849     		ldr	r1, .L29+4
 408 020a FFF7FEFF 		bl	__aeabi_fmul
 409              	.LVL57:
 410 020e 4FF07651 		mov	r1, #1031798784
 411 0212 FFF7FEFF 		bl	__aeabi_fmul
 412              	.LVL58:
 413 0216 FFF7FEFF 		bl	__aeabi_f2d
 414              	.LVL59:
 415 021a 0646     		mov	r6, r0
 416 021c 0F46     		mov	r7, r1
 417 021e FFF7FEFF 		bl	cos
 418              	.LVL60:
 419 0222 0022     		movs	r2, #0
 420 0224 324B     		ldr	r3, .L29+8
 421 0226 FFF7FEFF 		bl	__aeabi_dadd
 422              	.LVL61:
 423 022a 0022     		movs	r2, #0
 424 022c 314B     		ldr	r3, .L29+12
 425 022e FFF7FEFF 		bl	__aeabi_dmul
 426              	.LVL62:
 427 0232 FFF7FEFF 		bl	__aeabi_d2uiz
 428              	.LVL63:
 429 0236 5FFA80F8 		uxtb	r8, r0
 103:.\sprites.c   ****                 .y = (uint8)(height * (-sin(i * PI / resolution) + 1))
 430              		.loc 1 103 0
 431 023a 3046     		mov	r0, r6
 432 023c 3946     		mov	r1, r7
 433 023e FFF7FEFF 		bl	sin
 434              	.LVL64:
 435 0242 0646     		mov	r6, r0
 436 0244 8946     		mov	r9, r1
ARM GAS  C:\Users\User\AppData\Local\Temp\ccX7HAxZ.s 			page 11


 437 0246 0020     		movs	r0, #0
 438 0248 2949     		ldr	r1, .L29+8
 439 024a 3246     		mov	r2, r6
 440 024c 4B46     		mov	r3, r9
 441 024e FFF7FEFF 		bl	__aeabi_dsub
 442              	.LVL65:
 443 0252 0022     		movs	r2, #0
 444 0254 284B     		ldr	r3, .L29+16
 445 0256 FFF7FEFF 		bl	__aeabi_dmul
 446              	.LVL66:
 447 025a FFF7FEFF 		bl	__aeabi_d2uiz
 448              	.LVL67:
 101:.\sprites.c   ****                 .x = (uint8)(width * (cos(i * PI / resolution) + 1)),
 449              		.loc 1 101 0
 450 025e 224B     		ldr	r3, .L29
 451 0260 04F50072 		add	r2, r4, #512
 452 0264 03F81280 		strb	r8, [r3, r2, lsl #1]
 453 0268 03EB4203 		add	r3, r3, r2, lsl #1
 454 026c 5870     		strb	r0, [r3, #1]
 104:.\sprites.c   ****             };
 105:.\sprites.c   ****             sprite_vertices[FILLED_ELLIPSE][n++] = (struct Point) {
 455              		.loc 1 105 0
 456 026e 671C     		adds	r7, r4, #1
 457              	.LVL68:
 106:.\sprites.c   ****                 .x = (uint8)(width * (cos(i * PI / resolution) + 1)),
 107:.\sprites.c   ****                 .y = (uint8)(height * (-sin(i * PI / resolution) * (i & 1 ? -1 : 1) + 1))
 458              		.loc 1 107 0
 459 0270 09F10049 		add	r9, r9, #-2147483648
 460 0274 15F0010F 		tst	r5, #1
 461 0278 02D0     		beq	.L27
 462 027a 0022     		movs	r2, #0
 463 027c 1F4B     		ldr	r3, .L29+20
 464 027e 01E0     		b	.L24
 465              	.L27:
 466 0280 0022     		movs	r2, #0
 467 0282 1B4B     		ldr	r3, .L29+8
 468              	.L24:
 469              		.loc 1 107 0 is_stmt 0 discriminator 4
 470 0284 3046     		mov	r0, r6
 471 0286 4946     		mov	r1, r9
 472 0288 FFF7FEFF 		bl	__aeabi_dmul
 473              	.LVL69:
 474 028c 0022     		movs	r2, #0
 475 028e 184B     		ldr	r3, .L29+8
 476 0290 FFF7FEFF 		bl	__aeabi_dadd
 477              	.LVL70:
 478 0294 0022     		movs	r2, #0
 479 0296 184B     		ldr	r3, .L29+16
 480 0298 FFF7FEFF 		bl	__aeabi_dmul
 481              	.LVL71:
 482 029c FFF7FEFF 		bl	__aeabi_d2uiz
 483              	.LVL72:
 105:.\sprites.c   ****                 .x = (uint8)(width * (cos(i * PI / resolution) + 1)),
 484              		.loc 1 105 0 is_stmt 1 discriminator 4
 485 02a0 114B     		ldr	r3, .L29
 486 02a2 04F54074 		add	r4, r4, #768
 487 02a6 03F81480 		strb	r8, [r3, r4, lsl #1]
ARM GAS  C:\Users\User\AppData\Local\Temp\ccX7HAxZ.s 			page 12


 488 02aa 03EB4403 		add	r3, r3, r4, lsl #1
 489 02ae 5870     		strb	r0, [r3, #1]
 100:.\sprites.c   ****             sprite_vertices[OPEN_ELLIPSE][n] = (struct Point) {
 490              		.loc 1 100 0 discriminator 4
 491 02b0 0135     		adds	r5, r5, #1
 492              	.LVL73:
 105:.\sprites.c   ****                 .x = (uint8)(width * (cos(i * PI / resolution) + 1)),
 493              		.loc 1 105 0 discriminator 4
 494 02b2 3C46     		mov	r4, r7
 495              	.LVL74:
 496              	.L23:
 100:.\sprites.c   ****             sprite_vertices[OPEN_ELLIPSE][n] = (struct Point) {
 497              		.loc 1 100 0 discriminator 2
 498 02b4 0F2D     		cmp	r5, #15
 499 02b6 A4DD     		ble	.L25
 500              	.LBE14:
 108:.\sprites.c   ****             };
 109:.\sprites.c   ****         }
 110:.\sprites.c   ****         // Complete the polygon
 111:.\sprites.c   ****         sprite_vertices[OPEN_ELLIPSE][n] = (struct Point) {
 501              		.loc 1 111 0
 502 02b8 0B4B     		ldr	r3, .L29
 503 02ba 04F50072 		add	r2, r4, #512
 504 02be 0020     		movs	r0, #0
 505 02c0 03F81200 		strb	r0, [r3, r2, lsl #1]
 506 02c4 03EB4202 		add	r2, r3, r2, lsl #1
 507 02c8 0521     		movs	r1, #5
 508 02ca 5170     		strb	r1, [r2, #1]
 112:.\sprites.c   ****             .x = 0, .y = (uint8)(height)
 113:.\sprites.c   ****         };
 114:.\sprites.c   ****         sprite_vertices[FILLED_ELLIPSE][n++] = (struct Point) {
 509              		.loc 1 114 0
 510 02cc 621C     		adds	r2, r4, #1
 511              	.LVL75:
 512 02ce 04F54074 		add	r4, r4, #768
 513 02d2 03F81400 		strb	r0, [r3, r4, lsl #1]
 514 02d6 03EB4404 		add	r4, r3, r4, lsl #1
 515 02da 6170     		strb	r1, [r4, #1]
 115:.\sprites.c   ****             .x = 0, .y = (uint8)(height)
 116:.\sprites.c   ****         };
 117:.\sprites.c   ****         sprite_n[OPEN_ELLIPSE] = n;
 516              		.loc 1 117 0
 517 02dc C3F80828 		str	r2, [r3, #2056]
 118:.\sprites.c   ****         sprite_n[FILLED_ELLIPSE] = n;
 518              		.loc 1 118 0
 519 02e0 C3F80C28 		str	r2, [r3, #2060]
 520 02e4 BDE8F883 		pop	{r3, r4, r5, r6, r7, r8, r9, pc}
 521              	.LVL76:
 522              	.L30:
 523              		.align	2
 524              	.L29:
 525 02e8 00000000 		.word	.LANCHOR0
 526 02ec DB0F4940 		.word	1078530011
 527 02f0 0000F03F 		.word	1072693248
 528 02f4 00003440 		.word	1077149696
 529 02f8 00001440 		.word	1075052544
 530 02fc 0000F0BF 		.word	-1074790400
ARM GAS  C:\Users\User\AppData\Local\Temp\ccX7HAxZ.s 			page 13


 531              	.LBE12:
 532              		.cfi_endproc
 533              	.LFE0:
 534              		.size	init_sprites, .-init_sprites
 535              		.section	.text.make_fretboard,"ax",%progbits
 536              		.align	2
 537              		.global	make_fretboard
 538              		.thumb
 539              		.thumb_func
 540              		.type	make_fretboard, %function
 541              	make_fretboard:
 542              	.LFB1:
 119:.\sprites.c   ****     }
 120:.\sprites.c   **** }
 121:.\sprites.c   **** 
 122:.\sprites.c   **** /*
 123:.\sprites.c   ****  * Creates a fretboard instance
 124:.\sprites.c   ****  */
 125:.\sprites.c   **** struct Sprite make_fretboard() {
 543              		.loc 1 125 0
 544              		.cfi_startproc
 545              		@ args = 0, pretend = 0, frame = 0
 546              		@ frame_needed = 0, uses_anonymous_args = 0
 547              		@ link register save eliminated.
 548              	.LVL77:
 126:.\sprites.c   ****     return (struct Sprite) {
 127:.\sprites.c   ****         .n = sprite_n[FRETBOARD], .x = 0, .y = 0,
 549              		.loc 1 127 0
 550 0000 044A     		ldr	r2, .L32
 551 0002 D2F80018 		ldr	r1, [r2, #2048]
 126:.\sprites.c   ****     return (struct Sprite) {
 552              		.loc 1 126 0
 553 0006 0160     		str	r1, [r0]
 554 0008 0021     		movs	r1, #0
 555 000a 4160     		str	r1, [r0, #4]
 556 000c 8160     		str	r1, [r0, #8]
 557 000e C260     		str	r2, [r0, #12]
 128:.\sprites.c   ****         .vertices = sprite_vertices[FRETBOARD]
 129:.\sprites.c   ****     };
 130:.\sprites.c   **** }
 558              		.loc 1 130 0
 559 0010 7047     		bx	lr
 560              	.L33:
 561 0012 00BF     		.align	2
 562              	.L32:
 563 0014 00000000 		.word	.LANCHOR0
 564              		.cfi_endproc
 565              	.LFE1:
 566              		.size	make_fretboard, .-make_fretboard
 567              		.section	.text.make_barline,"ax",%progbits
 568              		.align	2
 569              		.global	make_barline
 570              		.thumb
 571              		.thumb_func
 572              		.type	make_barline, %function
 573              	make_barline:
 574              	.LFB2:
ARM GAS  C:\Users\User\AppData\Local\Temp\ccX7HAxZ.s 			page 14


 131:.\sprites.c   **** 
 132:.\sprites.c   **** /*
 133:.\sprites.c   ****  * Creates a barline instance at the specified y offset
 134:.\sprites.c   ****  */
 135:.\sprites.c   **** struct Sprite make_barline(int y) {
 575              		.loc 1 135 0
 576              		.cfi_startproc
 577              		@ args = 0, pretend = 0, frame = 0
 578              		@ frame_needed = 0, uses_anonymous_args = 0
 579              		@ link register save eliminated.
 580              	.LVL78:
 581 0000 10B4     		push	{r4}
 582              		.cfi_def_cfa_offset 4
 583              		.cfi_offset 4, -4
 136:.\sprites.c   ****     return (struct Sprite) {
 137:.\sprites.c   ****         .n = sprite_n[BARLINE], .x = 0, .y = y,
 584              		.loc 1 137 0
 585 0002 064A     		ldr	r2, .L36
 586 0004 D2F80448 		ldr	r4, [r2, #2052]
 136:.\sprites.c   ****     return (struct Sprite) {
 587              		.loc 1 136 0
 588 0008 0460     		str	r4, [r0]
 589 000a 0024     		movs	r4, #0
 590 000c 4460     		str	r4, [r0, #4]
 591 000e 8160     		str	r1, [r0, #8]
 592 0010 02F50072 		add	r2, r2, #512
 593 0014 C260     		str	r2, [r0, #12]
 138:.\sprites.c   ****         .vertices = sprite_vertices[BARLINE]
 139:.\sprites.c   ****     };
 140:.\sprites.c   **** }
 594              		.loc 1 140 0
 595 0016 5DF8044B 		ldr	r4, [sp], #4
 596              		.cfi_restore 4
 597              		.cfi_def_cfa_offset 0
 598 001a 7047     		bx	lr
 599              	.L37:
 600              		.align	2
 601              	.L36:
 602 001c 00000000 		.word	.LANCHOR0
 603              		.cfi_endproc
 604              	.LFE2:
 605              		.size	make_barline, .-make_barline
 606              		.section	.text.make_ellipse,"ax",%progbits
 607              		.align	2
 608              		.global	make_ellipse
 609              		.thumb
 610              		.thumb_func
 611              		.type	make_ellipse, %function
 612              	make_ellipse:
 613              	.LFB3:
 141:.\sprites.c   **** 
 142:.\sprites.c   **** /*
 143:.\sprites.c   ****  * Creates an ellipse instance in the specified track and location
 144:.\sprites.c   ****  */
 145:.\sprites.c   **** struct Sprite make_ellipse(uint8 track, int y, uint8 filled) {
 614              		.loc 1 145 0
 615              		.cfi_startproc
ARM GAS  C:\Users\User\AppData\Local\Temp\ccX7HAxZ.s 			page 15


 616              		@ args = 0, pretend = 0, frame = 0
 617              		@ frame_needed = 0, uses_anonymous_args = 0
 618              		@ link register save eliminated.
 619              	.LVL79:
 620 0000 30B4     		push	{r4, r5}
 621              		.cfi_def_cfa_offset 8
 622              		.cfi_offset 4, -8
 623              		.cfi_offset 5, -4
 146:.\sprites.c   ****     enum SpriteType tp = (filled ? FILLED_ELLIPSE : OPEN_ELLIPSE);
 624              		.loc 1 146 0
 625 0002 0BB1     		cbz	r3, .L40
 626 0004 0324     		movs	r4, #3
 627 0006 00E0     		b	.L39
 628              	.L40:
 629 0008 0224     		movs	r4, #2
 630              	.L39:
 631              	.LVL80:
 147:.\sprites.c   ****     return (struct Sprite) {
 148:.\sprites.c   ****         .n = sprite_n[tp], .x = 48 * track + 10, .y = y,
 632              		.loc 1 148 0 discriminator 4
 633 000a 084B     		ldr	r3, .L42
 634              	.LVL81:
 635 000c 03EB8405 		add	r5, r3, r4, lsl #2
 636 0010 D5F80058 		ldr	r5, [r5, #2048]
 637 0014 01EB4101 		add	r1, r1, r1, lsl #1
 638              	.LVL82:
 639 0018 0901     		lsls	r1, r1, #4
 640 001a 0A31     		adds	r1, r1, #10
 149:.\sprites.c   ****         .vertices = sprite_vertices[tp],
 641              		.loc 1 149 0 discriminator 4
 642 001c 03EB4423 		add	r3, r3, r4, lsl #9
 147:.\sprites.c   ****     return (struct Sprite) {
 643              		.loc 1 147 0 discriminator 4
 644 0020 0560     		str	r5, [r0]
 645 0022 4160     		str	r1, [r0, #4]
 646 0024 8260     		str	r2, [r0, #8]
 647 0026 C360     		str	r3, [r0, #12]
 150:.\sprites.c   ****     };
 151:.\sprites.c   **** }
 648              		.loc 1 151 0 discriminator 4
 649 0028 30BC     		pop	{r4, r5}
 650              		.cfi_restore 5
 651              		.cfi_restore 4
 652              		.cfi_def_cfa_offset 0
 653              	.LVL83:
 654 002a 7047     		bx	lr
 655              	.L43:
 656              		.align	2
 657              	.L42:
 658 002c 00000000 		.word	.LANCHOR0
 659              		.cfi_endproc
 660              	.LFE3:
 661              		.size	make_ellipse, .-make_ellipse
 662              		.section	.text.sprites_to_polyline,"ax",%progbits
 663              		.align	2
 664              		.global	sprites_to_polyline
 665              		.thumb
ARM GAS  C:\Users\User\AppData\Local\Temp\ccX7HAxZ.s 			page 16


 666              		.thumb_func
 667              		.type	sprites_to_polyline, %function
 668              	sprites_to_polyline:
 669              	.LFB4:
 152:.\sprites.c   **** 
 153:.\sprites.c   **** /*
 154:.\sprites.c   ****  * Converts a list of sprites into a polyline that the scope can render.
 155:.\sprites.c   ****  */
 156:.\sprites.c   **** int sprites_to_polyline(int n_sprites, struct Sprite *sprites, struct Point *points) {
 670              		.loc 1 156 0
 671              		.cfi_startproc
 672              		@ args = 0, pretend = 0, frame = 0
 673              		@ frame_needed = 0, uses_anonymous_args = 0
 674              	.LVL84:
 675 0000 2DE9F041 		push	{r4, r5, r6, r7, r8, lr}
 676              		.cfi_def_cfa_offset 24
 677              		.cfi_offset 4, -24
 678              		.cfi_offset 5, -20
 679              		.cfi_offset 6, -16
 680              		.cfi_offset 7, -12
 681              		.cfi_offset 8, -8
 682              		.cfi_offset 14, -4
 683 0004 8446     		mov	ip, r0
 684              	.LVL85:
 685              	.LBB15:
 157:.\sprites.c   ****     // For now, naively convert to points
 158:.\sprites.c   ****     int n_points = 0;
 159:.\sprites.c   ****     for (int i = 0; i < n_sprites; i++) {
 686              		.loc 1 159 0
 687 0006 4FF0000E 		mov	lr, #0
 688              	.LBE15:
 158:.\sprites.c   ****     for (int i = 0; i < n_sprites; i++) {
 689              		.loc 1 158 0
 690 000a 7046     		mov	r0, lr
 691              	.LVL86:
 692              	.LBB20:
 693              		.loc 1 159 0
 694 000c 2EE0     		b	.L45
 695              	.LVL87:
 696              	.L50:
 697              	.LBB16:
 698              	.LBB17:
 160:.\sprites.c   ****         // TODO: precompute whether to even show the sprite
 161:.\sprites.c   ****         for (int j = 0; j < sprites[i].n; j++) {
 162:.\sprites.c   ****             int x = sprites[i].vertices[j].x + sprites[i].x;
 699              		.loc 1 162 0
 700 000e F368     		ldr	r3, [r6, #12]
 701 0010 03EB4508 		add	r8, r3, r5, lsl #1
 702 0014 13F81540 		ldrb	r4, [r3, r5, lsl #1]	@ zero_extendqisi2
 703 0018 7768     		ldr	r7, [r6, #4]
 704              	.LVL88:
 163:.\sprites.c   ****             int y = sprites[i].vertices[j].y + sprites[i].y;
 705              		.loc 1 163 0
 706 001a 98F80180 		ldrb	r8, [r8, #1]	@ zero_extendqisi2
 707 001e B368     		ldr	r3, [r6, #8]
 708 0020 4344     		add	r3, r3, r8
 709              	.LVL89:
ARM GAS  C:\Users\User\AppData\Local\Temp\ccX7HAxZ.s 			page 17


 164:.\sprites.c   ****             // Clip if overflow (i.e. out of bounds)
 165:.\sprites.c   ****             points[n_points++] = (struct Point) {
 710              		.loc 1 165 0
 711 0022 461C     		adds	r6, r0, #1
 712              	.LVL90:
 713 0024 4000     		lsls	r0, r0, #1
 714 0026 02EB0008 		add	r8, r2, r0
 166:.\sprites.c   ****                 .x = (uint8)(x < 0 ? 0 : x > UINT8_MAX ? UINT8_MAX : x),
 715              		.loc 1 166 0
 716 002a E419     		adds	r4, r4, r7
 717              	.LVL91:
 718 002c 05D4     		bmi	.L52
 719              		.loc 1 166 0 is_stmt 0 discriminator 1
 720 002e FF2C     		cmp	r4, #255
 721 0030 01DC     		bgt	.L53
 722              		.loc 1 166 0 discriminator 3
 723 0032 E4B2     		uxtb	r4, r4
 724              	.LVL92:
 725 0034 02E0     		b	.L46
 726              	.LVL93:
 727              	.L53:
 728              		.loc 1 166 0
 729 0036 FF24     		movs	r4, #255
 730              	.LVL94:
 731 0038 00E0     		b	.L46
 732              	.LVL95:
 733              	.L52:
 734 003a 0024     		movs	r4, #0
 735              	.LVL96:
 736              	.L46:
 167:.\sprites.c   ****                 .y = (uint8)(y < 0 ? 0 : y > UINT8_MAX ? UINT8_MAX : y)
 737              		.loc 1 167 0 is_stmt 1
 738 003c 002B     		cmp	r3, #0
 739 003e 05DB     		blt	.L54
 740              		.loc 1 167 0 is_stmt 0 discriminator 1
 741 0040 FF2B     		cmp	r3, #255
 742 0042 01DC     		bgt	.L55
 743              		.loc 1 167 0 discriminator 3
 744 0044 DBB2     		uxtb	r3, r3
 745              	.LVL97:
 746 0046 02E0     		b	.L48
 747              	.LVL98:
 748              	.L55:
 749              		.loc 1 167 0
 750 0048 FF23     		movs	r3, #255
 751              	.LVL99:
 752 004a 00E0     		b	.L48
 753              	.LVL100:
 754              	.L54:
 755 004c 0023     		movs	r3, #0
 756              	.LVL101:
 757              	.L48:
 165:.\sprites.c   ****                 .x = (uint8)(x < 0 ? 0 : x > UINT8_MAX ? UINT8_MAX : x),
 758              		.loc 1 165 0 is_stmt 1 discriminator 2
 759 004e 1454     		strb	r4, [r2, r0]
 760              	.LVL102:
 761 0050 88F80130 		strb	r3, [r8, #1]
ARM GAS  C:\Users\User\AppData\Local\Temp\ccX7HAxZ.s 			page 18


 762              	.LBE17:
 161:.\sprites.c   ****             int x = sprites[i].vertices[j].x + sprites[i].x;
 763              		.loc 1 161 0 discriminator 2
 764 0054 0135     		adds	r5, r5, #1
 765              	.LVL103:
 766              	.LBB18:
 165:.\sprites.c   ****                 .x = (uint8)(x < 0 ? 0 : x > UINT8_MAX ? UINT8_MAX : x),
 767              		.loc 1 165 0 discriminator 2
 768 0056 3046     		mov	r0, r6
 769 0058 00E0     		b	.L51
 770              	.LVL104:
 771              	.L56:
 772              	.LBE18:
 773              	.LBE16:
 774 005a 0025     		movs	r5, #0
 775              	.L51:
 776              	.LVL105:
 777              	.LBB19:
 161:.\sprites.c   ****             int x = sprites[i].vertices[j].x + sprites[i].x;
 778              		.loc 1 161 0 discriminator 1
 779 005c 4FEA0E13 		lsl	r3, lr, #4
 780 0060 CE18     		adds	r6, r1, r3
 781 0062 CB58     		ldr	r3, [r1, r3]
 782 0064 AB42     		cmp	r3, r5
 783 0066 D2DC     		bgt	.L50
 784              	.LBE19:
 159:.\sprites.c   ****         // TODO: precompute whether to even show the sprite
 785              		.loc 1 159 0 discriminator 2
 786 0068 0EF1010E 		add	lr, lr, #1
 787              	.LVL106:
 788              	.L45:
 159:.\sprites.c   ****         // TODO: precompute whether to even show the sprite
 789              		.loc 1 159 0 is_stmt 0 discriminator 1
 790 006c E645     		cmp	lr, ip
 791 006e F4DB     		blt	.L56
 792              	.LBE20:
 168:.\sprites.c   ****             };
 169:.\sprites.c   ****         }
 170:.\sprites.c   ****     }
 171:.\sprites.c   ****     return n_points;
 172:.\sprites.c   **** }
 793              		.loc 1 172 0 is_stmt 1
 794 0070 BDE8F081 		pop	{r4, r5, r6, r7, r8, pc}
 795              		.cfi_endproc
 796              	.LFE4:
 797              		.size	sprites_to_polyline, .-sprites_to_polyline
 798              		.global	__aeabi_i2d
 799              		.global	__aeabi_d2f
 800              		.global	__aeabi_fdiv
 801              		.global	__aeabi_f2uiz
 802              		.section	.text.ortho_to_perspective,"ax",%progbits
 803              		.align	2
 804              		.global	ortho_to_perspective
 805              		.thumb
 806              		.thumb_func
 807              		.type	ortho_to_perspective, %function
 808              	ortho_to_perspective:
ARM GAS  C:\Users\User\AppData\Local\Temp\ccX7HAxZ.s 			page 19


 809              	.LFB5:
 173:.\sprites.c   **** 
 174:.\sprites.c   **** /*
 175:.\sprites.c   ****  * Mutates a list of points from an orthographic view to a perspective view.
 176:.\sprites.c   ****  *
 177:.\sprites.c   ****  * Matrix coefficients calculated using OpenCV by taking the perspective transform
 178:.\sprites.c   ****  * [(0, 0), (0, 255), (255, 255), (255, 0)] -> [(0, 0), (84, 255), (171, 255), (255, 0)]
 179:.\sprites.c   ****  * which yields
 180:.\sprites.c   ****  * [1   0.96551724  0
 181:.\sprites.c   ****  *  0   2.93103448  0
 182:.\sprites.c   ****  *  0   0.00757268  1]
 183:.\sprites.c   ****  */
 184:.\sprites.c   **** void ortho_to_perspective(int n_points, struct Point *points) {
 810              		.loc 1 184 0
 811              		.cfi_startproc
 812              		@ args = 0, pretend = 0, frame = 8
 813              		@ frame_needed = 0, uses_anonymous_args = 0
 814              	.LVL107:
 815 0000 2DE9F04F 		push	{r4, r5, r6, r7, r8, r9, r10, fp, lr}
 816              		.cfi_def_cfa_offset 36
 817              		.cfi_offset 4, -36
 818              		.cfi_offset 5, -32
 819              		.cfi_offset 6, -28
 820              		.cfi_offset 7, -24
 821              		.cfi_offset 8, -20
 822              		.cfi_offset 9, -16
 823              		.cfi_offset 10, -12
 824              		.cfi_offset 11, -8
 825              		.cfi_offset 14, -4
 826 0004 83B0     		sub	sp, sp, #12
 827              		.cfi_def_cfa_offset 48
 828 0006 8246     		mov	r10, r0
 829 0008 0D46     		mov	r5, r1
 830              	.LVL108:
 831              	.LBB21:
 185:.\sprites.c   ****     for (int i = 0; i < n_points; i++) {
 832              		.loc 1 185 0
 833 000a 0024     		movs	r4, #0
 834 000c 43E0     		b	.L59
 835              	.LVL109:
 836              	.L60:
 837              	.LBB22:
 186:.\sprites.c   ****         float scaled_x = points[i].x + 0.96551724 * points[i].y;
 838              		.loc 1 186 0 discriminator 3
 839 000e 05EB4408 		add	r8, r5, r4, lsl #1
 840 0012 15F81490 		ldrb	r9, [r5, r4, lsl #1]	@ zero_extendqisi2
 841 0016 98F80100 		ldrb	r0, [r8, #1]	@ zero_extendqisi2
 842 001a FFF7FEFF 		bl	__aeabi_i2d
 843              	.LVL110:
 844 001e 0646     		mov	r6, r0
 845 0020 0F46     		mov	r7, r1
 846 0022 1FA3     		adr	r3, .L62
 847 0024 D3E90023 		ldrd	r2, [r3]
 848 0028 FFF7FEFF 		bl	__aeabi_dmul
 849              	.LVL111:
 850 002c CDE90001 		strd	r0, [sp]
 851 0030 4846     		mov	r0, r9
ARM GAS  C:\Users\User\AppData\Local\Temp\ccX7HAxZ.s 			page 20


 852 0032 FFF7FEFF 		bl	__aeabi_i2d
 853              	.LVL112:
 854 0036 DDE90023 		ldrd	r2, [sp]
 855 003a FFF7FEFF 		bl	__aeabi_dadd
 856              	.LVL113:
 857 003e FFF7FEFF 		bl	__aeabi_d2f
 858              	.LVL114:
 859 0042 8346     		mov	fp, r0
 860              	.LVL115:
 187:.\sprites.c   ****         float scaled_y = 2.93103448 * points[i].y;
 861              		.loc 1 187 0 discriminator 3
 862 0044 3046     		mov	r0, r6
 863              	.LVL116:
 864 0046 3946     		mov	r1, r7
 865 0048 17A3     		adr	r3, .L62+8
 866 004a D3E90023 		ldrd	r2, [r3]
 867 004e FFF7FEFF 		bl	__aeabi_dmul
 868              	.LVL117:
 869 0052 FFF7FEFF 		bl	__aeabi_d2f
 870              	.LVL118:
 871 0056 8146     		mov	r9, r0
 872              	.LVL119:
 188:.\sprites.c   ****         float scaling = 1 + 0.00757268 * points[i].y;
 873              		.loc 1 188 0 discriminator 3
 874 0058 3046     		mov	r0, r6
 875              	.LVL120:
 876 005a 3946     		mov	r1, r7
 877 005c 14A3     		adr	r3, .L62+16
 878 005e D3E90023 		ldrd	r2, [r3]
 879 0062 FFF7FEFF 		bl	__aeabi_dmul
 880              	.LVL121:
 881 0066 0022     		movs	r2, #0
 882 0068 134B     		ldr	r3, .L62+24
 883 006a FFF7FEFF 		bl	__aeabi_dadd
 884              	.LVL122:
 885 006e FFF7FEFF 		bl	__aeabi_d2f
 886              	.LVL123:
 887 0072 0646     		mov	r6, r0
 888              	.LVL124:
 189:.\sprites.c   ****         points[i].x = (uint8)(scaled_x / scaling);
 889              		.loc 1 189 0 discriminator 3
 890 0074 5846     		mov	r0, fp
 891              	.LVL125:
 892 0076 3146     		mov	r1, r6
 893 0078 FFF7FEFF 		bl	__aeabi_fdiv
 894              	.LVL126:
 895 007c FFF7FEFF 		bl	__aeabi_f2uiz
 896              	.LVL127:
 897 0080 05F81400 		strb	r0, [r5, r4, lsl #1]
 190:.\sprites.c   ****         points[i].y = (uint8)(scaled_y / scaling);
 898              		.loc 1 190 0 discriminator 3
 899 0084 4846     		mov	r0, r9
 900 0086 3146     		mov	r1, r6
 901 0088 FFF7FEFF 		bl	__aeabi_fdiv
 902              	.LVL128:
 903 008c FFF7FEFF 		bl	__aeabi_f2uiz
 904              	.LVL129:
ARM GAS  C:\Users\User\AppData\Local\Temp\ccX7HAxZ.s 			page 21


 905 0090 88F80100 		strb	r0, [r8, #1]
 906              	.LBE22:
 185:.\sprites.c   ****         float scaled_x = points[i].x + 0.96551724 * points[i].y;
 907              		.loc 1 185 0 discriminator 3
 908 0094 0134     		adds	r4, r4, #1
 909              	.LVL130:
 910              	.L59:
 185:.\sprites.c   ****         float scaled_x = points[i].x + 0.96551724 * points[i].y;
 911              		.loc 1 185 0 is_stmt 0 discriminator 1
 912 0096 5445     		cmp	r4, r10
 913 0098 B9DB     		blt	.L60
 914              	.LBE21:
 191:.\sprites.c   ****     }
 192:.\sprites.c   **** }
 915              		.loc 1 192 0 is_stmt 1
 916 009a 03B0     		add	sp, sp, #12
 917              		.cfi_def_cfa_offset 36
 918              		@ sp needed
 919 009c BDE8F08F 		pop	{r4, r5, r6, r7, r8, r9, r10, fp, pc}
 920              	.LVL131:
 921              	.L63:
 922              		.align	3
 923              	.L62:
 924 00a0 1CC63069 		.word	1764804124
 925 00a4 84E5EE3F 		.word	1072620932
 926 00a8 0E639834 		.word	882402062
 927 00ac C2720740 		.word	1074229954
 928 00b0 02D416CF 		.word	-820587518
 929 00b4 87047F3F 		.word	1065288839
 930 00b8 0000F03F 		.word	1072693248
 931              		.cfi_endproc
 932              	.LFE5:
 933              		.size	ortho_to_perspective, .-ortho_to_perspective
 934 00bc AFF30080 		.bss
 935              		.align	2
 936              		.set	.LANCHOR0,. + 0
 937              		.type	sprite_vertices, %object
 938              		.size	sprite_vertices, 2048
 939              	sprite_vertices:
 940 0000 00000000 		.space	2048
 940      00000000 
 940      00000000 
 940      00000000 
 940      00000000 
 941              		.type	sprite_n, %object
 942              		.size	sprite_n, 16
 943              	sprite_n:
 944 0800 00000000 		.space	16
 944      00000000 
 944      00000000 
 944      00000000 
 945              		.text
 946              	.Letext0:
 947              		.file 2 "./sprites.h"
 948              		.file 3 "Generated_Source\\PSoC5/cytypes.h"
 949              		.file 4 "c:\\program files (x86)\\cypress\\psoc creator\\3.3\\psoc creator\\import\\gnu\\arm\\4.9.