ARM GAS  C:\Users\User\AppData\Local\Temp\ccNC5MzS.s 			page 1


   1              		.syntax unified
   2              		.cpu cortex-m3
   3              		.fpu softvfp
   4              		.eabi_attribute 20, 1
   5              		.eabi_attribute 21, 1
   6              		.eabi_attribute 23, 3
   7              		.eabi_attribute 24, 1
   8              		.eabi_attribute 25, 1
   9              		.eabi_attribute 26, 1
  10              		.eabi_attribute 30, 1
  11              		.eabi_attribute 34, 1
  12              		.eabi_attribute 18, 4
  13              		.thumb
  14              		.file	"sprite_utils.c"
  15              		.text
  16              	.Ltext0:
  17              		.cfi_sections	.debug_frame
  18              		.section	.text.make_fretboard,"ax",%progbits
  19              		.align	2
  20              		.global	make_fretboard
  21              		.thumb
  22              		.thumb_func
  23              		.type	make_fretboard, %function
  24              	make_fretboard:
  25              	.LFB0:
  26              		.file 1 ".\\sprite_utils.c"
   1:.\sprite_utils.c **** /* ========================================
   2:.\sprite_utils.c ****  *
   3:.\sprite_utils.c ****  * Copyright Andi Qu, 2024
   4:.\sprite_utils.c ****  * All Rights Reserved
   5:.\sprite_utils.c ****  * UNPUBLISHED, LICENSED SOFTWARE.
   6:.\sprite_utils.c ****  *
   7:.\sprite_utils.c ****  * CONFIDENTIAL AND PROPRIETARY INFORMATION
   8:.\sprite_utils.c ****  * WHICH IS THE PROPERTY OF ANDI QU.
   9:.\sprite_utils.c ****  *
  10:.\sprite_utils.c ****  * ========================================
  11:.\sprite_utils.c ****  */
  12:.\sprite_utils.c **** 
  13:.\sprite_utils.c **** #include <sprite_utils.h>
  14:.\sprite_utils.c **** #include <stdlib.h>
  15:.\sprite_utils.c **** 
  16:.\sprite_utils.c **** struct Point sprite_vertices[1<<10];
  17:.\sprite_utils.c **** 
  18:.\sprite_utils.c **** /*
  19:.\sprite_utils.c ****  * Creates a set of points to denote the boundaries of the fretboard
  20:.\sprite_utils.c ****  */
  21:.\sprite_utils.c **** struct Sprite make_fretboard() {
  27              		.loc 1 21 0
  28              		.cfi_startproc
  29              		@ args = 0, pretend = 0, frame = 0
  30              		@ frame_needed = 0, uses_anonymous_args = 0
  31              		@ link register save eliminated.
  32              	.LVL0:
  33 0000 70B4     		push	{r4, r5, r6}
  34              		.cfi_def_cfa_offset 12
  35              		.cfi_offset 4, -12
  36              		.cfi_offset 5, -8
ARM GAS  C:\Users\User\AppData\Local\Temp\ccNC5MzS.s 			page 2


  37              		.cfi_offset 6, -4
  38              	.LVL1:
  39              	.LBB2:
  22:.\sprite_utils.c ****     const int resolution = 16;
  23:.\sprite_utils.c ****     int n = 0;
  24:.\sprite_utils.c **** 
  25:.\sprite_utils.c ****     // Bottom edge
  26:.\sprite_utils.c ****     for (int i = 0; i < resolution; i++) {
  40              		.loc 1 26 0
  41 0002 0022     		movs	r2, #0
  42              	.LBE2:
  23:.\sprite_utils.c **** 
  43              		.loc 1 23 0
  44 0004 1346     		mov	r3, r2
  45              	.LBB3:
  46              		.loc 1 26 0
  47 0006 11E0     		b	.L2
  48              	.LVL2:
  49              	.L4:
  27:.\sprite_utils.c ****         sprite_vertices[n++] = (struct Point) {
  50              		.loc 1 27 0 discriminator 3
  51 0008 5D1C     		adds	r5, r3, #1
  52              	.LVL3:
  28:.\sprite_utils.c ****             .x = UINT8_MAX * i / resolution,
  53              		.loc 1 28 0 discriminator 3
  54 000a C2EB0224 		rsb	r4, r2, r2, lsl #8
  55 000e 2146     		mov	r1, r4
  56 0010 002C     		cmp	r4, #0
  57 0012 01DA     		bge	.L3
  58 0014 04F10F01 		add	r1, r4, #15
  59              	.L3:
  60 0018 0C11     		asrs	r4, r1, #4
  27:.\sprite_utils.c ****         sprite_vertices[n++] = (struct Point) {
  61              		.loc 1 27 0 discriminator 3
  62 001a 2E49     		ldr	r1, .L15
  63 001c 01F81340 		strb	r4, [r1, r3, lsl #1]
  64 0020 01EB4303 		add	r3, r1, r3, lsl #1
  65 0024 0021     		movs	r1, #0
  66 0026 5970     		strb	r1, [r3, #1]
  26:.\sprite_utils.c ****         sprite_vertices[n++] = (struct Point) {
  67              		.loc 1 26 0 discriminator 3
  68 0028 0132     		adds	r2, r2, #1
  69              	.LVL4:
  27:.\sprite_utils.c ****         sprite_vertices[n++] = (struct Point) {
  70              		.loc 1 27 0 discriminator 3
  71 002a 2B46     		mov	r3, r5
  72              	.LVL5:
  73              	.L2:
  26:.\sprite_utils.c ****         sprite_vertices[n++] = (struct Point) {
  74              		.loc 1 26 0 discriminator 1
  75 002c 0F2A     		cmp	r2, #15
  76 002e EBDD     		ble	.L4
  77 0030 0022     		movs	r2, #0
  78              	.LVL6:
  79 0032 11E0     		b	.L5
  80              	.LVL7:
  81              	.L7:
ARM GAS  C:\Users\User\AppData\Local\Temp\ccNC5MzS.s 			page 3


  82              	.LBE3:
  83              	.LBB4:
  29:.\sprite_utils.c ****             .y = 0
  30:.\sprite_utils.c ****         };
  31:.\sprite_utils.c ****     }
  32:.\sprite_utils.c ****     // Right edge
  33:.\sprite_utils.c ****     for (int i = 0; i < resolution; i++) {
  34:.\sprite_utils.c ****         sprite_vertices[n++] = (struct Point) {
  84              		.loc 1 34 0 discriminator 3
  85 0034 5D1C     		adds	r5, r3, #1
  86              	.LVL8:
  35:.\sprite_utils.c ****             .x = UINT8_MAX,
  36:.\sprite_utils.c ****             .y = UINT8_MAX * i / resolution
  87              		.loc 1 36 0 discriminator 3
  88 0036 C2EB0224 		rsb	r4, r2, r2, lsl #8
  89 003a 2146     		mov	r1, r4
  90 003c 002C     		cmp	r4, #0
  91 003e 01DA     		bge	.L6
  92 0040 04F10F01 		add	r1, r4, #15
  93              	.L6:
  94 0044 0C11     		asrs	r4, r1, #4
  34:.\sprite_utils.c ****             .x = UINT8_MAX,
  95              		.loc 1 34 0 discriminator 3
  96 0046 2349     		ldr	r1, .L15
  97 0048 FF26     		movs	r6, #255
  98 004a 01F81360 		strb	r6, [r1, r3, lsl #1]
  99 004e 01EB4303 		add	r3, r1, r3, lsl #1
 100 0052 5C70     		strb	r4, [r3, #1]
  33:.\sprite_utils.c ****         sprite_vertices[n++] = (struct Point) {
 101              		.loc 1 33 0 discriminator 3
 102 0054 0132     		adds	r2, r2, #1
 103              	.LVL9:
  34:.\sprite_utils.c ****             .x = UINT8_MAX,
 104              		.loc 1 34 0 discriminator 3
 105 0056 2B46     		mov	r3, r5
 106              	.LVL10:
 107              	.L5:
  33:.\sprite_utils.c ****         sprite_vertices[n++] = (struct Point) {
 108              		.loc 1 33 0 discriminator 1
 109 0058 0F2A     		cmp	r2, #15
 110 005a EBDD     		ble	.L7
 111 005c 0022     		movs	r2, #0
 112              	.LVL11:
 113 005e 12E0     		b	.L8
 114              	.LVL12:
 115              	.L10:
 116              	.LBE4:
 117              	.LBB5:
  37:.\sprite_utils.c ****         };
  38:.\sprite_utils.c ****     }
  39:.\sprite_utils.c ****     // Top edge
  40:.\sprite_utils.c ****     for (int i = 0; i < resolution; i++) {
  41:.\sprite_utils.c ****         sprite_vertices[n++] = (struct Point) {
 118              		.loc 1 41 0 discriminator 3
 119 0060 5D1C     		adds	r5, r3, #1
 120              	.LVL13:
  42:.\sprite_utils.c ****             .x = UINT8_MAX - UINT8_MAX * i / resolution,
ARM GAS  C:\Users\User\AppData\Local\Temp\ccNC5MzS.s 			page 4


 121              		.loc 1 42 0 discriminator 3
 122 0062 C2EB0221 		rsb	r1, r2, r2, lsl #8
 123 0066 0C46     		mov	r4, r1
 124 0068 0029     		cmp	r1, #0
 125 006a 01DA     		bge	.L9
 126 006c 01F10F04 		add	r4, r1, #15
 127              	.L9:
  41:.\sprite_utils.c ****             .x = UINT8_MAX - UINT8_MAX * i / resolution,
 128              		.loc 1 41 0 discriminator 3
 129 0070 1849     		ldr	r1, .L15
 130 0072 6FEA2414 		mvn	r4, r4, asr #4
 131 0076 01F81340 		strb	r4, [r1, r3, lsl #1]
 132 007a 01EB4303 		add	r3, r1, r3, lsl #1
 133 007e FF21     		movs	r1, #255
 134 0080 5970     		strb	r1, [r3, #1]
  40:.\sprite_utils.c ****         sprite_vertices[n++] = (struct Point) {
 135              		.loc 1 40 0 discriminator 3
 136 0082 0132     		adds	r2, r2, #1
 137              	.LVL14:
  41:.\sprite_utils.c ****             .x = UINT8_MAX - UINT8_MAX * i / resolution,
 138              		.loc 1 41 0 discriminator 3
 139 0084 2B46     		mov	r3, r5
 140              	.LVL15:
 141              	.L8:
  40:.\sprite_utils.c ****         sprite_vertices[n++] = (struct Point) {
 142              		.loc 1 40 0 discriminator 1
 143 0086 0F2A     		cmp	r2, #15
 144 0088 EADD     		ble	.L10
 145 008a 0022     		movs	r2, #0
 146              	.LVL16:
 147 008c 12E0     		b	.L11
 148              	.LVL17:
 149              	.L13:
 150              	.LBE5:
 151              	.LBB6:
  43:.\sprite_utils.c ****             .y = UINT8_MAX
  44:.\sprite_utils.c ****         };
  45:.\sprite_utils.c ****     }
  46:.\sprite_utils.c ****     // Left edge
  47:.\sprite_utils.c ****     for (int i = 0; i < resolution; i++) {
  48:.\sprite_utils.c ****         sprite_vertices[n++] = (struct Point) {
 152              		.loc 1 48 0 discriminator 3
 153 008e 5D1C     		adds	r5, r3, #1
 154              	.LVL18:
  49:.\sprite_utils.c ****             .x = 0,
  50:.\sprite_utils.c ****             .y = UINT8_MAX - UINT8_MAX * i / resolution
 155              		.loc 1 50 0 discriminator 3
 156 0090 C2EB0221 		rsb	r1, r2, r2, lsl #8
 157 0094 0C46     		mov	r4, r1
 158 0096 0029     		cmp	r1, #0
 159 0098 01DA     		bge	.L12
 160 009a 01F10F04 		add	r4, r1, #15
 161              	.L12:
  48:.\sprite_utils.c ****             .x = 0,
 162              		.loc 1 48 0 discriminator 3
 163 009e 0D49     		ldr	r1, .L15
 164 00a0 0026     		movs	r6, #0
ARM GAS  C:\Users\User\AppData\Local\Temp\ccNC5MzS.s 			page 5


 165 00a2 01F81360 		strb	r6, [r1, r3, lsl #1]
 166 00a6 01EB4303 		add	r3, r1, r3, lsl #1
 167 00aa 6FEA2414 		mvn	r4, r4, asr #4
 168 00ae 5C70     		strb	r4, [r3, #1]
  47:.\sprite_utils.c ****         sprite_vertices[n++] = (struct Point) {
 169              		.loc 1 47 0 discriminator 3
 170 00b0 0132     		adds	r2, r2, #1
 171              	.LVL19:
  48:.\sprite_utils.c ****             .x = 0,
 172              		.loc 1 48 0 discriminator 3
 173 00b2 2B46     		mov	r3, r5
 174              	.LVL20:
 175              	.L11:
  47:.\sprite_utils.c ****         sprite_vertices[n++] = (struct Point) {
 176              		.loc 1 47 0 discriminator 1
 177 00b4 0F2A     		cmp	r2, #15
 178 00b6 EADD     		ble	.L13
 179              	.LBE6:
  51:.\sprite_utils.c ****         };
  52:.\sprite_utils.c ****     }
  53:.\sprite_utils.c ****     // Complete the polygon
  54:.\sprite_utils.c ****     sprite_vertices[n++] = (struct Point) { .x = 0, .y = 0 };
 180              		.loc 1 54 0
 181 00b8 5C1C     		adds	r4, r3, #1
 182              	.LVL21:
 183 00ba 0649     		ldr	r1, .L15
 184 00bc 0022     		movs	r2, #0
 185              	.LVL22:
 186 00be 01F81320 		strb	r2, [r1, r3, lsl #1]
 187 00c2 01EB4303 		add	r3, r1, r3, lsl #1
 188 00c6 5A70     		strb	r2, [r3, #1]
  55:.\sprite_utils.c **** 
  56:.\sprite_utils.c ****     return (struct Sprite) {
 189              		.loc 1 56 0
 190 00c8 0460     		str	r4, [r0]
 191 00ca 0271     		strb	r2, [r0, #4]
 192 00cc 4271     		strb	r2, [r0, #5]
 193 00ce 8160     		str	r1, [r0, #8]
  57:.\sprite_utils.c ****         .position = (struct Point) { .x = 0, .y = 0 },
  58:.\sprite_utils.c ****         .n = n,
  59:.\sprite_utils.c ****         .vertices = sprite_vertices
  60:.\sprite_utils.c ****     };
  61:.\sprite_utils.c **** }
 194              		.loc 1 61 0
 195 00d0 70BC     		pop	{r4, r5, r6}
 196              		.cfi_restore 6
 197              		.cfi_restore 5
 198              		.cfi_restore 4
 199              		.cfi_def_cfa_offset 0
 200              	.LVL23:
 201 00d2 7047     		bx	lr
 202              	.L16:
 203              		.align	2
 204              	.L15:
 205 00d4 00000000 		.word	sprite_vertices
 206              		.cfi_endproc
 207              	.LFE0:
ARM GAS  C:\Users\User\AppData\Local\Temp\ccNC5MzS.s 			page 6


 208              		.size	make_fretboard, .-make_fretboard
 209              		.section	.text.sprites_to_polyline,"ax",%progbits
 210              		.align	2
 211              		.global	sprites_to_polyline
 212              		.thumb
 213              		.thumb_func
 214              		.type	sprites_to_polyline, %function
 215              	sprites_to_polyline:
 216              	.LFB1:
  62:.\sprite_utils.c **** 
  63:.\sprite_utils.c **** /*
  64:.\sprite_utils.c ****  * Converts a list of sprites into a polyline that the scope can render.
  65:.\sprite_utils.c ****  */
  66:.\sprite_utils.c **** int sprites_to_polyline(int n_sprites, struct Sprite *sprites, struct Point *points) {
 217              		.loc 1 66 0
 218              		.cfi_startproc
 219              		@ args = 0, pretend = 0, frame = 0
 220              		@ frame_needed = 0, uses_anonymous_args = 0
 221              		@ link register save eliminated.
 222              	.LVL24:
 223 0000 F0B4     		push	{r4, r5, r6, r7}
 224              		.cfi_def_cfa_offset 16
 225              		.cfi_offset 4, -16
 226              		.cfi_offset 5, -12
 227              		.cfi_offset 6, -8
 228              		.cfi_offset 7, -4
 229 0002 0746     		mov	r7, r0
 230              	.LVL25:
 231              	.LBB7:
  67:.\sprite_utils.c ****     // For now, naively convert to points
  68:.\sprite_utils.c ****     int n_points = 0;
  69:.\sprite_utils.c ****     for (int i = 0; i < n_sprites; i++) {
 232              		.loc 1 69 0
 233 0004 0025     		movs	r5, #0
 234              	.LBE7:
  68:.\sprite_utils.c ****     for (int i = 0; i < n_sprites; i++) {
 235              		.loc 1 68 0
 236 0006 2846     		mov	r0, r5
 237              	.LVL26:
 238              	.LBB10:
 239              		.loc 1 69 0
 240 0008 10E0     		b	.L18
 241              	.LVL27:
 242              	.L19:
 243              	.LBB8:
  70:.\sprite_utils.c ****         for (int j = 0; j < sprites[i].n; j++) {
  71:.\sprite_utils.c ****             // TODO: incorporate position
  72:.\sprite_utils.c ****             points[n_points++] = sprites[i].vertices[j];
 244              		.loc 1 72 0 discriminator 3
 245 000a B368     		ldr	r3, [r6, #8]
 246 000c 33F81430 		ldrh	r3, [r3, r4, lsl #1]	@ unaligned
 247 0010 22F81030 		strh	r3, [r2, r0, lsl #1]	@ unaligned
  70:.\sprite_utils.c ****         for (int j = 0; j < sprites[i].n; j++) {
 248              		.loc 1 70 0 discriminator 3
 249 0014 0134     		adds	r4, r4, #1
 250              	.LVL28:
 251              		.loc 1 72 0 discriminator 3
ARM GAS  C:\Users\User\AppData\Local\Temp\ccNC5MzS.s 			page 7


 252 0016 0130     		adds	r0, r0, #1
 253              	.LVL29:
 254 0018 00E0     		b	.L20
 255              	.LVL30:
 256              	.L21:
 257              	.LBE8:
 258 001a 0024     		movs	r4, #0
 259              	.L20:
 260              	.LVL31:
 261              	.LBB9:
  70:.\sprite_utils.c ****         for (int j = 0; j < sprites[i].n; j++) {
 262              		.loc 1 70 0 discriminator 1
 263 001c 05EB4503 		add	r3, r5, r5, lsl #1
 264 0020 9B00     		lsls	r3, r3, #2
 265 0022 CE18     		adds	r6, r1, r3
 266 0024 CB58     		ldr	r3, [r1, r3]
 267 0026 A342     		cmp	r3, r4
 268 0028 EFDC     		bgt	.L19
 269              	.LBE9:
  69:.\sprite_utils.c ****         for (int j = 0; j < sprites[i].n; j++) {
 270              		.loc 1 69 0 discriminator 2
 271 002a 0135     		adds	r5, r5, #1
 272              	.LVL32:
 273              	.L18:
  69:.\sprite_utils.c ****         for (int j = 0; j < sprites[i].n; j++) {
 274              		.loc 1 69 0 is_stmt 0 discriminator 1
 275 002c BD42     		cmp	r5, r7
 276 002e F4DB     		blt	.L21
 277              	.LBE10:
  73:.\sprite_utils.c ****         }
  74:.\sprite_utils.c ****     }
  75:.\sprite_utils.c ****     return n_points;
  76:.\sprite_utils.c **** }
 278              		.loc 1 76 0 is_stmt 1
 279 0030 F0BC     		pop	{r4, r5, r6, r7}
 280              		.cfi_restore 7
 281              		.cfi_restore 6
 282              		.cfi_restore 5
 283              		.cfi_restore 4
 284              		.cfi_def_cfa_offset 0
 285              	.LVL33:
 286 0032 7047     		bx	lr
 287              		.cfi_endproc
 288              	.LFE1:
 289              		.size	sprites_to_polyline, .-sprites_to_polyline
 290              		.global	__aeabi_i2d
 291              		.global	__aeabi_dmul
 292              		.global	__aeabi_dadd
 293              		.global	__aeabi_d2f
 294              		.global	__aeabi_fdiv
 295              		.global	__aeabi_f2uiz
 296              		.section	.text.ortho_to_perspective,"ax",%progbits
 297              		.align	2
 298              		.global	ortho_to_perspective
 299              		.thumb
 300              		.thumb_func
 301              		.type	ortho_to_perspective, %function
ARM GAS  C:\Users\User\AppData\Local\Temp\ccNC5MzS.s 			page 8


 302              	ortho_to_perspective:
 303              	.LFB2:
  77:.\sprite_utils.c **** 
  78:.\sprite_utils.c **** /*
  79:.\sprite_utils.c ****  * Mutates a list of points from an orthographic view to a perspective view.
  80:.\sprite_utils.c ****  *
  81:.\sprite_utils.c ****  * Matrix coefficients calculated using OpenCV by taking the perspective transform
  82:.\sprite_utils.c ****  * [(0, 0), (0, 255), (255, 255), (255, 0)] -> [(0, 0), (100, 255), (155, 255), (255, 0)]
  83:.\sprite_utils.c ****  * which yields
  84:.\sprite_utils.c ****  * [1   1.81818182  0
  85:.\sprite_utils.c ****  *  0   4.63636364  0
  86:.\sprite_utils.c ****  *  0   0.01426025  1]
  87:.\sprite_utils.c ****  */
  88:.\sprite_utils.c **** void ortho_to_perspective(int n_points, struct Point *points) {
 304              		.loc 1 88 0
 305              		.cfi_startproc
 306              		@ args = 0, pretend = 0, frame = 8
 307              		@ frame_needed = 0, uses_anonymous_args = 0
 308              	.LVL34:
 309 0000 2DE9F04F 		push	{r4, r5, r6, r7, r8, r9, r10, fp, lr}
 310              		.cfi_def_cfa_offset 36
 311              		.cfi_offset 4, -36
 312              		.cfi_offset 5, -32
 313              		.cfi_offset 6, -28
 314              		.cfi_offset 7, -24
 315              		.cfi_offset 8, -20
 316              		.cfi_offset 9, -16
 317              		.cfi_offset 10, -12
 318              		.cfi_offset 11, -8
 319              		.cfi_offset 14, -4
 320 0004 83B0     		sub	sp, sp, #12
 321              		.cfi_def_cfa_offset 48
 322 0006 8246     		mov	r10, r0
 323 0008 0D46     		mov	r5, r1
 324              	.LVL35:
 325              	.LBB11:
  89:.\sprite_utils.c ****     for (int i = 0; i < n_points; i++) {
 326              		.loc 1 89 0
 327 000a 0024     		movs	r4, #0
 328 000c 43E0     		b	.L24
 329              	.LVL36:
 330              	.L25:
 331              	.LBB12:
  90:.\sprite_utils.c ****         float scaled_x = points[i].x + 1.81818182 * points[i].y;
 332              		.loc 1 90 0 discriminator 3
 333 000e 05EB4408 		add	r8, r5, r4, lsl #1
 334 0012 15F81490 		ldrb	r9, [r5, r4, lsl #1]	@ zero_extendqisi2
 335 0016 98F80100 		ldrb	r0, [r8, #1]	@ zero_extendqisi2
 336 001a FFF7FEFF 		bl	__aeabi_i2d
 337              	.LVL37:
 338 001e 0646     		mov	r6, r0
 339 0020 0F46     		mov	r7, r1
 340 0022 1FA3     		adr	r3, .L27
 341 0024 D3E90023 		ldrd	r2, [r3]
 342 0028 FFF7FEFF 		bl	__aeabi_dmul
 343              	.LVL38:
 344 002c CDE90001 		strd	r0, [sp]
ARM GAS  C:\Users\User\AppData\Local\Temp\ccNC5MzS.s 			page 9


 345 0030 4846     		mov	r0, r9
 346 0032 FFF7FEFF 		bl	__aeabi_i2d
 347              	.LVL39:
 348 0036 DDE90023 		ldrd	r2, [sp]
 349 003a FFF7FEFF 		bl	__aeabi_dadd
 350              	.LVL40:
 351 003e FFF7FEFF 		bl	__aeabi_d2f
 352              	.LVL41:
 353 0042 8346     		mov	fp, r0
 354              	.LVL42:
  91:.\sprite_utils.c ****         float scaled_y = 4.63636364 * points[i].y;
 355              		.loc 1 91 0 discriminator 3
 356 0044 3046     		mov	r0, r6
 357              	.LVL43:
 358 0046 3946     		mov	r1, r7
 359 0048 17A3     		adr	r3, .L27+8
 360 004a D3E90023 		ldrd	r2, [r3]
 361 004e FFF7FEFF 		bl	__aeabi_dmul
 362              	.LVL44:
 363 0052 FFF7FEFF 		bl	__aeabi_d2f
 364              	.LVL45:
 365 0056 8146     		mov	r9, r0
 366              	.LVL46:
  92:.\sprite_utils.c ****         float scaling = 1 + 0.01426025 * points[i].y;
 367              		.loc 1 92 0 discriminator 3
 368 0058 3046     		mov	r0, r6
 369              	.LVL47:
 370 005a 3946     		mov	r1, r7
 371 005c 14A3     		adr	r3, .L27+16
 372 005e D3E90023 		ldrd	r2, [r3]
 373 0062 FFF7FEFF 		bl	__aeabi_dmul
 374              	.LVL48:
 375 0066 0022     		movs	r2, #0
 376 0068 134B     		ldr	r3, .L27+24
 377 006a FFF7FEFF 		bl	__aeabi_dadd
 378              	.LVL49:
 379 006e FFF7FEFF 		bl	__aeabi_d2f
 380              	.LVL50:
 381 0072 0646     		mov	r6, r0
 382              	.LVL51:
  93:.\sprite_utils.c ****         points[i].x = (uint8)(scaled_x / scaling);
 383              		.loc 1 93 0 discriminator 3
 384 0074 5846     		mov	r0, fp
 385              	.LVL52:
 386 0076 3146     		mov	r1, r6
 387 0078 FFF7FEFF 		bl	__aeabi_fdiv
 388              	.LVL53:
 389 007c FFF7FEFF 		bl	__aeabi_f2uiz
 390              	.LVL54:
 391 0080 05F81400 		strb	r0, [r5, r4, lsl #1]
  94:.\sprite_utils.c ****         points[i].y = (uint8)(scaled_y / scaling);
 392              		.loc 1 94 0 discriminator 3
 393 0084 4846     		mov	r0, r9
 394 0086 3146     		mov	r1, r6
 395 0088 FFF7FEFF 		bl	__aeabi_fdiv
 396              	.LVL55:
 397 008c FFF7FEFF 		bl	__aeabi_f2uiz
ARM GAS  C:\Users\User\AppData\Local\Temp\ccNC5MzS.s 			page 10


 398              	.LVL56:
 399 0090 88F80100 		strb	r0, [r8, #1]
 400              	.LBE12:
  89:.\sprite_utils.c ****         float scaled_x = points[i].x + 1.81818182 * points[i].y;
 401              		.loc 1 89 0 discriminator 3
 402 0094 0134     		adds	r4, r4, #1
 403              	.LVL57:
 404              	.L24:
  89:.\sprite_utils.c ****         float scaled_x = points[i].x + 1.81818182 * points[i].y;
 405              		.loc 1 89 0 is_stmt 0 discriminator 1
 406 0096 5445     		cmp	r4, r10
 407 0098 B9DB     		blt	.L25
 408              	.LBE11:
  95:.\sprite_utils.c ****     }
  96:.\sprite_utils.c **** }
 409              		.loc 1 96 0 is_stmt 1
 410 009a 03B0     		add	sp, sp, #12
 411              		.cfi_def_cfa_offset 36
 412              		@ sp needed
 413 009c BDE8F08F 		pop	{r4, r5, r6, r7, r8, r9, r10, fp, pc}
 414              	.LVL58:
 415              	.L28:
 416              		.align	3
 417              	.L27:
 418 00a0 E24EF1D1 		.word	-772714782
 419 00a4 4517FD3F 		.word	1073551173
 420 00a8 71A7F8E8 		.word	-386357391
 421 00ac A28B1240 		.word	1074957218
 422 00b0 0FF10F5B 		.word	1527771407
 423 00b4 7A348D3F 		.word	1066218618
 424 00b8 0000F03F 		.word	1072693248
 425              		.cfi_endproc
 426              	.LFE2:
 427              		.size	ortho_to_perspective, .-ortho_to_perspective
 428              		.comm	sprite_vertices,2048,4
 429 00bc AFF30080 		.text
 430              	.Letext0:
 431              		.file 2 "./sprite_utils.h"
 432              		.file 3 "Generated_Source\\PSoC5/cytypes.h"